ARM GAS  C:\Users\danst\AppData\Local\Temp\ccwBJjMd.s 			page 1


   1              		.cpu cortex-m7
   2              		.eabi_attribute 28, 1
   3              		.eabi_attribute 20, 1
   4              		.eabi_attribute 21, 1
   5              		.eabi_attribute 23, 3
   6              		.eabi_attribute 24, 1
   7              		.eabi_attribute 25, 1
   8              		.eabi_attribute 26, 1
   9              		.eabi_attribute 30, 2
  10              		.eabi_attribute 34, 1
  11              		.eabi_attribute 18, 4
  12              		.file	"takshaka.cpp"
  13              		.text
  14              	.Ltext0:
  15              		.cfi_sections	.debug_frame
  16              		.section	.text._ZN5daisy6SwitchD2Ev,"axG",%progbits,_ZN5daisy6SwitchD5Ev,comdat
  17              		.align	1
  18              		.p2align 2,,3
  19              		.weak	_ZN5daisy6SwitchD2Ev
  20              		.arch armv7e-m
  21              		.syntax unified
  22              		.thumb
  23              		.thumb_func
  24              		.fpu fpv5-d16
  26              	_ZN5daisy6SwitchD2Ev:
  27              	.LVL0:
  28              	.LFB1605:
  29              		.file 1 "../../libDaisy//src/hid/switch.h"
   1:../../libDaisy//src/hid/switch.h **** #pragma once
   2:../../libDaisy//src/hid/switch.h **** #ifndef DSY_SWITCH_H
   3:../../libDaisy//src/hid/switch.h **** #define DSY_SWITCH_H
   4:../../libDaisy//src/hid/switch.h **** #include "daisy_core.h"
   5:../../libDaisy//src/hid/switch.h **** #include "per/gpio.h"
   6:../../libDaisy//src/hid/switch.h **** #include "sys/system.h"
   7:../../libDaisy//src/hid/switch.h **** 
   8:../../libDaisy//src/hid/switch.h **** namespace daisy
   9:../../libDaisy//src/hid/switch.h **** {
  10:../../libDaisy//src/hid/switch.h **** /** 
  11:../../libDaisy//src/hid/switch.h ****     Generic Class for handling momentary/latching switches \n 
  12:../../libDaisy//src/hid/switch.h ****     Inspired/influenced by Mutable Instruments (pichenettes) Switch classes
  13:../../libDaisy//src/hid/switch.h ****     @author Stephen Hensley
  14:../../libDaisy//src/hid/switch.h ****     @date December 2019
  15:../../libDaisy//src/hid/switch.h ****     @ingroup controls
  16:../../libDaisy//src/hid/switch.h **** */
  17:../../libDaisy//src/hid/switch.h **** class Switch
  18:../../libDaisy//src/hid/switch.h **** {
  19:../../libDaisy//src/hid/switch.h ****   public:
  20:../../libDaisy//src/hid/switch.h ****     /** Specifies the expected behavior of the switch */
  21:../../libDaisy//src/hid/switch.h ****     enum Type
  22:../../libDaisy//src/hid/switch.h ****     {
  23:../../libDaisy//src/hid/switch.h ****         TYPE_TOGGLE,    /**< & */
  24:../../libDaisy//src/hid/switch.h ****         TYPE_MOMENTARY, /**< & */
  25:../../libDaisy//src/hid/switch.h ****     };
  26:../../libDaisy//src/hid/switch.h ****     /** Specifies whether the pressed is HIGH or LOW. */
  27:../../libDaisy//src/hid/switch.h ****     enum Polarity
  28:../../libDaisy//src/hid/switch.h ****     {
  29:../../libDaisy//src/hid/switch.h ****         POLARITY_NORMAL,   /**< & */
ARM GAS  C:\Users\danst\AppData\Local\Temp\ccwBJjMd.s 			page 2


  30:../../libDaisy//src/hid/switch.h ****         POLARITY_INVERTED, /**< & */
  31:../../libDaisy//src/hid/switch.h ****     };
  32:../../libDaisy//src/hid/switch.h **** 
  33:../../libDaisy//src/hid/switch.h ****     /** Specifies whether to use built-in Pull Up/Down resistors to hold button at a given state wh
  34:../../libDaisy//src/hid/switch.h ****     enum Pull
  35:../../libDaisy//src/hid/switch.h ****     {
  36:../../libDaisy//src/hid/switch.h ****         PULL_UP,   /**< & */
  37:../../libDaisy//src/hid/switch.h ****         PULL_DOWN, /**< & */
  38:../../libDaisy//src/hid/switch.h ****         PULL_NONE, /**< & */
  39:../../libDaisy//src/hid/switch.h ****     };
  40:../../libDaisy//src/hid/switch.h **** 
  41:../../libDaisy//src/hid/switch.h ****     Switch() {}
  42:../../libDaisy//src/hid/switch.h ****     ~Switch() {}
  30              		.loc 1 42 5 view -0
  31              		.cfi_startproc
  32              		@ args = 0, pretend = 0, frame = 0
  33              		@ frame_needed = 0, uses_anonymous_args = 0
  34              		@ link register save eliminated.
  35              		.loc 1 42 16 is_stmt 0 view .LVU1
  36 0000 7047     		bx	lr
  37              		.cfi_endproc
  38              	.LFE1605:
  40              		.weak	_ZN5daisy6SwitchD1Ev
  41              		.thumb_set _ZN5daisy6SwitchD1Ev,_ZN5daisy6SwitchD2Ev
  42 0002 00BF     		.section	.text._ZN5daisy9DaisySeedD2Ev,"axG",%progbits,_ZN5daisy9DaisySeedD5Ev,comdat
  43              		.align	1
  44              		.p2align 2,,3
  45              		.weak	_ZN5daisy9DaisySeedD2Ev
  46              		.syntax unified
  47              		.thumb
  48              		.thumb_func
  49              		.fpu fpv5-d16
  51              	_ZN5daisy9DaisySeedD2Ev:
  52              	.LVL1:
  53              	.LFB2528:
  54              		.file 2 "../../libDaisy//src/daisy_seed.h"
   1:../../libDaisy//src/daisy_seed.h **** #pragma once
   2:../../libDaisy//src/daisy_seed.h **** #ifndef DSY_SEED_H
   3:../../libDaisy//src/daisy_seed.h **** #define DSY_SEED_H
   4:../../libDaisy//src/daisy_seed.h **** 
   5:../../libDaisy//src/daisy_seed.h **** #include "daisy.h"
   6:../../libDaisy//src/daisy_seed.h **** 
   7:../../libDaisy//src/daisy_seed.h **** //Uncomment this out if you're still using the rev2 hardware
   8:../../libDaisy//src/daisy_seed.h **** //#define SEED_REV2
   9:../../libDaisy//src/daisy_seed.h **** 
  10:../../libDaisy//src/daisy_seed.h **** namespace daisy
  11:../../libDaisy//src/daisy_seed.h **** {
  12:../../libDaisy//src/daisy_seed.h **** /**
  13:../../libDaisy//src/daisy_seed.h ****    @brief This is the higher-level interface for the Daisy board. \n 
  14:../../libDaisy//src/daisy_seed.h ****     All basic peripheral configuration/initialization is setup here. \n
  15:../../libDaisy//src/daisy_seed.h **** 
  16:../../libDaisy//src/daisy_seed.h ****    @ingroup boards
  17:../../libDaisy//src/daisy_seed.h **** */
  18:../../libDaisy//src/daisy_seed.h **** class DaisySeed
  19:../../libDaisy//src/daisy_seed.h **** {
  20:../../libDaisy//src/daisy_seed.h ****   public:
  21:../../libDaisy//src/daisy_seed.h ****     DaisySeed() {}
ARM GAS  C:\Users\danst\AppData\Local\Temp\ccwBJjMd.s 			page 3


  22:../../libDaisy//src/daisy_seed.h ****     ~DaisySeed() {}
  55              		.loc 2 22 5 is_stmt 1 view -0
  56              		.cfi_startproc
  57              		@ args = 0, pretend = 0, frame = 0
  58              		@ frame_needed = 0, uses_anonymous_args = 0
  59              		@ link register save eliminated.
  60              	.LBB556:
  61              	.LBI556:
  62              		.file 3 "../../libDaisy//src/sys/system.h"
   1:../../libDaisy//src/sys/system.h **** #ifndef DSY_SYSTEM_H
   2:../../libDaisy//src/sys/system.h **** #define DSY_SYSTEM_H
   3:../../libDaisy//src/sys/system.h **** 
   4:../../libDaisy//src/sys/system.h **** #ifndef UNIT_TEST // for unit tests, a dummy implementation is provided below
   5:../../libDaisy//src/sys/system.h **** 
   6:../../libDaisy//src/sys/system.h **** #include <cstdint>
   7:../../libDaisy//src/sys/system.h **** #include "per/tim.h"
   8:../../libDaisy//src/sys/system.h **** 
   9:../../libDaisy//src/sys/system.h **** namespace daisy
  10:../../libDaisy//src/sys/system.h **** {
  11:../../libDaisy//src/sys/system.h **** /** A handle for interacting with the Core System. 
  12:../../libDaisy//src/sys/system.h ****  ** This includes the Clock tree, MPU, global DMA initialization,
  13:../../libDaisy//src/sys/system.h ****  ** cache handling, and any other necessary global initiailzation
  14:../../libDaisy//src/sys/system.h ****  **
  15:../../libDaisy//src/sys/system.h ****  ** @author shensley
  16:../../libDaisy//src/sys/system.h ****  ** @ingroup system
  17:../../libDaisy//src/sys/system.h ****  */
  18:../../libDaisy//src/sys/system.h **** class System
  19:../../libDaisy//src/sys/system.h **** {
  20:../../libDaisy//src/sys/system.h ****   public:
  21:../../libDaisy//src/sys/system.h ****     /** Contains settings for initializing the System */
  22:../../libDaisy//src/sys/system.h ****     struct Config
  23:../../libDaisy//src/sys/system.h ****     {
  24:../../libDaisy//src/sys/system.h ****         /** Specifies the system clock frequency that feeds APB/AHB clocks, etc. */
  25:../../libDaisy//src/sys/system.h ****         enum class SysClkFreq
  26:../../libDaisy//src/sys/system.h ****         {
  27:../../libDaisy//src/sys/system.h ****             FREQ_400MHZ,
  28:../../libDaisy//src/sys/system.h ****             FREQ_480MHZ,
  29:../../libDaisy//src/sys/system.h ****         };
  30:../../libDaisy//src/sys/system.h **** 
  31:../../libDaisy//src/sys/system.h ****         /** Method to call on the struct to set to defaults
  32:../../libDaisy//src/sys/system.h ****          ** CPU Freq set to 400MHz
  33:../../libDaisy//src/sys/system.h ****          ** Cache Enabled 
  34:../../libDaisy//src/sys/system.h ****          ** */
  35:../../libDaisy//src/sys/system.h ****         void Defaults()
  36:../../libDaisy//src/sys/system.h ****         {
  37:../../libDaisy//src/sys/system.h ****             cpu_freq    = SysClkFreq::FREQ_400MHZ;
  38:../../libDaisy//src/sys/system.h ****             use_dcache  = true;
  39:../../libDaisy//src/sys/system.h ****             use_icache  = true;
  40:../../libDaisy//src/sys/system.h ****             skip_clocks = false;
  41:../../libDaisy//src/sys/system.h ****         }
  42:../../libDaisy//src/sys/system.h **** 
  43:../../libDaisy//src/sys/system.h ****         /** Method to call on the struct to set to boost mode:
  44:../../libDaisy//src/sys/system.h ****          ** CPU Freq set to 480MHz
  45:../../libDaisy//src/sys/system.h ****          ** Cache Enabled 
  46:../../libDaisy//src/sys/system.h ****          ** */
  47:../../libDaisy//src/sys/system.h ****         void Boost()
  48:../../libDaisy//src/sys/system.h ****         {
ARM GAS  C:\Users\danst\AppData\Local\Temp\ccwBJjMd.s 			page 4


  49:../../libDaisy//src/sys/system.h ****             cpu_freq    = SysClkFreq::FREQ_480MHZ;
  50:../../libDaisy//src/sys/system.h ****             use_dcache  = true;
  51:../../libDaisy//src/sys/system.h ****             use_icache  = true;
  52:../../libDaisy//src/sys/system.h ****             skip_clocks = false;
  53:../../libDaisy//src/sys/system.h ****         }
  54:../../libDaisy//src/sys/system.h **** 
  55:../../libDaisy//src/sys/system.h ****         SysClkFreq cpu_freq;
  56:../../libDaisy//src/sys/system.h ****         bool       use_dcache;
  57:../../libDaisy//src/sys/system.h ****         bool       use_icache;
  58:../../libDaisy//src/sys/system.h ****         bool       skip_clocks;
  59:../../libDaisy//src/sys/system.h ****     };
  60:../../libDaisy//src/sys/system.h **** 
  61:../../libDaisy//src/sys/system.h ****     /** Describes the different regions of memory available to the Daisy
  62:../../libDaisy//src/sys/system.h ****      * 
  63:../../libDaisy//src/sys/system.h ****      */
  64:../../libDaisy//src/sys/system.h ****     enum MemoryRegion
  65:../../libDaisy//src/sys/system.h ****     {
  66:../../libDaisy//src/sys/system.h ****         INTERNAL_FLASH = 0,
  67:../../libDaisy//src/sys/system.h ****         ITCMRAM,
  68:../../libDaisy//src/sys/system.h ****         DTCMRAM,
  69:../../libDaisy//src/sys/system.h ****         SRAM_D1,
  70:../../libDaisy//src/sys/system.h ****         SRAM_D2,
  71:../../libDaisy//src/sys/system.h ****         SRAM_D3,
  72:../../libDaisy//src/sys/system.h ****         SDRAM,
  73:../../libDaisy//src/sys/system.h ****         QSPI,
  74:../../libDaisy//src/sys/system.h ****         INVALID_ADDRESS,
  75:../../libDaisy//src/sys/system.h ****     };
  76:../../libDaisy//src/sys/system.h **** 
  77:../../libDaisy//src/sys/system.h ****     System() {}
  78:../../libDaisy//src/sys/system.h ****     ~System() {}
  63              		.loc 3 78 5 view .LVU3
  64              		.loc 3 78 5 is_stmt 0 view .LVU4
  65              	.LBE556:
  66              	.LBB557:
  67              	.LBI557:
  68              		.file 4 "../../libDaisy//src/hid/usb.h"
   1:../../libDaisy//src/hid/usb.h **** #pragma once
   2:../../libDaisy//src/hid/usb.h **** #ifndef DSY_HID_USB_H
   3:../../libDaisy//src/hid/usb.h **** #define DSY_HID_USB_H
   4:../../libDaisy//src/hid/usb.h **** #include <stdint.h>
   5:../../libDaisy//src/hid/usb.h **** #include <stdlib.h>
   6:../../libDaisy//src/hid/usb.h **** 
   7:../../libDaisy//src/hid/usb.h **** namespace daisy
   8:../../libDaisy//src/hid/usb.h **** /** @addtogroup human_interface
   9:../../libDaisy//src/hid/usb.h ****     @{
  10:../../libDaisy//src/hid/usb.h **** */
  11:../../libDaisy//src/hid/usb.h **** 
  12:../../libDaisy//src/hid/usb.h **** {
  13:../../libDaisy//src/hid/usb.h **** /** 
  14:../../libDaisy//src/hid/usb.h ****     @brief Interface for initializing and using the USB Peripherals on the daisy
  15:../../libDaisy//src/hid/usb.h ****     @author Stephen Hensley
  16:../../libDaisy//src/hid/usb.h ****     @date December 2019
  17:../../libDaisy//src/hid/usb.h **** */
  18:../../libDaisy//src/hid/usb.h **** class UsbHandle
  19:../../libDaisy//src/hid/usb.h **** {
  20:../../libDaisy//src/hid/usb.h ****   public:
  21:../../libDaisy//src/hid/usb.h ****     /** Return values for USBHandle Functions */
ARM GAS  C:\Users\danst\AppData\Local\Temp\ccwBJjMd.s 			page 5


  22:../../libDaisy//src/hid/usb.h ****     enum class Result
  23:../../libDaisy//src/hid/usb.h ****     {
  24:../../libDaisy//src/hid/usb.h ****         OK,
  25:../../libDaisy//src/hid/usb.h ****         ERR,
  26:../../libDaisy//src/hid/usb.h ****     };
  27:../../libDaisy//src/hid/usb.h **** 
  28:../../libDaisy//src/hid/usb.h ****     /** Specified which of the two USB Peripherals to initialize. */
  29:../../libDaisy//src/hid/usb.h ****     enum UsbPeriph
  30:../../libDaisy//src/hid/usb.h ****     {
  31:../../libDaisy//src/hid/usb.h ****         FS_INTERNAL, /**< Internal pin */
  32:../../libDaisy//src/hid/usb.h ****         FS_EXTERNAL, /**< FS External D+ pin is Pin 38 (GPIO32). FS External D- pin is Pin 37 (GPIO
  33:../../libDaisy//src/hid/usb.h ****         FS_BOTH,     /**< Both */
  34:../../libDaisy//src/hid/usb.h ****     };
  35:../../libDaisy//src/hid/usb.h **** 
  36:../../libDaisy//src/hid/usb.h **** 
  37:../../libDaisy//src/hid/usb.h ****     /** Function called upon reception of a buffer */
  38:../../libDaisy//src/hid/usb.h ****     typedef void (*ReceiveCallback)(uint8_t* buff, uint32_t* len);
  39:../../libDaisy//src/hid/usb.h **** 
  40:../../libDaisy//src/hid/usb.h ****     UsbHandle() {}
  41:../../libDaisy//src/hid/usb.h **** 
  42:../../libDaisy//src/hid/usb.h ****     ~UsbHandle() {}
  69              		.loc 4 42 5 is_stmt 1 view .LVU5
  70              		.loc 4 42 5 is_stmt 0 view .LVU6
  71              	.LBE557:
  72              	.LBB558:
  73              	.LBI558:
  74              		.file 5 "../../libDaisy//src/per/adc.h"
   1:../../libDaisy//src/per/adc.h **** #pragma once
   2:../../libDaisy//src/per/adc.h **** #ifndef DSY_ADC_H
   3:../../libDaisy//src/per/adc.h **** #define DSY_ADC_H /**< Macro */
   4:../../libDaisy//src/per/adc.h **** #include <stdint.h>
   5:../../libDaisy//src/per/adc.h **** #include <stdlib.h>
   6:../../libDaisy//src/per/adc.h **** #include "daisy_core.h"
   7:../../libDaisy//src/per/adc.h **** #include "per/gpio.h"
   8:../../libDaisy//src/per/adc.h **** 
   9:../../libDaisy//src/per/adc.h **** #define DSY_ADC_MAX_CHANNELS 16 /**< Maximum number of ADC channels */
  10:../../libDaisy//src/per/adc.h **** 
  11:../../libDaisy//src/per/adc.h **** namespace daisy
  12:../../libDaisy//src/per/adc.h **** {
  13:../../libDaisy//src/per/adc.h **** /** @addtogroup per_analog
  14:../../libDaisy//src/per/adc.h ****     @{
  15:../../libDaisy//src/per/adc.h **** */
  16:../../libDaisy//src/per/adc.h **** 
  17:../../libDaisy//src/per/adc.h **** /* While there may not be many configuration options here,
  18:../../libDaisy//src/per/adc.h **** using a struct like this allows us to add more configuration
  19:../../libDaisy//src/per/adc.h **** later without breaking existing functionality.
  20:../../libDaisy//src/per/adc.h **** */
  21:../../libDaisy//src/per/adc.h **** 
  22:../../libDaisy//src/per/adc.h **** /** @brief   Configuration Structure for an ADC Channel 
  23:../../libDaisy//src/per/adc.h ****  *  @details This can be used to configure a a single input, 
  24:../../libDaisy//src/per/adc.h ****  *           or a multiplexed input, allowing up to 8 inputs on 
  25:../../libDaisy//src/per/adc.h ****  *           one channel.
  26:../../libDaisy//src/per/adc.h ****  *  @note    Sharing data lines to multiple muxes _is_ possible, but
  27:../../libDaisy//src/per/adc.h ****  *           each channel sharing data lines must be set to the maximum
  28:../../libDaisy//src/per/adc.h ****  *           number of channels, even if some multiplexers have fewer
  29:../../libDaisy//src/per/adc.h ****  *           inputs connected.
  30:../../libDaisy//src/per/adc.h **** */
ARM GAS  C:\Users\danst\AppData\Local\Temp\ccwBJjMd.s 			page 6


  31:../../libDaisy//src/per/adc.h **** struct AdcChannelConfig
  32:../../libDaisy//src/per/adc.h **** {
  33:../../libDaisy//src/per/adc.h ****     /** Which pin to use for multiplexing */
  34:../../libDaisy//src/per/adc.h ****     enum MuxPin
  35:../../libDaisy//src/per/adc.h ****     {
  36:../../libDaisy//src/per/adc.h ****         MUX_SEL_0,    /**< & */
  37:../../libDaisy//src/per/adc.h ****         MUX_SEL_1,    /**< & */
  38:../../libDaisy//src/per/adc.h ****         MUX_SEL_2,    /**< & */
  39:../../libDaisy//src/per/adc.h ****         MUX_SEL_LAST, /**< & */
  40:../../libDaisy//src/per/adc.h ****     };
  41:../../libDaisy//src/per/adc.h **** 
  42:../../libDaisy//src/per/adc.h ****     /** Initializes a single ADC pin as an ADC. 
  43:../../libDaisy//src/per/adc.h ****     \param pin Pin to init.
  44:../../libDaisy//src/per/adc.h ****      */
  45:../../libDaisy//src/per/adc.h ****     void InitSingle(dsy_gpio_pin pin);
  46:../../libDaisy//src/per/adc.h **** 
  47:../../libDaisy//src/per/adc.h ****     /** 
  48:../../libDaisy//src/per/adc.h ****     Initializes a single ADC pin as a Multiplexed ADC.
  49:../../libDaisy//src/per/adc.h ****     Requires a CD405X Multiplexer connected to the pin.
  50:../../libDaisy//src/per/adc.h ****     You only need to supply the mux pins that are required,
  51:../../libDaisy//src/per/adc.h ****     e.g. a 4052 mux would only require mux_0 and mux_1.
  52:../../libDaisy//src/per/adc.h ****     Internal Callbacks handle the pin addressing.
  53:../../libDaisy//src/per/adc.h ****     \param mux_channels must be 1-8
  54:../../libDaisy//src/per/adc.h ****     \param mux_0 First mux pin
  55:../../libDaisy//src/per/adc.h ****     \param mux_1 Second mux pin
  56:../../libDaisy//src/per/adc.h ****     \param mux_2 Third mux pin
  57:../../libDaisy//src/per/adc.h ****     \param adc_pin &
  58:../../libDaisy//src/per/adc.h ****     */
  59:../../libDaisy//src/per/adc.h ****     void InitMux(dsy_gpio_pin adc_pin,
  60:../../libDaisy//src/per/adc.h ****                  size_t       mux_channels,
  61:../../libDaisy//src/per/adc.h ****                  dsy_gpio_pin mux_0,
  62:../../libDaisy//src/per/adc.h ****                  dsy_gpio_pin mux_1 = {DSY_GPIOX, 0},
  63:../../libDaisy//src/per/adc.h ****                  dsy_gpio_pin mux_2 = {DSY_GPIOX, 0});
  64:../../libDaisy//src/per/adc.h **** 
  65:../../libDaisy//src/per/adc.h ****     dsy_gpio pin_;                   /**< & */
  66:../../libDaisy//src/per/adc.h ****     dsy_gpio mux_pin_[MUX_SEL_LAST]; /**< & */
  67:../../libDaisy//src/per/adc.h ****     uint8_t  mux_channels_;          /**< & */
  68:../../libDaisy//src/per/adc.h **** };
  69:../../libDaisy//src/per/adc.h **** 
  70:../../libDaisy//src/per/adc.h **** /**
  71:../../libDaisy//src/per/adc.h ****    @brief Handler for analog to digital conversion
  72:../../libDaisy//src/per/adc.h **** */
  73:../../libDaisy//src/per/adc.h **** class AdcHandle
  74:../../libDaisy//src/per/adc.h **** {
  75:../../libDaisy//src/per/adc.h ****   public:
  76:../../libDaisy//src/per/adc.h ****     /** Supported oversampling amounts */
  77:../../libDaisy//src/per/adc.h ****     enum OverSampling
  78:../../libDaisy//src/per/adc.h ****     {
  79:../../libDaisy//src/per/adc.h ****         OVS_NONE, /**< & */
  80:../../libDaisy//src/per/adc.h ****         OVS_4,    /**< & */
  81:../../libDaisy//src/per/adc.h ****         OVS_8,    /**< & */
  82:../../libDaisy//src/per/adc.h ****         OVS_16,   /**< & */
  83:../../libDaisy//src/per/adc.h ****         OVS_32,   /**< & */
  84:../../libDaisy//src/per/adc.h ****         OVS_64,   /**< & */
  85:../../libDaisy//src/per/adc.h ****         OVS_128,  /**< & */
  86:../../libDaisy//src/per/adc.h ****         OVS_256,  /**< & */
  87:../../libDaisy//src/per/adc.h ****         OVS_512,  /**< & */
ARM GAS  C:\Users\danst\AppData\Local\Temp\ccwBJjMd.s 			page 7


  88:../../libDaisy//src/per/adc.h ****         OVS_1024, /**< & */
  89:../../libDaisy//src/per/adc.h ****         OVS_LAST, /**< & */
  90:../../libDaisy//src/per/adc.h ****     };
  91:../../libDaisy//src/per/adc.h **** 
  92:../../libDaisy//src/per/adc.h ****     AdcHandle() {}
  93:../../libDaisy//src/per/adc.h ****     ~AdcHandle() {}
  75              		.loc 5 93 5 is_stmt 1 view .LVU7
  76              		.loc 5 93 5 is_stmt 0 view .LVU8
  77              	.LBE558:
  78              	.LBB559:
  79              	.LBI559:
  80              		.file 6 "../../libDaisy//src/hid/audio.h"
   1:../../libDaisy//src/hid/audio.h **** #ifndef DSY_AUDIO_H
   2:../../libDaisy//src/hid/audio.h **** #define DSY_AUDIO_H /**< & */
   3:../../libDaisy//src/hid/audio.h **** 
   4:../../libDaisy//src/hid/audio.h **** #include "per/sai.h"
   5:../../libDaisy//src/hid/audio.h **** 
   6:../../libDaisy//src/hid/audio.h **** namespace daisy
   7:../../libDaisy//src/hid/audio.h **** {
   8:../../libDaisy//src/hid/audio.h **** /** @brief Audio Engine Handle
   9:../../libDaisy//src/hid/audio.h ****  *  @ingroup audio 
  10:../../libDaisy//src/hid/audio.h ****  *  @details This class allows for higher level access to an audio engine.
  11:../../libDaisy//src/hid/audio.h ****  *           If you're using a SOM like the DaisySeed or DaisyPatchSM (or any 
  12:../../libDaisy//src/hid/audio.h ****  *            board that includes one of those objects) then the intialization
  13:../../libDaisy//src/hid/audio.h ****  *            is already taken  care of.
  14:../../libDaisy//src/hid/audio.h ****  *           If you're setting up your own custom hardware, or need to make changes
  15:../../libDaisy//src/hid/audio.h ****  *           you will have to take the following steps:
  16:../../libDaisy//src/hid/audio.h ****  *             1. Create and Initialize an SaiHandle or two depending on your requirements
  17:../../libDaisy//src/hid/audio.h ****  *             2. Initialize the Audio Handle with the desired settings and the Initialized SaiHand
  18:../../libDaisy//src/hid/audio.h ****  *             3. If the connected codec requires special configuration or initialization, do so
  19:../../libDaisy//src/hid/audio.h ****  *             4. Write a callback method using either the AudioCallback or the InterleavingAudioCa
  20:../../libDaisy//src/hid/audio.h ****  *             5. Start the Audio using one of the StartAudio function
  21:../../libDaisy//src/hid/audio.h ****  */
  22:../../libDaisy//src/hid/audio.h **** class AudioHandle
  23:../../libDaisy//src/hid/audio.h **** {
  24:../../libDaisy//src/hid/audio.h ****   public:
  25:../../libDaisy//src/hid/audio.h ****     /** Manually configurable details about the Audio Engine */
  26:../../libDaisy//src/hid/audio.h ****     /** TODO: Figure out how to get samplerate in here. */
  27:../../libDaisy//src/hid/audio.h ****     struct Config
  28:../../libDaisy//src/hid/audio.h ****     {
  29:../../libDaisy//src/hid/audio.h ****         /** number of samples to process per callback */
  30:../../libDaisy//src/hid/audio.h ****         size_t blocksize;
  31:../../libDaisy//src/hid/audio.h **** 
  32:../../libDaisy//src/hid/audio.h ****         /**< Sample rate of audio */
  33:../../libDaisy//src/hid/audio.h ****         SaiHandle::Config::SampleRate samplerate;
  34:../../libDaisy//src/hid/audio.h **** 
  35:../../libDaisy//src/hid/audio.h ****         /** factor for adjustment before and after callback for hardware that may have extra headro
  36:../../libDaisy//src/hid/audio.h ****         float postgain;
  37:../../libDaisy//src/hid/audio.h **** 
  38:../../libDaisy//src/hid/audio.h ****         /** factor for additional one-sided compensation to audio path for hardware that may
  39:../../libDaisy//src/hid/audio.h ****          *  have unequal input/output ranges
  40:../../libDaisy//src/hid/audio.h ****          */
  41:../../libDaisy//src/hid/audio.h ****         float output_compensation;
  42:../../libDaisy//src/hid/audio.h **** 
  43:../../libDaisy//src/hid/audio.h ****         /** Sets default values for config struct */
  44:../../libDaisy//src/hid/audio.h ****         Config()
  45:../../libDaisy//src/hid/audio.h ****         : blocksize(48),
ARM GAS  C:\Users\danst\AppData\Local\Temp\ccwBJjMd.s 			page 8


  46:../../libDaisy//src/hid/audio.h ****           samplerate(SaiHandle::Config::SampleRate::SAI_48KHZ),
  47:../../libDaisy//src/hid/audio.h ****           postgain(1.f),
  48:../../libDaisy//src/hid/audio.h ****           output_compensation(1.f)
  49:../../libDaisy//src/hid/audio.h ****         {
  50:../../libDaisy//src/hid/audio.h ****         }
  51:../../libDaisy//src/hid/audio.h ****     };
  52:../../libDaisy//src/hid/audio.h **** 
  53:../../libDaisy//src/hid/audio.h ****     enum class Result
  54:../../libDaisy//src/hid/audio.h ****     {
  55:../../libDaisy//src/hid/audio.h ****         OK,
  56:../../libDaisy//src/hid/audio.h ****         ERR,
  57:../../libDaisy//src/hid/audio.h ****     };
  58:../../libDaisy//src/hid/audio.h **** 
  59:../../libDaisy//src/hid/audio.h ****     /** Non-Interleaving input buffer
  60:../../libDaisy//src/hid/audio.h ****      * Buffer arranged by float[chn][sample] 
  61:../../libDaisy//src/hid/audio.h ****      * const so that the user can't modify the input
  62:../../libDaisy//src/hid/audio.h ****      */
  63:../../libDaisy//src/hid/audio.h ****     typedef const float* const* InputBuffer;
  64:../../libDaisy//src/hid/audio.h **** 
  65:../../libDaisy//src/hid/audio.h ****     /** Non-Interleaving output buffer
  66:../../libDaisy//src/hid/audio.h ****      * Arranged by float[chn][sample] 
  67:../../libDaisy//src/hid/audio.h ****      */
  68:../../libDaisy//src/hid/audio.h ****     typedef float** OutputBuffer;
  69:../../libDaisy//src/hid/audio.h **** 
  70:../../libDaisy//src/hid/audio.h ****     /** Type for a Non-Interleaving audio callback 
  71:../../libDaisy//src/hid/audio.h ****      * Non-Interleaving audio callbacks in daisy will be of this type
  72:../../libDaisy//src/hid/audio.h ****      */
  73:../../libDaisy//src/hid/audio.h ****     typedef void (*AudioCallback)(InputBuffer  in,
  74:../../libDaisy//src/hid/audio.h ****                                   OutputBuffer out,
  75:../../libDaisy//src/hid/audio.h ****                                   size_t       size);
  76:../../libDaisy//src/hid/audio.h **** 
  77:../../libDaisy//src/hid/audio.h ****     /** Interleaving Input buffer
  78:../../libDaisy//src/hid/audio.h ****      ** audio is prepared as { L0, R0, L1, R1, . . . LN, RN }]
  79:../../libDaisy//src/hid/audio.h ****      ** this is const, as the user shouldn't modify it
  80:../../libDaisy//src/hid/audio.h ****     */
  81:../../libDaisy//src/hid/audio.h ****     typedef const float* InterleavingInputBuffer;
  82:../../libDaisy//src/hid/audio.h **** 
  83:../../libDaisy//src/hid/audio.h ****     /** Interleaving Output buffer 
  84:../../libDaisy//src/hid/audio.h ****      ** audio is prepared as { L0, R0, L1, R1, . . . LN, RN }
  85:../../libDaisy//src/hid/audio.h ****     */
  86:../../libDaisy//src/hid/audio.h ****     typedef float* InterleavingOutputBuffer;
  87:../../libDaisy//src/hid/audio.h **** 
  88:../../libDaisy//src/hid/audio.h ****     /** Interleaving Audio Callback 
  89:../../libDaisy//src/hid/audio.h ****      * Interleaving audio callbacks in daisy must be of this type
  90:../../libDaisy//src/hid/audio.h ****      */
  91:../../libDaisy//src/hid/audio.h ****     typedef void (*InterleavingAudioCallback)(InterleavingInputBuffer  in,
  92:../../libDaisy//src/hid/audio.h ****                                               InterleavingOutputBuffer out,
  93:../../libDaisy//src/hid/audio.h ****                                               size_t                   size);
  94:../../libDaisy//src/hid/audio.h **** 
  95:../../libDaisy//src/hid/audio.h ****     AudioHandle() : pimpl_(nullptr) {}
  96:../../libDaisy//src/hid/audio.h ****     ~AudioHandle() {}
  81              		.loc 6 96 5 is_stmt 1 view .LVU9
  82              		.loc 6 96 5 is_stmt 0 view .LVU10
  83              	.LBE559:
  84              		.loc 2 22 19 view .LVU11
  85 0000 7047     		bx	lr
  86              		.cfi_endproc
ARM GAS  C:\Users\danst\AppData\Local\Temp\ccwBJjMd.s 			page 9


  87              	.LFE2528:
  89              		.weak	_ZN5daisy9DaisySeedD1Ev
  90              		.thumb_set _ZN5daisy9DaisySeedD1Ev,_ZN5daisy9DaisySeedD2Ev
  91 0002 00BF     		.section	.text._ZN7daisysp4AdsrD2Ev,"axG",%progbits,_ZN7daisysp4AdsrD5Ev,comdat
  92              		.align	1
  93              		.p2align 2,,3
  94              		.weak	_ZN7daisysp4AdsrD2Ev
  95              		.syntax unified
  96              		.thumb
  97              		.thumb_func
  98              		.fpu fpv5-d16
 100              	_ZN7daisysp4AdsrD2Ev:
 101              	.LVL2:
 102              	.LFB2551:
 103              		.file 7 "../../DaisySP//Source/Control/adsr.h"
   1:../../DaisySP//Source/Control/adsr.h **** #pragma once
   2:../../DaisySP//Source/Control/adsr.h **** #ifndef DSY_ADSR_H
   3:../../DaisySP//Source/Control/adsr.h **** #define DSY_ADSR_H
   4:../../DaisySP//Source/Control/adsr.h **** 
   5:../../DaisySP//Source/Control/adsr.h **** #include <stdint.h>
   6:../../DaisySP//Source/Control/adsr.h **** #ifdef __cplusplus
   7:../../DaisySP//Source/Control/adsr.h **** 
   8:../../DaisySP//Source/Control/adsr.h **** namespace daisysp
   9:../../DaisySP//Source/Control/adsr.h **** {
  10:../../DaisySP//Source/Control/adsr.h **** /** Distinct stages that the phase of the envelope can be located in.
  11:../../DaisySP//Source/Control/adsr.h **** - IDLE   = located at phase location 0, and not currently running
  12:../../DaisySP//Source/Control/adsr.h **** - ATTACK  = First segment of envelope where phase moves from 0 to 1
  13:../../DaisySP//Source/Control/adsr.h **** - DECAY   = Second segment of envelope where phase moves from 1 to SUSTAIN value
  14:../../DaisySP//Source/Control/adsr.h **** - RELEASE =     Fourth segment of envelop where phase moves from SUSTAIN to 0
  15:../../DaisySP//Source/Control/adsr.h **** */
  16:../../DaisySP//Source/Control/adsr.h **** enum
  17:../../DaisySP//Source/Control/adsr.h **** {
  18:../../DaisySP//Source/Control/adsr.h ****     ADSR_SEG_IDLE    = 0,
  19:../../DaisySP//Source/Control/adsr.h ****     ADSR_SEG_ATTACK  = 1,
  20:../../DaisySP//Source/Control/adsr.h ****     ADSR_SEG_DECAY   = 2,
  21:../../DaisySP//Source/Control/adsr.h ****     ADSR_SEG_RELEASE = 4
  22:../../DaisySP//Source/Control/adsr.h **** };
  23:../../DaisySP//Source/Control/adsr.h **** 
  24:../../DaisySP//Source/Control/adsr.h **** 
  25:../../DaisySP//Source/Control/adsr.h **** /** adsr envelope module
  26:../../DaisySP//Source/Control/adsr.h **** 
  27:../../DaisySP//Source/Control/adsr.h **** Original author(s) : Paul Batchelor
  28:../../DaisySP//Source/Control/adsr.h **** 
  29:../../DaisySP//Source/Control/adsr.h **** Ported from Soundpipe by Ben Sergentanis, May 2020
  30:../../DaisySP//Source/Control/adsr.h ****  
  31:../../DaisySP//Source/Control/adsr.h **** Remake by Steffan DIedrichsen, May 2021
  32:../../DaisySP//Source/Control/adsr.h **** */
  33:../../DaisySP//Source/Control/adsr.h **** class Adsr
  34:../../DaisySP//Source/Control/adsr.h **** {
  35:../../DaisySP//Source/Control/adsr.h ****   public:
  36:../../DaisySP//Source/Control/adsr.h ****     Adsr() {}
  37:../../DaisySP//Source/Control/adsr.h ****     ~Adsr() {}
 104              		.loc 7 37 5 is_stmt 1 view -0
 105              		.cfi_startproc
 106              		@ args = 0, pretend = 0, frame = 0
 107              		@ frame_needed = 0, uses_anonymous_args = 0
 108              		@ link register save eliminated.
ARM GAS  C:\Users\danst\AppData\Local\Temp\ccwBJjMd.s 			page 10


 109              		.loc 7 37 14 is_stmt 0 view .LVU13
 110 0000 7047     		bx	lr
 111              		.cfi_endproc
 112              	.LFE2551:
 114              		.weak	_ZN7daisysp4AdsrD1Ev
 115              		.thumb_set _ZN7daisysp4AdsrD1Ev,_ZN7daisysp4AdsrD2Ev
 116              		.section	.text._ZN7daisysp10OscillatorD2Ev,"axG",%progbits,_ZN7daisysp10OscillatorD5Ev,comdat
 117              		.align	1
 118              		.p2align 2,,3
 119              		.weak	_ZN7daisysp10OscillatorD2Ev
 120              		.syntax unified
 121              		.thumb
 122              		.thumb_func
 123              		.fpu fpv5-d16
 125              	_ZN7daisysp10OscillatorD2Ev:
 126              	.LVL3:
 127              	.LFB4218:
 128              		.file 8 "../../DaisySP//Source/Synthesis/oscillator.h"
   1:../../DaisySP//Source/Synthesis/oscillator.h **** #pragma once
   2:../../DaisySP//Source/Synthesis/oscillator.h **** #ifndef DSY_OSCILLATOR_H
   3:../../DaisySP//Source/Synthesis/oscillator.h **** #define DSY_OSCILLATOR_H
   4:../../DaisySP//Source/Synthesis/oscillator.h **** #include <stdint.h>
   5:../../DaisySP//Source/Synthesis/oscillator.h **** #include "Utility/dsp.h"
   6:../../DaisySP//Source/Synthesis/oscillator.h **** #ifdef __cplusplus
   7:../../DaisySP//Source/Synthesis/oscillator.h **** 
   8:../../DaisySP//Source/Synthesis/oscillator.h **** namespace daisysp
   9:../../DaisySP//Source/Synthesis/oscillator.h **** {
  10:../../DaisySP//Source/Synthesis/oscillator.h **** /** Synthesis of several waveforms, including polyBLEP bandlimited waveforms.
  11:../../DaisySP//Source/Synthesis/oscillator.h **** */
  12:../../DaisySP//Source/Synthesis/oscillator.h **** class Oscillator
  13:../../DaisySP//Source/Synthesis/oscillator.h **** {
  14:../../DaisySP//Source/Synthesis/oscillator.h ****   public:
  15:../../DaisySP//Source/Synthesis/oscillator.h ****     Oscillator() {}
  16:../../DaisySP//Source/Synthesis/oscillator.h ****     ~Oscillator() {}
 129              		.loc 8 16 5 is_stmt 1 view -0
 130              		.cfi_startproc
 131              		@ args = 0, pretend = 0, frame = 0
 132              		@ frame_needed = 0, uses_anonymous_args = 0
 133              		@ link register save eliminated.
 134              		.loc 8 16 20 is_stmt 0 view .LVU15
 135 0000 7047     		bx	lr
 136              		.cfi_endproc
 137              	.LFE4218:
 139              		.weak	_ZN7daisysp10OscillatorD1Ev
 140              		.thumb_set _ZN7daisysp10OscillatorD1Ev,_ZN7daisysp10OscillatorD2Ev
 141              		.section	.text._ZN7daisysp3SvfD2Ev,"axG",%progbits,_ZN7daisysp3SvfD5Ev,comdat
 142              		.align	1
 143              		.p2align 2,,3
 144              		.weak	_ZN7daisysp3SvfD2Ev
 145              		.syntax unified
 146              		.thumb
 147              		.thumb_func
 148              		.fpu fpv5-d16
 150              	_ZN7daisysp3SvfD2Ev:
 151              	.LVL4:
 152              	.LFB4234:
 153              		.file 9 "../../DaisySP//Source/Filters/svf.h"
ARM GAS  C:\Users\danst\AppData\Local\Temp\ccwBJjMd.s 			page 11


   1:../../DaisySP//Source/Filters/svf.h **** #pragma once
   2:../../DaisySP//Source/Filters/svf.h **** #ifndef DSY_SVF_H
   3:../../DaisySP//Source/Filters/svf.h **** #define DSY_SVF_H
   4:../../DaisySP//Source/Filters/svf.h **** 
   5:../../DaisySP//Source/Filters/svf.h **** namespace daisysp
   6:../../DaisySP//Source/Filters/svf.h **** {
   7:../../DaisySP//Source/Filters/svf.h **** /**      Double Sampled, Stable State Variable Filter
   8:../../DaisySP//Source/Filters/svf.h **** 
   9:../../DaisySP//Source/Filters/svf.h **** Credit to Andrew Simper from musicdsp.org
  10:../../DaisySP//Source/Filters/svf.h **** 
  11:../../DaisySP//Source/Filters/svf.h **** This is his "State Variable Filter (Double Sampled, Stable)"
  12:../../DaisySP//Source/Filters/svf.h **** 
  13:../../DaisySP//Source/Filters/svf.h **** Additional thanks to Laurent de Soras for stability limit, and 
  14:../../DaisySP//Source/Filters/svf.h **** Stefan Diedrichsen for the correct notch output
  15:../../DaisySP//Source/Filters/svf.h **** 
  16:../../DaisySP//Source/Filters/svf.h **** Ported by: Stephen Hensley
  17:../../DaisySP//Source/Filters/svf.h **** */
  18:../../DaisySP//Source/Filters/svf.h **** class Svf
  19:../../DaisySP//Source/Filters/svf.h **** {
  20:../../DaisySP//Source/Filters/svf.h ****   public:
  21:../../DaisySP//Source/Filters/svf.h ****     Svf() {}
  22:../../DaisySP//Source/Filters/svf.h ****     ~Svf() {}
 154              		.loc 9 22 5 is_stmt 1 view -0
 155              		.cfi_startproc
 156              		@ args = 0, pretend = 0, frame = 0
 157              		@ frame_needed = 0, uses_anonymous_args = 0
 158              		@ link register save eliminated.
 159              		.loc 9 22 13 is_stmt 0 view .LVU17
 160 0000 7047     		bx	lr
 161              		.cfi_endproc
 162              	.LFE4234:
 164              		.weak	_ZN7daisysp3SvfD1Ev
 165              		.thumb_set _ZN7daisysp3SvfD1Ev,_ZN7daisysp3SvfD2Ev
 166              		.section	.text._ZN7daisysp9OverdriveD2Ev,"axG",%progbits,_ZN7daisysp9OverdriveD5Ev,comdat
 167              		.align	1
 168              		.p2align 2,,3
 169              		.weak	_ZN7daisysp9OverdriveD2Ev
 170              		.syntax unified
 171              		.thumb
 172              		.thumb_func
 173              		.fpu fpv5-d16
 175              	_ZN7daisysp9OverdriveD2Ev:
 176              	.LVL5:
 177              	.LFB4415:
 178              		.file 10 "../../DaisySP//Source/Effects/overdrive.h"
   1:../../DaisySP//Source/Effects/overdrive.h **** #pragma once
   2:../../DaisySP//Source/Effects/overdrive.h **** #ifndef DSY_OVERDRIVE_H
   3:../../DaisySP//Source/Effects/overdrive.h **** #define DSY_OVERDRIVE_H
   4:../../DaisySP//Source/Effects/overdrive.h **** 
   5:../../DaisySP//Source/Effects/overdrive.h **** #include <stdint.h>
   6:../../DaisySP//Source/Effects/overdrive.h **** #ifdef __cplusplus
   7:../../DaisySP//Source/Effects/overdrive.h **** 
   8:../../DaisySP//Source/Effects/overdrive.h **** /** @file overdrive.h */
   9:../../DaisySP//Source/Effects/overdrive.h **** 
  10:../../DaisySP//Source/Effects/overdrive.h **** namespace daisysp
  11:../../DaisySP//Source/Effects/overdrive.h **** {
  12:../../DaisySP//Source/Effects/overdrive.h **** /**  
ARM GAS  C:\Users\danst\AppData\Local\Temp\ccwBJjMd.s 			page 12


  13:../../DaisySP//Source/Effects/overdrive.h ****        @brief Distortion / Overdrive Module
  14:../../DaisySP//Source/Effects/overdrive.h ****        @author Ported by Ben Sergentanis 
  15:../../DaisySP//Source/Effects/overdrive.h ****        @date Jan 2021 
  16:../../DaisySP//Source/Effects/overdrive.h ****        Ported from pichenettes/eurorack/plaits/dsp/fx/overdrive.h \n
  17:../../DaisySP//Source/Effects/overdrive.h ****        to an independent module. \n
  18:../../DaisySP//Source/Effects/overdrive.h ****        Original code written by Emilie Gillet in 2014. \n
  19:../../DaisySP//Source/Effects/overdrive.h **** */
  20:../../DaisySP//Source/Effects/overdrive.h **** class Overdrive
  21:../../DaisySP//Source/Effects/overdrive.h **** {
  22:../../DaisySP//Source/Effects/overdrive.h ****   public:
  23:../../DaisySP//Source/Effects/overdrive.h ****     Overdrive() {}
  24:../../DaisySP//Source/Effects/overdrive.h ****     ~Overdrive() {}
 179              		.loc 10 24 5 is_stmt 1 view -0
 180              		.cfi_startproc
 181              		@ args = 0, pretend = 0, frame = 0
 182              		@ frame_needed = 0, uses_anonymous_args = 0
 183              		@ link register save eliminated.
 184              		.loc 10 24 19 is_stmt 0 view .LVU19
 185 0000 7047     		bx	lr
 186              		.cfi_endproc
 187              	.LFE4415:
 189              		.weak	_ZN7daisysp9OverdriveD1Ev
 190              		.thumb_set _ZN7daisysp9OverdriveD1Ev,_ZN7daisysp9OverdriveD2Ev
 191              		.section	.text._ZN7daisysp4CombD2Ev,"axG",%progbits,_ZN7daisysp4CombD5Ev,comdat
 192              		.align	1
 193              		.p2align 2,,3
 194              		.weak	_ZN7daisysp4CombD2Ev
 195              		.syntax unified
 196              		.thumb
 197              		.thumb_func
 198              		.fpu fpv5-d16
 200              	_ZN7daisysp4CombD2Ev:
 201              	.LVL6:
 202              	.LFB4490:
 203              		.file 11 "../../DaisySP//Source/Filters/comb.h"
   1:../../DaisySP//Source/Filters/comb.h **** #pragma once
   2:../../DaisySP//Source/Filters/comb.h **** #ifndef DSY_COMB_H
   3:../../DaisySP//Source/Filters/comb.h **** #define DSY_COMB_H
   4:../../DaisySP//Source/Filters/comb.h **** #ifdef __cplusplus
   5:../../DaisySP//Source/Filters/comb.h **** 
   6:../../DaisySP//Source/Filters/comb.h **** #include "Utility/dsp.h"
   7:../../DaisySP//Source/Filters/comb.h **** 
   8:../../DaisySP//Source/Filters/comb.h **** namespace daisysp
   9:../../DaisySP//Source/Filters/comb.h **** {
  10:../../DaisySP//Source/Filters/comb.h **** /** Comb filter module
  11:../../DaisySP//Source/Filters/comb.h **** 
  12:../../DaisySP//Source/Filters/comb.h ****     Original author(s) :
  13:../../DaisySP//Source/Filters/comb.h **** 
  14:../../DaisySP//Source/Filters/comb.h ****     Ported from soundpipe by Ben Sergentanis, May 2020
  15:../../DaisySP//Source/Filters/comb.h **** */
  16:../../DaisySP//Source/Filters/comb.h **** class Comb
  17:../../DaisySP//Source/Filters/comb.h **** {
  18:../../DaisySP//Source/Filters/comb.h ****   public:
  19:../../DaisySP//Source/Filters/comb.h ****     Comb() {}
  20:../../DaisySP//Source/Filters/comb.h ****     ~Comb() {}
 204              		.loc 11 20 5 is_stmt 1 view -0
 205              		.cfi_startproc
ARM GAS  C:\Users\danst\AppData\Local\Temp\ccwBJjMd.s 			page 13


 206              		@ args = 0, pretend = 0, frame = 0
 207              		@ frame_needed = 0, uses_anonymous_args = 0
 208              		@ link register save eliminated.
 209              		.loc 11 20 14 is_stmt 0 view .LVU21
 210 0000 7047     		bx	lr
 211              		.cfi_endproc
 212              	.LFE4490:
 214              		.weak	_ZN7daisysp4CombD1Ev
 215              		.thumb_set _ZN7daisysp4CombD1Ev,_ZN7daisysp4CombD2Ev
 216              		.section	.text._ZN7daisysp11SuperSawOscD2Ev,"axG",%progbits,_ZN7daisysp11SuperSawOscD5Ev,comdat
 217              		.align	1
 218              		.p2align 2,,3
 219              		.weak	_ZN7daisysp11SuperSawOscD2Ev
 220              		.syntax unified
 221              		.thumb
 222              		.thumb_func
 223              		.fpu fpv5-d16
 225              	_ZN7daisysp11SuperSawOscD2Ev:
 226              	.LVL7:
 227              	.LFB4783:
 228              		.file 12 "SuperSawOsc.h"
   1:SuperSawOsc.h **** #pragma once
   2:SuperSawOsc.h **** #ifndef DSY_SN_SUPERSAW_H
   3:SuperSawOsc.h **** #include "daisy_seed.h"
   4:SuperSawOsc.h **** #include "daisysp.h"
   5:SuperSawOsc.h **** #ifdef __cplusplus
   6:SuperSawOsc.h **** /* 
   7:SuperSawOsc.h **** IMPLEMENTED USING DETAILS FROM:
   8:SuperSawOsc.h **** https://forum.orthogonaldevices.com/uploads/short-url/rLjREzRcZvvK2527rFnTGvuwY1b.pdf
   9:SuperSawOsc.h **** */
  10:SuperSawOsc.h **** namespace daisysp {
  11:SuperSawOsc.h ****     #define DSY_SN_SUPERSAW_H
  12:SuperSawOsc.h ****     #define NUMBER_OF_SAWS 7
  13:SuperSawOsc.h ****     #define CURVE_POINTS 17
  14:SuperSawOsc.h ****     #define DRIFT_LOOKUP_TABLE { 0.0, 0.00967268, 0.0220363, 0.0339636, 0.0467636, 0.0591273, 0.071
  15:SuperSawOsc.h ****     #define SHIFT_LOOKUP_TABLE { 0.03836, 0.12, 0.19, 0.25, 0.31, 0.37, 0.42, 0.46, 0.5, 0.53, 0.56
  16:SuperSawOsc.h ****     #define DETUNE_AMOUNTS { -0.11002314, -0.0628844, -0.01952357, 0.0, 0.01991221, 0.06216538, 0.1
  17:SuperSawOsc.h ****     #define AMP_AMOUNTS { 0.4, 0.4, 0.4, 0.4, 0.5, 0.5, 0.45 }
  18:SuperSawOsc.h ****     class SuperSawOsc {
  19:SuperSawOsc.h ****         public:
  20:SuperSawOsc.h ****             SuperSawOsc(){}
  21:SuperSawOsc.h ****             ~SuperSawOsc(){}
 229              		.loc 12 21 13 is_stmt 1 view -0
 230              		.cfi_startproc
 231              		@ args = 0, pretend = 0, frame = 0
 232              		@ frame_needed = 0, uses_anonymous_args = 0
 233              		@ link register save eliminated.
 234              	.LBB560:
 235              	.LBI560:
 236              		.file 13 "../../DaisySP//Source/Filters/atone.h"
   1:../../DaisySP//Source/Filters/atone.h **** #pragma once
   2:../../DaisySP//Source/Filters/atone.h **** #ifndef DSY_ATONE_H
   3:../../DaisySP//Source/Filters/atone.h **** #define DSY_ATONE_H
   4:../../DaisySP//Source/Filters/atone.h **** 
   5:../../DaisySP//Source/Filters/atone.h **** #include <stdint.h>
   6:../../DaisySP//Source/Filters/atone.h **** #ifdef __cplusplus
   7:../../DaisySP//Source/Filters/atone.h **** 
ARM GAS  C:\Users\danst\AppData\Local\Temp\ccwBJjMd.s 			page 14


   8:../../DaisySP//Source/Filters/atone.h **** namespace daisysp
   9:../../DaisySP//Source/Filters/atone.h **** {
  10:../../DaisySP//Source/Filters/atone.h **** /** A first-order recursive high-pass filter with variable frequency response.
  11:../../DaisySP//Source/Filters/atone.h ****      Original Author(s): Barry Vercoe, John FFitch, Gabriel Maldonado
  12:../../DaisySP//Source/Filters/atone.h **** 
  13:../../DaisySP//Source/Filters/atone.h ****      Year: 1991
  14:../../DaisySP//Source/Filters/atone.h **** 
  15:../../DaisySP//Source/Filters/atone.h ****      Original Location: Csound -- OOps/ugens5.c
  16:../../DaisySP//Source/Filters/atone.h **** 
  17:../../DaisySP//Source/Filters/atone.h ****      Ported from soundpipe by Ben Sergentanis, May 2020
  18:../../DaisySP//Source/Filters/atone.h ****     */
  19:../../DaisySP//Source/Filters/atone.h **** class ATone
  20:../../DaisySP//Source/Filters/atone.h **** {
  21:../../DaisySP//Source/Filters/atone.h ****   public:
  22:../../DaisySP//Source/Filters/atone.h ****     ATone() {}
  23:../../DaisySP//Source/Filters/atone.h ****     ~ATone() {}
 237              		.loc 13 23 5 view .LVU23
 238              		.loc 13 23 5 is_stmt 0 view .LVU24
 239              	.LBE560:
 240              		.loc 12 21 28 view .LVU25
 241 0000 7047     		bx	lr
 242              		.cfi_endproc
 243              	.LFE4783:
 245              		.weak	_ZN7daisysp11SuperSawOscD1Ev
 246              		.thumb_set _ZN7daisysp11SuperSawOscD1Ev,_ZN7daisysp11SuperSawOscD2Ev
 247 0002 00BF     		.section	.text._ZN5daisy11MidiHandlerINS_16MidiUsbTransportEED2Ev,"axG",%progbits,_ZN5daisy11MidiH
 248              		.align	1
 249              		.p2align 2,,3
 250              		.weak	_ZN5daisy11MidiHandlerINS_16MidiUsbTransportEED2Ev
 251              		.syntax unified
 252              		.thumb
 253              		.thumb_func
 254              		.fpu fpv5-d16
 256              	_ZN5daisy11MidiHandlerINS_16MidiUsbTransportEED2Ev:
 257              	.LVL8:
 258              	.LFB5384:
 259              		.file 14 "../../libDaisy//src/hid/midi.h"
   1:../../libDaisy//src/hid/midi.h **** #pragma once
   2:../../libDaisy//src/hid/midi.h **** #ifndef DSY_MIDI_H
   3:../../libDaisy//src/hid/midi.h **** #define DSY_MIDI_H
   4:../../libDaisy//src/hid/midi.h **** 
   5:../../libDaisy//src/hid/midi.h **** // TODO: make this adjustable
   6:../../libDaisy//src/hid/midi.h **** #define SYSEX_BUFFER_LEN 128
   7:../../libDaisy//src/hid/midi.h **** 
   8:../../libDaisy//src/hid/midi.h **** #include <stdint.h>
   9:../../libDaisy//src/hid/midi.h **** #include <stdlib.h>
  10:../../libDaisy//src/hid/midi.h **** #include "per/uart.h"
  11:../../libDaisy//src/hid/midi.h **** #include "util/ringbuffer.h"
  12:../../libDaisy//src/hid/midi.h **** #include "hid/MidiEvent.h"
  13:../../libDaisy//src/hid/midi.h **** #include "hid/usb_midi.h"
  14:../../libDaisy//src/hid/midi.h **** #include "sys/system.h"
  15:../../libDaisy//src/hid/midi.h **** 
  16:../../libDaisy//src/hid/midi.h **** namespace daisy
  17:../../libDaisy//src/hid/midi.h **** {
  18:../../libDaisy//src/hid/midi.h **** /** @brief   Transport layer for sending and receiving MIDI data over UART 
  19:../../libDaisy//src/hid/midi.h ****  *  @details This is the mode of communication used for TRS and DIN MIDI
  20:../../libDaisy//src/hid/midi.h ****  *  @ingroup midi
ARM GAS  C:\Users\danst\AppData\Local\Temp\ccwBJjMd.s 			page 15


  21:../../libDaisy//src/hid/midi.h **** */
  22:../../libDaisy//src/hid/midi.h **** class MidiUartTransport
  23:../../libDaisy//src/hid/midi.h **** {
  24:../../libDaisy//src/hid/midi.h ****   public:
  25:../../libDaisy//src/hid/midi.h ****     MidiUartTransport() {}
  26:../../libDaisy//src/hid/midi.h ****     ~MidiUartTransport() {}
  27:../../libDaisy//src/hid/midi.h **** 
  28:../../libDaisy//src/hid/midi.h ****     struct Config
  29:../../libDaisy//src/hid/midi.h ****     {
  30:../../libDaisy//src/hid/midi.h ****         UartHandler::Config::Peripheral periph;
  31:../../libDaisy//src/hid/midi.h ****         dsy_gpio_pin                    rx;
  32:../../libDaisy//src/hid/midi.h ****         dsy_gpio_pin                    tx;
  33:../../libDaisy//src/hid/midi.h **** 
  34:../../libDaisy//src/hid/midi.h ****         Config()
  35:../../libDaisy//src/hid/midi.h ****         {
  36:../../libDaisy//src/hid/midi.h ****             periph = UartHandler::Config::Peripheral::USART_1;
  37:../../libDaisy//src/hid/midi.h ****             rx     = {DSY_GPIOB, 7};
  38:../../libDaisy//src/hid/midi.h ****             tx     = {DSY_GPIOB, 6};
  39:../../libDaisy//src/hid/midi.h ****         }
  40:../../libDaisy//src/hid/midi.h ****     };
  41:../../libDaisy//src/hid/midi.h **** 
  42:../../libDaisy//src/hid/midi.h ****     inline void Init(Config config)
  43:../../libDaisy//src/hid/midi.h ****     {
  44:../../libDaisy//src/hid/midi.h ****         UartHandler::Config uart_config;
  45:../../libDaisy//src/hid/midi.h **** 
  46:../../libDaisy//src/hid/midi.h ****         //defaults
  47:../../libDaisy//src/hid/midi.h ****         uart_config.baudrate   = 31250;
  48:../../libDaisy//src/hid/midi.h ****         uart_config.stopbits   = UartHandler::Config::StopBits::BITS_1;
  49:../../libDaisy//src/hid/midi.h ****         uart_config.parity     = UartHandler::Config::Parity::NONE;
  50:../../libDaisy//src/hid/midi.h ****         uart_config.mode       = UartHandler::Config::Mode::TX_RX;
  51:../../libDaisy//src/hid/midi.h ****         uart_config.wordlength = UartHandler::Config::WordLength::BITS_8;
  52:../../libDaisy//src/hid/midi.h **** 
  53:../../libDaisy//src/hid/midi.h ****         //user settings
  54:../../libDaisy//src/hid/midi.h ****         uart_config.periph        = config.periph;
  55:../../libDaisy//src/hid/midi.h ****         uart_config.pin_config.rx = config.rx;
  56:../../libDaisy//src/hid/midi.h ****         uart_config.pin_config.tx = config.tx;
  57:../../libDaisy//src/hid/midi.h **** 
  58:../../libDaisy//src/hid/midi.h ****         uart_.Init(uart_config);
  59:../../libDaisy//src/hid/midi.h ****     }
  60:../../libDaisy//src/hid/midi.h **** 
  61:../../libDaisy//src/hid/midi.h ****     inline void    StartRx() { uart_.StartRx(); }
  62:../../libDaisy//src/hid/midi.h ****     inline size_t  Readable() { return uart_.Readable(); }
  63:../../libDaisy//src/hid/midi.h ****     inline uint8_t Rx() { return uart_.PopRx(); }
  64:../../libDaisy//src/hid/midi.h ****     inline bool    RxActive() { return uart_.RxActive(); }
  65:../../libDaisy//src/hid/midi.h ****     inline void    FlushRx() { uart_.FlushRx(); }
  66:../../libDaisy//src/hid/midi.h ****     inline void    Tx(uint8_t* buff, size_t size) { uart_.PollTx(buff, size); }
  67:../../libDaisy//src/hid/midi.h **** 
  68:../../libDaisy//src/hid/midi.h ****   private:
  69:../../libDaisy//src/hid/midi.h ****     UartHandler uart_;
  70:../../libDaisy//src/hid/midi.h **** };
  71:../../libDaisy//src/hid/midi.h **** 
  72:../../libDaisy//src/hid/midi.h **** /** 
  73:../../libDaisy//src/hid/midi.h ****     @brief Simple MIDI Handler \n 
  74:../../libDaisy//src/hid/midi.h ****     Parses bytes from an input into valid MidiEvents. \n 
  75:../../libDaisy//src/hid/midi.h ****     The MidiEvents fill a FIFO queue that the user can pop messages from.
  76:../../libDaisy//src/hid/midi.h ****     @author shensley
  77:../../libDaisy//src/hid/midi.h ****     @date March 2020
ARM GAS  C:\Users\danst\AppData\Local\Temp\ccwBJjMd.s 			page 16


  78:../../libDaisy//src/hid/midi.h ****     @ingroup midi
  79:../../libDaisy//src/hid/midi.h **** */
  80:../../libDaisy//src/hid/midi.h **** template <typename Transport>
  81:../../libDaisy//src/hid/midi.h **** class MidiHandler
  82:../../libDaisy//src/hid/midi.h **** {
  83:../../libDaisy//src/hid/midi.h ****   public:
  84:../../libDaisy//src/hid/midi.h ****     MidiHandler() {}
  85:../../libDaisy//src/hid/midi.h ****     ~MidiHandler() {}
 260              		.loc 14 85 5 is_stmt 1 view -0
 261              		.cfi_startproc
 262              		@ args = 0, pretend = 0, frame = 0
 263              		@ frame_needed = 0, uses_anonymous_args = 0
 264              		@ link register save eliminated.
 265              	.LBB561:
 266              	.LBI561:
 267              		.file 15 "../../libDaisy//src/hid/usb_midi.h"
   1:../../libDaisy//src/hid/usb_midi.h **** #pragma once
   2:../../libDaisy//src/hid/usb_midi.h **** #ifndef __DSY_MIDIUSBTRANSPORT_H__
   3:../../libDaisy//src/hid/usb_midi.h **** #define __DSY_MIDIUSBTRANSPORT_H__
   4:../../libDaisy//src/hid/usb_midi.h **** 
   5:../../libDaisy//src/hid/usb_midi.h **** #include "hid/usb.h"
   6:../../libDaisy//src/hid/usb_midi.h **** #include "sys/system.h"
   7:../../libDaisy//src/hid/usb_midi.h **** #include "util/ringbuffer.h"
   8:../../libDaisy//src/hid/usb_midi.h **** 
   9:../../libDaisy//src/hid/usb_midi.h **** namespace daisy
  10:../../libDaisy//src/hid/usb_midi.h **** {
  11:../../libDaisy//src/hid/usb_midi.h **** /** @brief USB Transport for MIDI 
  12:../../libDaisy//src/hid/usb_midi.h ****  *  @ingroup midi
  13:../../libDaisy//src/hid/usb_midi.h ****  */
  14:../../libDaisy//src/hid/usb_midi.h **** class MidiUsbTransport
  15:../../libDaisy//src/hid/usb_midi.h **** {
  16:../../libDaisy//src/hid/usb_midi.h ****   public:
  17:../../libDaisy//src/hid/usb_midi.h ****     // MidiUsbTransport() {}
  18:../../libDaisy//src/hid/usb_midi.h ****     ~MidiUsbTransport() {}
 268              		.loc 15 18 5 view .LVU27
 269              		.loc 15 18 5 is_stmt 0 view .LVU28
 270              	.LBE561:
 271              		.loc 14 85 21 view .LVU29
 272 0000 7047     		bx	lr
 273              		.cfi_endproc
 274              	.LFE5384:
 276              		.weak	_ZN5daisy11MidiHandlerINS_16MidiUsbTransportEED1Ev
 277              		.thumb_set _ZN5daisy11MidiHandlerINS_16MidiUsbTransportEED1Ev,_ZN5daisy11MidiHandlerINS_16MidiUsbT
 278 0002 00BF     		.section	.text._Z13AudioCallbackPKPKfPPfj,"ax",%progbits
 279              		.align	1
 280              		.p2align 2,,3
 281              		.global	_Z13AudioCallbackPKPKfPPfj
 282              		.syntax unified
 283              		.thumb
 284              		.thumb_func
 285              		.fpu fpv5-d16
 287              	_Z13AudioCallbackPKPKfPPfj:
 288              	.LVL9:
 289              	.LFB4788:
 290              		.file 16 "takshaka.cpp"
   1:takshaka.cpp  **** #include "daisy_seed.h"
   2:takshaka.cpp  **** #include "daisysp.h"
ARM GAS  C:\Users\danst\AppData\Local\Temp\ccwBJjMd.s 			page 17


   3:takshaka.cpp  **** #include "SuperSawOsc.h"
   4:takshaka.cpp  **** #include "SmartKnob.h"
   5:takshaka.cpp  **** #define ROOT_MIDI_NOTE 48
   6:takshaka.cpp  **** #define SAMPLE_RATE 48000.0
   7:takshaka.cpp  **** using namespace daisy;
   8:takshaka.cpp  **** using namespace daisysp;
   9:takshaka.cpp  **** enum AdcChannel { 
  10:takshaka.cpp  **** 	driftKnob, 
  11:takshaka.cpp  **** 	shiftKnob, 
  12:takshaka.cpp  **** 	growlKnob,
  13:takshaka.cpp  **** 	howlKnob,
  14:takshaka.cpp  **** 	resKnob,
  15:takshaka.cpp  **** 	driveKnob,
  16:takshaka.cpp  **** 	attackKnob,
  17:takshaka.cpp  **** 	sustainKnob,
  18:takshaka.cpp  **** 	decayKnob,
  19:takshaka.cpp  **** 	clawsKnob,
  20:takshaka.cpp  **** 	slitherKnob,
  21:takshaka.cpp  **** 	slitherDriftModKnob,
  22:takshaka.cpp  **** 	ADC_CHANNELS_COUNT 
  23:takshaka.cpp  **** };
  24:takshaka.cpp  **** enum SubOscWaveforms {
  25:takshaka.cpp  **** 	SUBOSC_SINE_1,
  26:takshaka.cpp  **** 	SUBOSC_SINE_2,
  27:takshaka.cpp  **** 	SUBOSC_TRI_1,
  28:takshaka.cpp  **** 	SUBOSC_TRI_2,
  29:takshaka.cpp  **** 	SUBOSC_SQUARE_1,
  30:takshaka.cpp  **** 	SUBOSC_SQUARE_2,
  31:takshaka.cpp  **** 	SUBOSC_WAVEFORMS_COUNT
  32:takshaka.cpp  **** };
  33:takshaka.cpp  **** enum FilterModes {
  34:takshaka.cpp  **** 	FILTER_MODE_LP, 
  35:takshaka.cpp  **** 	FILTER_MODE_HP, 
  36:takshaka.cpp  **** 	FILTER_MODE_BP, 
  37:takshaka.cpp  **** 	FILTER_MODE_COMB,
  38:takshaka.cpp  **** 	FILTER_MODES_COUNT
  39:takshaka.cpp  **** };
  40:takshaka.cpp  **** enum operationModes { OP_MODE_ALT, OP_MODE_NORMAL };
  41:takshaka.cpp  **** float driftValue,
  42:takshaka.cpp  **** 	shiftValue,
  43:takshaka.cpp  **** 	driveValue,
  44:takshaka.cpp  **** 	midiFreq,
  45:takshaka.cpp  **** 	slitherValue,
  46:takshaka.cpp  **** 	slitherDriftModValue,
  47:takshaka.cpp  **** 	combFilterBuffer[ 9600 ];
  48:takshaka.cpp  **** int subOscOctave = 1,
  49:takshaka.cpp  **** 	midiNote = ROOT_MIDI_NOTE;
  50:takshaka.cpp  **** bool debugMode = false,
  51:takshaka.cpp  **** 	operationMode = OP_MODE_NORMAL,
  52:takshaka.cpp  **** 	lastOperationMode = OP_MODE_NORMAL,
  53:takshaka.cpp  **** 	envGate = false;
  54:takshaka.cpp  **** DaisySeed hw;
  55:takshaka.cpp  **** MidiUsbHandler midi;
  56:takshaka.cpp  **** Switch modeSwitch;
  57:takshaka.cpp  **** SmartKnob subMixSmartKnob,
  58:takshaka.cpp  **** 	subTypeSmartKnob,
  59:takshaka.cpp  **** 	filterCutoffSmartKnob,
ARM GAS  C:\Users\danst\AppData\Local\Temp\ccwBJjMd.s 			page 18


  60:takshaka.cpp  **** 	filterTypeSmartKnob,
  61:takshaka.cpp  **** 	filterResSmartKnob,
  62:takshaka.cpp  **** 	filterPolesSmartKnob,	
  63:takshaka.cpp  **** 	pounceAttackSmartKnob,
  64:takshaka.cpp  **** 	ampEnvAttackSmartKnob,
  65:takshaka.cpp  **** 	pounceSustainSmartKnob,
  66:takshaka.cpp  **** 	ampEnvSustainSmartKnob,
  67:takshaka.cpp  **** 	pounceDecaySmartKnob,
  68:takshaka.cpp  **** 	ampEnvDecaySmartKnob,
  69:takshaka.cpp  **** 	ampSmartKnob, 
  70:takshaka.cpp  **** 	ampEnvModSmartKnob;
  71:takshaka.cpp  **** SuperSawOsc superSaw;
  72:takshaka.cpp  **** Oscillator subOsc, lfo;
  73:takshaka.cpp  **** Svf filter1, filter2;
  74:takshaka.cpp  **** Comb combFilter;
  75:takshaka.cpp  **** Overdrive distortion;
  76:takshaka.cpp  **** Adsr pounce, ampEnv;
  77:takshaka.cpp  **** void AudioCallback( AudioHandle::InputBuffer in, AudioHandle::OutputBuffer out, size_t size ){
 291              		.loc 16 77 94 is_stmt 1 view -0
 292              		.cfi_startproc
 293              		@ args = 0, pretend = 0, frame = 0
 294              		@ frame_needed = 0, uses_anonymous_args = 0
  78:takshaka.cpp  **** 	for( size_t i = 0; i < size; i++ ){
 295              		.loc 16 78 2 view .LVU31
 296              	.LBB562:
 297              		.loc 16 78 23 view .LVU32
 298 0000 002A     		cmp	r2, #0
 299 0002 00F01981 		beq	.L32
 300              	.LBE562:
  77:takshaka.cpp  **** 	for( size_t i = 0; i < size; i++ ){
 301              		.loc 16 77 94 is_stmt 0 view .LVU33
 302 0006 2DE9F84F 		push	{r3, r4, r5, r6, r7, r8, r9, r10, fp, lr}
 303              		.cfi_def_cfa_offset 40
 304              		.cfi_offset 3, -40
 305              		.cfi_offset 4, -36
 306              		.cfi_offset 5, -32
 307              		.cfi_offset 6, -28
 308              		.cfi_offset 7, -24
 309              		.cfi_offset 8, -20
 310              		.cfi_offset 9, -16
 311              		.cfi_offset 10, -12
 312              		.cfi_offset 11, -8
 313              		.cfi_offset 14, -4
 314 000a 0E46     		mov	r6, r1
 315 000c 1746     		mov	r7, r2
 316              	.LBB654:
 317              		.loc 16 78 14 view .LVU34
 318 000e 0024     		movs	r4, #0
 319 0010 8A4D     		ldr	r5, .L36
 320 0012 DFF878B2 		ldr	fp, .L36+80
 321 0016 DFF878A2 		ldr	r10, .L36+84
 322 001a DFF87892 		ldr	r9, .L36+88
 323 001e DFF87882 		ldr	r8, .L36+92
 324              	.LBE654:
  77:takshaka.cpp  **** 	for( size_t i = 0; i < size; i++ ){
 325              		.loc 16 77 94 view .LVU35
 326 0022 2DED048B 		vpush.64	{d8, d9}
ARM GAS  C:\Users\danst\AppData\Local\Temp\ccwBJjMd.s 			page 19


 327              		.cfi_def_cfa_offset 56
 328              		.cfi_offset 80, -56
 329              		.cfi_offset 81, -52
 330              		.cfi_offset 82, -48
 331              		.cfi_offset 83, -44
 332              	.LVL10:
 333              	.L25:
 334              	.LBB655:
 335              	.LBB563:
  79:takshaka.cpp  **** 		float pounceValue = pounce.Process( envGate );
 336              		.loc 16 79 3 is_stmt 1 view .LVU36
 337              		.loc 16 79 37 is_stmt 0 view .LVU37
 338 0026 2978     		ldrb	r1, [r5]	@ zero_extendqisi2
 339              	.LBB564:
 340              	.LBB565:
 341              		.file 17 "../../DaisySP//Source/Utility/dsp.h"
   1:../../DaisySP//Source/Utility/dsp.h **** /** Helpful defines, functions, and other utilities for use in/with daisysp modules.
   2:../../DaisySP//Source/Utility/dsp.h **** */
   3:../../DaisySP//Source/Utility/dsp.h **** #pragma once
   4:../../DaisySP//Source/Utility/dsp.h **** #ifndef DSY_CORE_DSP
   5:../../DaisySP//Source/Utility/dsp.h **** #define DSY_CORE_DSP
   6:../../DaisySP//Source/Utility/dsp.h **** #include <cassert>
   7:../../DaisySP//Source/Utility/dsp.h **** #include <cstdint>
   8:../../DaisySP//Source/Utility/dsp.h **** #include <random>
   9:../../DaisySP//Source/Utility/dsp.h **** #include <cmath>
  10:../../DaisySP//Source/Utility/dsp.h **** 
  11:../../DaisySP//Source/Utility/dsp.h **** /** PIs
  12:../../DaisySP//Source/Utility/dsp.h **** */
  13:../../DaisySP//Source/Utility/dsp.h **** #define PI_F 3.1415927410125732421875f
  14:../../DaisySP//Source/Utility/dsp.h **** #define TWOPI_F (2.0f * PI_F)
  15:../../DaisySP//Source/Utility/dsp.h **** #define HALFPI_F (PI_F * 0.5f)
  16:../../DaisySP//Source/Utility/dsp.h **** #define DSY_MIN(in, mn) (in < mn ? in : mn)
  17:../../DaisySP//Source/Utility/dsp.h **** #define DSY_MAX(in, mx) (in > mx ? in : mx)
  18:../../DaisySP//Source/Utility/dsp.h **** #define DSY_CLAMP(in, mn, mx) (DSY_MIN(DSY_MAX(in, mn), mx))
  19:../../DaisySP//Source/Utility/dsp.h **** #define DSY_COUNTOF(_arr) (sizeof(_arr) / sizeof(_arr[0]))
  20:../../DaisySP//Source/Utility/dsp.h **** 
  21:../../DaisySP//Source/Utility/dsp.h **** namespace daisysp
  22:../../DaisySP//Source/Utility/dsp.h **** {
  23:../../DaisySP//Source/Utility/dsp.h **** //Avoids division for random floats. e.g. rand() * kRandFrac
  24:../../DaisySP//Source/Utility/dsp.h **** static constexpr float kRandFrac = 1.f / (float)RAND_MAX;
  25:../../DaisySP//Source/Utility/dsp.h **** 
  26:../../DaisySP//Source/Utility/dsp.h **** //Convert from semitones to other units. e.g. 2 ^ (kOneTwelfth * x)
  27:../../DaisySP//Source/Utility/dsp.h **** static constexpr float kOneTwelfth = 1.f / 12.f;
  28:../../DaisySP//Source/Utility/dsp.h **** 
  29:../../DaisySP//Source/Utility/dsp.h **** /** efficient floating point min/max
  30:../../DaisySP//Source/Utility/dsp.h **** c/o stephen mccaul
  31:../../DaisySP//Source/Utility/dsp.h **** */
  32:../../DaisySP//Source/Utility/dsp.h **** inline float fmax(float a, float b)
  33:../../DaisySP//Source/Utility/dsp.h **** {
  34:../../DaisySP//Source/Utility/dsp.h ****     float r;
  35:../../DaisySP//Source/Utility/dsp.h **** #ifdef __arm__
  36:../../DaisySP//Source/Utility/dsp.h ****     asm("vmaxnm.f32 %[d], %[n], %[m]" : [d] "=t"(r) : [n] "t"(a), [m] "t"(b) :);
  37:../../DaisySP//Source/Utility/dsp.h **** #else
  38:../../DaisySP//Source/Utility/dsp.h ****     r = (a > b) ? a : b;
  39:../../DaisySP//Source/Utility/dsp.h **** #endif // __arm__
  40:../../DaisySP//Source/Utility/dsp.h ****     return r;
  41:../../DaisySP//Source/Utility/dsp.h **** }
ARM GAS  C:\Users\danst\AppData\Local\Temp\ccwBJjMd.s 			page 20


  42:../../DaisySP//Source/Utility/dsp.h **** 
  43:../../DaisySP//Source/Utility/dsp.h **** inline float fmin(float a, float b)
  44:../../DaisySP//Source/Utility/dsp.h **** {
  45:../../DaisySP//Source/Utility/dsp.h ****     float r;
  46:../../DaisySP//Source/Utility/dsp.h **** #ifdef __arm__
  47:../../DaisySP//Source/Utility/dsp.h ****     asm("vminnm.f32 %[d], %[n], %[m]" : [d] "=t"(r) : [n] "t"(a), [m] "t"(b) :);
  48:../../DaisySP//Source/Utility/dsp.h **** #else
  49:../../DaisySP//Source/Utility/dsp.h ****     r = (a < b) ? a : b;
  50:../../DaisySP//Source/Utility/dsp.h **** #endif // __arm__
  51:../../DaisySP//Source/Utility/dsp.h ****     return r;
  52:../../DaisySP//Source/Utility/dsp.h **** }
  53:../../DaisySP//Source/Utility/dsp.h **** 
  54:../../DaisySP//Source/Utility/dsp.h **** /** quick fp clamp
  55:../../DaisySP//Source/Utility/dsp.h **** */
  56:../../DaisySP//Source/Utility/dsp.h **** inline float fclamp(float in, float min, float max)
  57:../../DaisySP//Source/Utility/dsp.h **** {
  58:../../DaisySP//Source/Utility/dsp.h ****     return fmin(fmax(in, min), max);
  59:../../DaisySP//Source/Utility/dsp.h **** }
  60:../../DaisySP//Source/Utility/dsp.h **** 
  61:../../DaisySP//Source/Utility/dsp.h **** /** From Musicdsp.org "Fast power and root estimates for 32bit floats)
  62:../../DaisySP//Source/Utility/dsp.h **** Original code by Stefan Stenzel
  63:../../DaisySP//Source/Utility/dsp.h **** These are approximations
  64:../../DaisySP//Source/Utility/dsp.h **** */
  65:../../DaisySP//Source/Utility/dsp.h **** inline float fastpower(float f, int n)
  66:../../DaisySP//Source/Utility/dsp.h **** {
  67:../../DaisySP//Source/Utility/dsp.h ****     long *lp, l;
  68:../../DaisySP//Source/Utility/dsp.h ****     lp = (long *)(&f);
  69:../../DaisySP//Source/Utility/dsp.h ****     l  = *lp;
  70:../../DaisySP//Source/Utility/dsp.h ****     l -= 0x3F800000;
  71:../../DaisySP//Source/Utility/dsp.h ****     l <<= (n - 1);
  72:../../DaisySP//Source/Utility/dsp.h ****     l += 0x3F800000;
  73:../../DaisySP//Source/Utility/dsp.h ****     *lp = l;
  74:../../DaisySP//Source/Utility/dsp.h ****     return f;
  75:../../DaisySP//Source/Utility/dsp.h **** }
  76:../../DaisySP//Source/Utility/dsp.h **** 
  77:../../DaisySP//Source/Utility/dsp.h **** inline float fastroot(float f, int n)
  78:../../DaisySP//Source/Utility/dsp.h **** {
  79:../../DaisySP//Source/Utility/dsp.h ****     long *lp, l;
  80:../../DaisySP//Source/Utility/dsp.h ****     lp = (long *)(&f);
  81:../../DaisySP//Source/Utility/dsp.h ****     l  = *lp;
  82:../../DaisySP//Source/Utility/dsp.h ****     l -= 0x3F800000;
  83:../../DaisySP//Source/Utility/dsp.h ****     l >>= (n = 1);
  84:../../DaisySP//Source/Utility/dsp.h ****     l += 0x3F800000;
  85:../../DaisySP//Source/Utility/dsp.h ****     *lp = l;
  86:../../DaisySP//Source/Utility/dsp.h ****     return f;
  87:../../DaisySP//Source/Utility/dsp.h **** }
  88:../../DaisySP//Source/Utility/dsp.h **** 
  89:../../DaisySP//Source/Utility/dsp.h **** /** From http://openaudio.blogspot.com/2017/02/faster-log10-and-pow.html
  90:../../DaisySP//Source/Utility/dsp.h **** No approximation, pow10f(x) gives a 90% speed increase over powf(10.f, x)
  91:../../DaisySP//Source/Utility/dsp.h **** */
  92:../../DaisySP//Source/Utility/dsp.h **** inline float pow10f(float f)
  93:../../DaisySP//Source/Utility/dsp.h **** {
  94:../../DaisySP//Source/Utility/dsp.h ****     return expf(2.302585092994046f * f);
  95:../../DaisySP//Source/Utility/dsp.h **** }
  96:../../DaisySP//Source/Utility/dsp.h **** 
  97:../../DaisySP//Source/Utility/dsp.h **** /* Original code for fastlog2f by Dr. Paul Beckmann from the ARM community forum, adapted from the 
  98:../../DaisySP//Source/Utility/dsp.h **** About 25% performance increase over std::log10f
ARM GAS  C:\Users\danst\AppData\Local\Temp\ccwBJjMd.s 			page 21


  99:../../DaisySP//Source/Utility/dsp.h **** */
 100:../../DaisySP//Source/Utility/dsp.h **** inline float fastlog2f(float f)
 101:../../DaisySP//Source/Utility/dsp.h **** {
 102:../../DaisySP//Source/Utility/dsp.h ****     float frac;
 103:../../DaisySP//Source/Utility/dsp.h ****     int   exp;
 104:../../DaisySP//Source/Utility/dsp.h ****     frac = frexpf(fabsf(f), &exp);
 105:../../DaisySP//Source/Utility/dsp.h ****     f    = 1.23149591368684f;
 106:../../DaisySP//Source/Utility/dsp.h ****     f *= frac;
 107:../../DaisySP//Source/Utility/dsp.h ****     f += -4.11852516267426f;
 108:../../DaisySP//Source/Utility/dsp.h ****     f *= frac;
 109:../../DaisySP//Source/Utility/dsp.h ****     f += 6.02197014179219f;
 110:../../DaisySP//Source/Utility/dsp.h ****     f *= frac;
 111:../../DaisySP//Source/Utility/dsp.h ****     f += -3.13396450166353f;
 112:../../DaisySP//Source/Utility/dsp.h ****     f += exp;
 113:../../DaisySP//Source/Utility/dsp.h ****     return (f);
 114:../../DaisySP//Source/Utility/dsp.h **** }
 115:../../DaisySP//Source/Utility/dsp.h **** 
 116:../../DaisySP//Source/Utility/dsp.h **** inline float fastlog10f(float f)
 117:../../DaisySP//Source/Utility/dsp.h **** {
 118:../../DaisySP//Source/Utility/dsp.h ****     return fastlog2f(f) * 0.3010299956639812f;
 119:../../DaisySP//Source/Utility/dsp.h **** }
 120:../../DaisySP//Source/Utility/dsp.h **** 
 121:../../DaisySP//Source/Utility/dsp.h **** /** Midi to frequency helper
 122:../../DaisySP//Source/Utility/dsp.h **** */
 123:../../DaisySP//Source/Utility/dsp.h **** inline float mtof(float m)
 124:../../DaisySP//Source/Utility/dsp.h **** {
 125:../../DaisySP//Source/Utility/dsp.h ****     return powf(2, (m - 69.0f) / 12.0f) * 440.0f;
 126:../../DaisySP//Source/Utility/dsp.h **** }
 127:../../DaisySP//Source/Utility/dsp.h **** 
 128:../../DaisySP//Source/Utility/dsp.h **** 
 129:../../DaisySP//Source/Utility/dsp.h **** /** one pole lpf
 130:../../DaisySP//Source/Utility/dsp.h **** out is passed by reference, and must be retained between
 131:../../DaisySP//Source/Utility/dsp.h **** calls to properly filter the signal
 132:../../DaisySP//Source/Utility/dsp.h **** coeff can be calculated:
 133:../../DaisySP//Source/Utility/dsp.h **** coeff = 1.0 / (time * sample_rate) ; where time is in seconds
 134:../../DaisySP//Source/Utility/dsp.h **** */
 135:../../DaisySP//Source/Utility/dsp.h **** inline void fonepole(float &out, float in, float coeff)
 136:../../DaisySP//Source/Utility/dsp.h **** {
 137:../../DaisySP//Source/Utility/dsp.h ****     out += coeff * (in - out);
 138:../../DaisySP//Source/Utility/dsp.h **** }
 139:../../DaisySP//Source/Utility/dsp.h **** 
 140:../../DaisySP//Source/Utility/dsp.h **** /** Curves to use with the fmap function */
 141:../../DaisySP//Source/Utility/dsp.h **** enum class Mapping
 142:../../DaisySP//Source/Utility/dsp.h **** {
 143:../../DaisySP//Source/Utility/dsp.h ****     LINEAR,
 144:../../DaisySP//Source/Utility/dsp.h ****     EXP,
 145:../../DaisySP//Source/Utility/dsp.h ****     LOG,
 146:../../DaisySP//Source/Utility/dsp.h **** };
 147:../../DaisySP//Source/Utility/dsp.h **** 
 148:../../DaisySP//Source/Utility/dsp.h **** /** Maps a float between a specified range, using a specified curve. 
 149:../../DaisySP//Source/Utility/dsp.h ****  * 
 150:../../DaisySP//Source/Utility/dsp.h ****  *  \param in a value between 0 to 1 that will be mapped to the new range.
 151:../../DaisySP//Source/Utility/dsp.h ****  *  \param min the new minimum value
 152:../../DaisySP//Source/Utility/dsp.h ****  *  \param max the new maxmimum value
 153:../../DaisySP//Source/Utility/dsp.h ****  *  \param curve a Mapping Value to adjust the response curve of the transformation
 154:../../DaisySP//Source/Utility/dsp.h ****  *               defaults to Linear. @see Mapping
 155:../../DaisySP//Source/Utility/dsp.h ****  * 
ARM GAS  C:\Users\danst\AppData\Local\Temp\ccwBJjMd.s 			page 22


 156:../../DaisySP//Source/Utility/dsp.h ****  *  When using the log curve min and max, must be greater than zero.
 157:../../DaisySP//Source/Utility/dsp.h ****  * 
 158:../../DaisySP//Source/Utility/dsp.h ****  *  \retval returns the transformed float within the new range.
 159:../../DaisySP//Source/Utility/dsp.h **** */
 160:../../DaisySP//Source/Utility/dsp.h **** inline float
 161:../../DaisySP//Source/Utility/dsp.h **** fmap(float in, float min, float max, Mapping curve = Mapping::LINEAR)
 162:../../DaisySP//Source/Utility/dsp.h **** {
 163:../../DaisySP//Source/Utility/dsp.h ****     switch(curve)
 164:../../DaisySP//Source/Utility/dsp.h ****     {
 165:../../DaisySP//Source/Utility/dsp.h ****         case Mapping::EXP:
 166:../../DaisySP//Source/Utility/dsp.h ****             return fclamp(min + (in * in) * (max - min), min, max);
 167:../../DaisySP//Source/Utility/dsp.h ****         case Mapping::LOG:
 168:../../DaisySP//Source/Utility/dsp.h ****         {
 169:../../DaisySP//Source/Utility/dsp.h ****             const float a = 1.f / log10f(max / min);
 170:../../DaisySP//Source/Utility/dsp.h ****             return fclamp(min * powf(10, in / a), min, max);
 171:../../DaisySP//Source/Utility/dsp.h ****         }
 172:../../DaisySP//Source/Utility/dsp.h ****         case Mapping::LINEAR:
 173:../../DaisySP//Source/Utility/dsp.h ****         default: return fclamp(min + in * (max - min), min, max);
 342              		.loc 17 173 31 view .LVU38
 343 0028 F7EE008A 		vmov.f32	s17, #1.0e+0
 344              	.LBE565:
 345              	.LBE564:
 346              		.loc 16 79 37 view .LVU39
 347 002c 8448     		ldr	r0, .L36+4
 348 002e FFF7FEFF 		bl	_ZN7daisysp4Adsr7ProcessEb
 349              	.LVL11:
  80:takshaka.cpp  **** 		// MUX: float modDriftValue = driftValue + ( pounceValue * pounceDriftModValue );
  81:takshaka.cpp  **** 		float modDriftValue = driftValue;
  82:takshaka.cpp  **** 		superSaw.SetDrift( modDriftValue );
 350              		.loc 16 82 20 view .LVU40
 351 0032 8448     		ldr	r0, .L36+8
  79:takshaka.cpp  **** 		// MUX: float modDriftValue = driftValue + ( pounceValue * pounceDriftModValue );
 352              		.loc 16 79 37 view .LVU41
 353 0034 B0EE408A 		vmov.f32	s16, s0
 354              		.loc 16 82 20 view .LVU42
 355 0038 9BED000A 		vldr.32	s0, [fp]
 356              	.LVL12:
  81:takshaka.cpp  **** 		superSaw.SetDrift( modDriftValue );
 357              		.loc 16 81 3 is_stmt 1 view .LVU43
 358              		.loc 16 82 3 view .LVU44
 359              		.loc 16 82 20 is_stmt 0 view .LVU45
 360 003c FFF7FEFF 		bl	_ZN7daisysp11SuperSawOsc8SetDriftEf
 361              	.LVL13:
  83:takshaka.cpp  **** 
  84:takshaka.cpp  **** 		float modShiftValue = shiftValue + ( pounceValue * slitherValue );
 362              		.loc 16 84 3 is_stmt 1 view .LVU46
 363              		.loc 16 84 9 is_stmt 0 view .LVU47
 364 0040 DAED007A 		vldr.32	s15, [r10]
 365 0044 99ED000A 		vldr.32	s0, [r9]
 366              	.LVL14:
  85:takshaka.cpp  **** 		superSaw.SetShift( modShiftValue );
 367              		.loc 16 85 3 is_stmt 1 view .LVU48
 368              		.loc 16 85 20 is_stmt 0 view .LVU49
 369 0048 7E48     		ldr	r0, .L36+8
 370 004a A7EE880A 		vfma.f32	s0, s15, s16
 371              	.LVL15:
 372              		.loc 16 85 20 view .LVU50
ARM GAS  C:\Users\danst\AppData\Local\Temp\ccwBJjMd.s 			page 23


 373 004e FFF7FEFF 		bl	_ZN7daisysp11SuperSawOsc8SetShiftEf
 374              	.LVL16:
  86:takshaka.cpp  **** 		
  87:takshaka.cpp  **** 		// SET ADJUST TO 1.0 - 0.8 DEPENDING ON THE SUB KNOB
  88:takshaka.cpp  **** 		float superSawAdjust = fmap( 1.0 - subMixSmartKnob.GetValue(), 0.8, 1.0 );
 375              		.loc 16 88 3 is_stmt 1 view .LVU51
 376              		.loc 16 88 62 is_stmt 0 view .LVU52
 377 0052 7D48     		ldr	r0, .L36+12
 378 0054 FFF7FEFF 		bl	_ZN7daisysp9SmartKnob8GetValueEv
 379              	.LVL17:
 380              	.LBB579:
 381              	.LBI564:
 161:../../DaisySP//Source/Utility/dsp.h **** {
 382              		.loc 17 161 1 is_stmt 1 view .LVU53
 383              	.LBE579:
 384              	.LBE563:
 385              	.LBE655:
 163:../../DaisySP//Source/Utility/dsp.h ****     {
 386              		.loc 17 163 5 view .LVU54
 387              	.LBB656:
 388              	.LBB645:
 389              	.LBB580:
 390              	.LBB575:
 172:../../DaisySP//Source/Utility/dsp.h ****         default: return fclamp(min + in * (max - min), min, max);
 391              		.loc 17 172 9 view .LVU55
 392              		.loc 17 173 9 view .LVU56
 393              		.loc 17 173 18 view .LVU57
 394              		.loc 17 173 31 is_stmt 0 view .LVU58
 395 0058 DFED7C7A 		vldr.32	s15, .L36+16
 396 005c 38EEC00A 		vsub.f32	s0, s17, s0
 397              	.LVL18:
 398              		.loc 17 173 31 view .LVU59
 399 0060 9FED7B7A 		vldr.32	s14, .L36+20
 400 0064 B0EE679A 		vmov.f32	s18, s15
 401              	.LBE575:
 402              	.LBE580:
  89:takshaka.cpp  **** 		float mixedSignal = superSaw.Process() * superSawAdjust;
 403              		.loc 16 89 39 view .LVU60
 404 0068 7648     		ldr	r0, .L36+8
 405              	.LBB581:
 406              	.LBB576:
 407              		.loc 17 173 31 view .LVU61
 408 006a A0EE079A 		vfma.f32	s18, s0, s14
 409              	.LVL19:
 410              	.LBB566:
 411              	.LBI566:
  56:../../DaisySP//Source/Utility/dsp.h **** {
 412              		.loc 17 56 14 is_stmt 1 view .LVU62
 413              	.LBE566:
 414              	.LBE576:
 415              	.LBE581:
 416              	.LBE645:
 417              	.LBE656:
  58:../../DaisySP//Source/Utility/dsp.h **** }
 418              		.loc 17 58 5 view .LVU63
 419              	.LBB657:
 420              	.LBB646:
ARM GAS  C:\Users\danst\AppData\Local\Temp\ccwBJjMd.s 			page 24


 421              	.LBB582:
 422              	.LBB577:
 423              	.LBB573:
 424              	.LBB567:
 425              	.LBI567:
  32:../../DaisySP//Source/Utility/dsp.h **** {
 426              		.loc 17 32 14 view .LVU64
 427              	.LBB568:
  34:../../DaisySP//Source/Utility/dsp.h **** #ifdef __arm__
 428              		.loc 17 34 5 view .LVU65
  36:../../DaisySP//Source/Utility/dsp.h **** #else
 429              		.loc 17 36 5 view .LVU66
 430              		.syntax unified
 431              	@ 36 "../../DaisySP//Source/Utility/dsp.h" 1
 432 006e 89FE279A 		vmaxnm.f32 s18, s18, s15
 433              	@ 0 "" 2
 434              	.LVL20:
  40:../../DaisySP//Source/Utility/dsp.h **** }
 435              		.loc 17 40 5 view .LVU67
  40:../../DaisySP//Source/Utility/dsp.h **** }
 436              		.loc 17 40 5 is_stmt 0 view .LVU68
 437              		.thumb
 438              		.syntax unified
 439              	.LBE568:
 440              	.LBE567:
 441              	.LBB569:
 442              	.LBI569:
  43:../../DaisySP//Source/Utility/dsp.h **** {
 443              		.loc 17 43 14 is_stmt 1 view .LVU69
 444              	.LBB570:
  45:../../DaisySP//Source/Utility/dsp.h **** #ifdef __arm__
 445              		.loc 17 45 5 view .LVU70
  47:../../DaisySP//Source/Utility/dsp.h **** #else
 446              		.loc 17 47 5 view .LVU71
 447              	.LBE570:
 448              	.LBE569:
 449              	.LBE573:
 450              	.LBE577:
 451              	.LBE582:
 452              		.loc 16 89 39 is_stmt 0 view .LVU72
 453 0072 FFF7FEFF 		bl	_ZN7daisysp11SuperSawOsc7ProcessEv
 454              	.LVL21:
  90:takshaka.cpp  **** 		float subSignal = subOsc.Process();
 455              		.loc 16 90 35 view .LVU73
 456 0076 7748     		ldr	r0, .L36+24
  89:takshaka.cpp  **** 		float subSignal = subOsc.Process();
 457              		.loc 16 89 39 view .LVU74
 458 0078 F0EE409A 		vmov.f32	s19, s0
 459              		.loc 16 90 35 view .LVU75
 460 007c FFF7FEFF 		bl	_ZN7daisysp10Oscillator7ProcessEv
 461              	.LVL22:
 462 0080 B0EE408A 		vmov.f32	s16, s0
 463              	.LVL23:
  91:takshaka.cpp  **** 		mixedSignal += subSignal * subMixSmartKnob.GetValue();
 464              		.loc 16 91 54 view .LVU76
 465 0084 7048     		ldr	r0, .L36+12
 466 0086 FFF7FEFF 		bl	_ZN7daisysp9SmartKnob8GetValueEv
ARM GAS  C:\Users\danst\AppData\Local\Temp\ccwBJjMd.s 			page 25


 467              	.LVL24:
  92:takshaka.cpp  **** 		float lfoSignal = lfo.Process();		
 468              		.loc 16 92 32 view .LVU77
 469 008a 7348     		ldr	r0, .L36+28
 470              	.LBB583:
 471              	.LBB578:
 472              	.LBB574:
 473              	.LBB572:
 474              	.LBB571:
  47:../../DaisySP//Source/Utility/dsp.h **** #else
 475              		.loc 17 47 5 view .LVU78
 476              		.syntax unified
 477              	@ 47 "../../DaisySP//Source/Utility/dsp.h" 1
 478 008c 89FE689A 		vminnm.f32 s18, s18, s17
 479              	@ 0 "" 2
 480              	.LVL25:
  51:../../DaisySP//Source/Utility/dsp.h **** }
 481              		.loc 17 51 5 is_stmt 1 view .LVU79
  51:../../DaisySP//Source/Utility/dsp.h **** }
 482              		.loc 17 51 5 is_stmt 0 view .LVU80
 483              		.thumb
 484              		.syntax unified
 485              	.LBE571:
 486              	.LBE572:
 487              	.LBE574:
 488              	.LBE578:
 489              	.LBE583:
  89:takshaka.cpp  **** 		float subSignal = subOsc.Process();
 490              		.loc 16 89 3 is_stmt 1 view .LVU81
  90:takshaka.cpp  **** 		mixedSignal += subSignal * subMixSmartKnob.GetValue();
 491              		.loc 16 90 3 view .LVU82
  91:takshaka.cpp  **** 		float lfoSignal = lfo.Process();		
 492              		.loc 16 91 3 view .LVU83
  91:takshaka.cpp  **** 		float lfoSignal = lfo.Process();		
 493              		.loc 16 91 28 is_stmt 0 view .LVU84
 494 0090 20EE088A 		vmul.f32	s16, s0, s16
 495              	.LVL26:
 496              		.loc 16 92 32 view .LVU85
 497 0094 FFF7FEFF 		bl	_ZN7daisysp10Oscillator7ProcessEv
 498              	.LVL27:
  93:takshaka.cpp  **** 		mixedSignal = distortion.Process( mixedSignal );
 499              		.loc 16 93 35 view .LVU86
 500 0098 7048     		ldr	r0, .L36+32
  91:takshaka.cpp  **** 		float lfoSignal = lfo.Process();		
 501              		.loc 16 91 15 view .LVU87
 502 009a A9EE898A 		vfma.f32	s16, s19, s18
 503              	.LVL28:
  92:takshaka.cpp  **** 		mixedSignal = distortion.Process( mixedSignal );
 504              		.loc 16 92 3 is_stmt 1 view .LVU88
 505              		.loc 16 93 3 view .LVU89
 506              		.loc 16 93 35 is_stmt 0 view .LVU90
 507 009e B0EE480A 		vmov.f32	s0, s16
 508 00a2 FFF7FEFF 		bl	_ZN7daisysp9Overdrive7ProcessEf
 509              	.LVL29:
  94:takshaka.cpp  **** 		// MUX: float cutoffMod = pounceValue * pounceHowlModValue;
  95:takshaka.cpp  **** 		float cutoffMod = pounce.Process( envGate ) * 0.5;
 510              		.loc 16 95 35 view .LVU91
ARM GAS  C:\Users\danst\AppData\Local\Temp\ccwBJjMd.s 			page 26


 511 00a6 2978     		ldrb	r1, [r5]	@ zero_extendqisi2
 512 00a8 6548     		ldr	r0, .L36+4
  93:takshaka.cpp  **** 		// MUX: float cutoffMod = pounceValue * pounceHowlModValue;
 513              		.loc 16 93 35 view .LVU92
 514 00aa B0EE409A 		vmov.f32	s18, s0
 515              	.LVL30:
 516              		.loc 16 95 3 is_stmt 1 view .LVU93
 517              		.loc 16 95 35 is_stmt 0 view .LVU94
 518 00ae FFF7FEFF 		bl	_ZN7daisysp4Adsr7ProcessEb
 519              	.LVL31:
  96:takshaka.cpp  **** 		cutoffMod += filterCutoffSmartKnob.GetValue();
 520              		.loc 16 96 46 view .LVU95
 521 00b2 6B48     		ldr	r0, .L36+36
  95:takshaka.cpp  **** 		cutoffMod += filterCutoffSmartKnob.GetValue();
 522              		.loc 16 95 35 view .LVU96
 523 00b4 B0EE408A 		vmov.f32	s16, s0
 524              	.LVL32:
 525              		.loc 16 96 3 is_stmt 1 view .LVU97
 526              		.loc 16 96 46 is_stmt 0 view .LVU98
 527 00b8 FFF7FEFF 		bl	_ZN7daisysp9SmartKnob8GetValueEv
 528              	.LVL33:
 529              		.loc 16 96 13 view .LVU99
 530 00bc F6EE005A 		vmov.f32	s11, #5.0e-1
  97:takshaka.cpp  **** 		float filterFreq = fmap( cutoffMod, 1.0, fclamp( midiFreq * 16.0, 20.0, 20000.0 ) );
 531              		.loc 16 97 26 view .LVU100
 532 00c0 98ED007A 		vldr.32	s14, [r8]
 533 00c4 F3EE007A 		vmov.f32	s15, #1.6e+1
 534              	.LBB584:
 535              	.LBB585:
 536              	.LBB586:
  47:../../DaisySP//Source/Utility/dsp.h **** #else
 537              		.loc 17 47 5 view .LVU101
 538 00c8 DFED666A 		vldr.32	s13, .L36+40
 539              	.LBE586:
 540              	.LBE585:
 541              	.LBB588:
 542              	.LBB589:
  36:../../DaisySP//Source/Utility/dsp.h **** #else
 543              		.loc 17 36 5 view .LVU102
 544 00cc B3EE046A 		vmov.f32	s12, #2.0e+1
 545              	.LBE589:
 546              	.LBE588:
 547              	.LBE584:
  98:takshaka.cpp  **** 		filter1.SetFreq( filterFreq );
 548              		.loc 16 98 18 view .LVU103
 549 00d0 6548     		ldr	r0, .L36+44
  96:takshaka.cpp  **** 		float filterFreq = fmap( cutoffMod, 1.0, fclamp( midiFreq * 16.0, 20.0, 20000.0 ) );
 550              		.loc 16 96 13 view .LVU104
 551 00d2 A8EE250A 		vfma.f32	s0, s16, s11
 552              	.LVL34:
  97:takshaka.cpp  **** 		filter1.SetFreq( filterFreq );
 553              		.loc 16 97 3 is_stmt 1 view .LVU105
 554              	.LBB595:
 555              	.LBI584:
  56:../../DaisySP//Source/Utility/dsp.h **** {
 556              		.loc 17 56 14 view .LVU106
 557              	.LBE595:
ARM GAS  C:\Users\danst\AppData\Local\Temp\ccwBJjMd.s 			page 27


 558              	.LBE646:
 559              	.LBE657:
  58:../../DaisySP//Source/Utility/dsp.h **** }
 560              		.loc 17 58 5 view .LVU107
 561              	.LBB658:
 562              	.LBB647:
 563              	.LBB596:
 564              	.LBB592:
 565              	.LBI588:
  32:../../DaisySP//Source/Utility/dsp.h **** {
 566              		.loc 17 32 14 view .LVU108
 567              	.LBB590:
  34:../../DaisySP//Source/Utility/dsp.h **** #ifdef __arm__
 568              		.loc 17 34 5 view .LVU109
  36:../../DaisySP//Source/Utility/dsp.h **** #else
 569              		.loc 17 36 5 view .LVU110
 570              	.LBE590:
 571              	.LBE592:
 572              	.LBE596:
  97:takshaka.cpp  **** 		filter1.SetFreq( filterFreq );
 573              		.loc 16 97 26 is_stmt 0 view .LVU111
 574 00d6 67EE277A 		vmul.f32	s15, s14, s15
 575              	.LVL35:
 576              	.LBB597:
 577              	.LBB598:
 578              		.loc 17 173 31 view .LVU112
 579 00da B0EE688A 		vmov.f32	s16, s17
 580              	.LBE598:
 581              	.LBE597:
 582              	.LBB607:
 583              	.LBB593:
 584              	.LBB591:
  36:../../DaisySP//Source/Utility/dsp.h **** #else
 585              		.loc 17 36 5 view .LVU113
 586              		.syntax unified
 587              	@ 36 "../../DaisySP//Source/Utility/dsp.h" 1
 588 00de C7FE867A 		vmaxnm.f32 s15, s15, s12
 589              	@ 0 "" 2
 590              	.LVL36:
  40:../../DaisySP//Source/Utility/dsp.h **** }
 591              		.loc 17 40 5 is_stmt 1 view .LVU114
  40:../../DaisySP//Source/Utility/dsp.h **** }
 592              		.loc 17 40 5 is_stmt 0 view .LVU115
 593              		.thumb
 594              		.syntax unified
 595              	.LBE591:
 596              	.LBE593:
 597              	.LBB594:
 598              	.LBI585:
  43:../../DaisySP//Source/Utility/dsp.h **** {
 599              		.loc 17 43 14 is_stmt 1 view .LVU116
 600              	.LBB587:
  45:../../DaisySP//Source/Utility/dsp.h **** #ifdef __arm__
 601              		.loc 17 45 5 view .LVU117
  47:../../DaisySP//Source/Utility/dsp.h **** #else
 602              		.loc 17 47 5 view .LVU118
 603              		.syntax unified
ARM GAS  C:\Users\danst\AppData\Local\Temp\ccwBJjMd.s 			page 28


 604              	@ 47 "../../DaisySP//Source/Utility/dsp.h" 1
 605 00e2 C7FEE67A 		vminnm.f32 s15, s15, s13
 606              	@ 0 "" 2
 607              	.LVL37:
  51:../../DaisySP//Source/Utility/dsp.h **** }
 608              		.loc 17 51 5 view .LVU119
  51:../../DaisySP//Source/Utility/dsp.h **** }
 609              		.loc 17 51 5 is_stmt 0 view .LVU120
 610              		.thumb
 611              		.syntax unified
 612              	.LBE587:
 613              	.LBE594:
 614              	.LBE607:
 615              	.LBB608:
 616              	.LBI597:
 161:../../DaisySP//Source/Utility/dsp.h **** {
 617              		.loc 17 161 1 is_stmt 1 view .LVU121
 618              	.LBE608:
 619              	.LBE647:
 620              	.LBE658:
 163:../../DaisySP//Source/Utility/dsp.h ****     {
 621              		.loc 17 163 5 view .LVU122
 622              	.LBB659:
 623              	.LBB648:
 624              	.LBB609:
 625              	.LBB605:
 172:../../DaisySP//Source/Utility/dsp.h ****         default: return fclamp(min + in * (max - min), min, max);
 626              		.loc 17 172 9 view .LVU123
 627              		.loc 17 173 9 view .LVU124
 628              		.loc 17 173 18 view .LVU125
 629              		.loc 17 173 48 is_stmt 0 view .LVU126
 630 00e6 37EEE87A 		vsub.f32	s14, s15, s17
 631              		.loc 17 173 31 view .LVU127
 632 00ea A0EE078A 		vfma.f32	s16, s0, s14
 633              	.LVL38:
 634              	.LBB599:
 635              	.LBI599:
  56:../../DaisySP//Source/Utility/dsp.h **** {
 636              		.loc 17 56 14 is_stmt 1 view .LVU128
 637              	.LBE599:
 638              	.LBE605:
 639              	.LBE609:
 640              	.LBE648:
 641              	.LBE659:
  58:../../DaisySP//Source/Utility/dsp.h **** }
 642              		.loc 17 58 5 view .LVU129
 643              	.LBB660:
 644              	.LBB649:
 645              	.LBB610:
 646              	.LBB606:
 647              	.LBB604:
 648              	.LBB600:
 649              	.LBI600:
  32:../../DaisySP//Source/Utility/dsp.h **** {
 650              		.loc 17 32 14 view .LVU130
 651              	.LBB601:
  34:../../DaisySP//Source/Utility/dsp.h **** #ifdef __arm__
ARM GAS  C:\Users\danst\AppData\Local\Temp\ccwBJjMd.s 			page 29


 652              		.loc 17 34 5 view .LVU131
  36:../../DaisySP//Source/Utility/dsp.h **** #else
 653              		.loc 17 36 5 view .LVU132
 654              		.syntax unified
 655              	@ 36 "../../DaisySP//Source/Utility/dsp.h" 1
 656 00ee 88FE288A 		vmaxnm.f32 s16, s16, s17
 657              	@ 0 "" 2
 658              	.LVL39:
  40:../../DaisySP//Source/Utility/dsp.h **** }
 659              		.loc 17 40 5 view .LVU133
  40:../../DaisySP//Source/Utility/dsp.h **** }
 660              		.loc 17 40 5 is_stmt 0 view .LVU134
 661              		.thumb
 662              		.syntax unified
 663              	.LBE601:
 664              	.LBE600:
 665              	.LBB602:
 666              	.LBI602:
  43:../../DaisySP//Source/Utility/dsp.h **** {
 667              		.loc 17 43 14 is_stmt 1 view .LVU135
 668              	.LBB603:
  45:../../DaisySP//Source/Utility/dsp.h **** #ifdef __arm__
 669              		.loc 17 45 5 view .LVU136
  47:../../DaisySP//Source/Utility/dsp.h **** #else
 670              		.loc 17 47 5 view .LVU137
 671              		.syntax unified
 672              	@ 47 "../../DaisySP//Source/Utility/dsp.h" 1
 673 00f2 88FE678A 		vminnm.f32 s16, s16, s15
 674              	@ 0 "" 2
 675              	.LVL40:
  51:../../DaisySP//Source/Utility/dsp.h **** }
 676              		.loc 17 51 5 view .LVU138
  51:../../DaisySP//Source/Utility/dsp.h **** }
 677              		.loc 17 51 5 is_stmt 0 view .LVU139
 678              		.thumb
 679              		.syntax unified
 680              	.LBE603:
 681              	.LBE602:
 682              	.LBE604:
 683              	.LBE606:
 684              	.LBE610:
 685              		.loc 16 98 3 is_stmt 1 view .LVU140
 686              		.loc 16 98 18 is_stmt 0 view .LVU141
 687 00f6 B0EE480A 		vmov.f32	s0, s16
 688              	.LVL41:
 689              		.loc 16 98 18 view .LVU142
 690 00fa FFF7FEFF 		bl	_ZN7daisysp3Svf7SetFreqEf
 691              	.LVL42:
  99:takshaka.cpp  **** 		filter2.SetFreq( filterFreq );
 692              		.loc 16 99 3 is_stmt 1 view .LVU143
 693              		.loc 16 99 18 is_stmt 0 view .LVU144
 694 00fe B0EE480A 		vmov.f32	s0, s16
 695 0102 5A48     		ldr	r0, .L36+48
 696 0104 FFF7FEFF 		bl	_ZN7daisysp3Svf7SetFreqEf
 697              	.LVL43:
 100:takshaka.cpp  **** 		combFilter.SetFreq( filterFreq );
 698              		.loc 16 100 3 is_stmt 1 view .LVU145
ARM GAS  C:\Users\danst\AppData\Local\Temp\ccwBJjMd.s 			page 30


 699              	.LBB611:
 700              	.LBI611:
  21:../../DaisySP//Source/Filters/comb.h **** 
  22:../../DaisySP//Source/Filters/comb.h ****     /** Initializes the Comb module.
  23:../../DaisySP//Source/Filters/comb.h ****         \param sample_rate - The sample rate of the audio engine being run. 
  24:../../DaisySP//Source/Filters/comb.h ****         \param buff - input buffer, kept in either main() or global space
  25:../../DaisySP//Source/Filters/comb.h ****         \param size - size of buff
  26:../../DaisySP//Source/Filters/comb.h ****     */
  27:../../DaisySP//Source/Filters/comb.h ****     void Init(float sample_rate, float* buff, size_t size);
  28:../../DaisySP//Source/Filters/comb.h **** 
  29:../../DaisySP//Source/Filters/comb.h **** 
  30:../../DaisySP//Source/Filters/comb.h ****     /** processes the comb filter
  31:../../DaisySP//Source/Filters/comb.h ****     */
  32:../../DaisySP//Source/Filters/comb.h ****     float Process(float in);
  33:../../DaisySP//Source/Filters/comb.h **** 
  34:../../DaisySP//Source/Filters/comb.h **** 
  35:../../DaisySP//Source/Filters/comb.h ****     /** Sets the period of the comb filter in seconds
  36:../../DaisySP//Source/Filters/comb.h ****     */
  37:../../DaisySP//Source/Filters/comb.h ****     void SetPeriod(float looptime);
  38:../../DaisySP//Source/Filters/comb.h **** 
  39:../../DaisySP//Source/Filters/comb.h ****     /** Sets the frequency of the comb filter in Hz
  40:../../DaisySP//Source/Filters/comb.h ****     */
  41:../../DaisySP//Source/Filters/comb.h ****     inline void SetFreq(float freq)
 701              		.loc 11 41 17 view .LVU146
 702              	.LBB612:
  42:../../DaisySP//Source/Filters/comb.h ****     {
  43:../../DaisySP//Source/Filters/comb.h ****         if(freq > 0)
 703              		.loc 11 43 9 view .LVU147
 704 0108 B5EEC08A 		vcmpe.f32	s16, #0
 705 010c F1EE10FA 		vmrs	APSR_nzcv, FPSCR
 706 0110 04DD     		ble	.L13
  44:../../DaisySP//Source/Filters/comb.h ****         {
  45:../../DaisySP//Source/Filters/comb.h ****             SetPeriod(1.f / freq);
 707              		.loc 11 45 13 view .LVU148
 708              		.loc 11 45 22 is_stmt 0 view .LVU149
 709 0112 88EE880A 		vdiv.f32	s0, s17, s16
 710 0116 5648     		ldr	r0, .L36+52
 711 0118 FFF7FEFF 		bl	_ZN7daisysp4Comb9SetPeriodEf
 712              	.LVL44:
 713              	.L13:
 714              		.loc 11 45 22 view .LVU150
 715              	.LBE612:
 716              	.LBE611:
 101:takshaka.cpp  **** 		float filteredSignal = 0.0;
 717              		.loc 16 101 3 is_stmt 1 view .LVU151
 102:takshaka.cpp  **** 		filter1.Process( mixedSignal );
 718              		.loc 16 102 3 view .LVU152
 719              		.loc 16 102 18 is_stmt 0 view .LVU153
 720 011c 5248     		ldr	r0, .L36+44
 721 011e B0EE490A 		vmov.f32	s0, s18
 722 0122 FFF7FEFF 		bl	_ZN7daisysp3Svf7ProcessEf
 723              	.LVL45:
 103:takshaka.cpp  **** 		float combSignal = combFilter.Process( mixedSignal );
 724              		.loc 16 103 3 is_stmt 1 view .LVU154
 725              		.loc 16 103 40 is_stmt 0 view .LVU155
 726 0126 5248     		ldr	r0, .L36+52
 727 0128 B0EE490A 		vmov.f32	s0, s18
ARM GAS  C:\Users\danst\AppData\Local\Temp\ccwBJjMd.s 			page 31


 728 012c FFF7FEFF 		bl	_ZN7daisysp4Comb7ProcessEf
 729              	.LVL46:
 104:takshaka.cpp  **** 		int currentFilterMode = filterTypeSmartKnob.GetValue() * FILTER_MODES_COUNT;
 730              		.loc 16 104 55 view .LVU156
 731 0130 5048     		ldr	r0, .L36+56
 103:takshaka.cpp  **** 		float combSignal = combFilter.Process( mixedSignal );
 732              		.loc 16 103 40 view .LVU157
 733 0132 B0EE408A 		vmov.f32	s16, s0
 734              	.LVL47:
 735              		.loc 16 104 3 is_stmt 1 view .LVU158
 736              		.loc 16 104 55 is_stmt 0 view .LVU159
 737 0136 FFF7FEFF 		bl	_ZN7daisysp9SmartKnob8GetValueEv
 738              	.LVL48:
 105:takshaka.cpp  **** 		switch( currentFilterMode ){
 739              		.loc 16 105 3 is_stmt 1 view .LVU160
 104:takshaka.cpp  **** 		int currentFilterMode = filterTypeSmartKnob.GetValue() * FILTER_MODES_COUNT;
 740              		.loc 16 104 60 is_stmt 0 view .LVU161
 741 013a BEEECF0A 		vcvt.s32.f32	s0, s0, #2
 742              	.LVL49:
 104:takshaka.cpp  **** 		int currentFilterMode = filterTypeSmartKnob.GetValue() * FILTER_MODES_COUNT;
 743              		.loc 16 104 60 view .LVU162
 744 013e 10EE103A 		vmov	r3, s0	@ int
 745 0142 032B     		cmp	r3, #3
 746 0144 03D8     		bhi	.L15
 747 0146 DFE803F0 		tbb	[pc, r3]
 748              	.L17:
 749 014a 61       		.byte	(.L20-.L17)/2
 750 014b 4B       		.byte	(.L19-.L17)/2
 751 014c 35       		.byte	(.L18-.L17)/2
 752 014d 04       		.byte	(.L35-.L17)/2
 753              		.p2align 1
 754              	.L15:
 106:takshaka.cpp  **** 			case FILTER_MODE_LP:
 107:takshaka.cpp  **** 				filteredSignal = filter1.Low();
 108:takshaka.cpp  **** 				break;
 109:takshaka.cpp  **** 			case FILTER_MODE_HP:
 110:takshaka.cpp  **** 				filteredSignal = filter1.High();
 111:takshaka.cpp  **** 				break;
 112:takshaka.cpp  **** 			case FILTER_MODE_BP:
 113:takshaka.cpp  **** 				filteredSignal = filter1.Band();
 114:takshaka.cpp  **** 				break;
 115:takshaka.cpp  **** 			case FILTER_MODE_COMB:
 116:takshaka.cpp  **** 				filteredSignal = combSignal;
 117:takshaka.cpp  **** 				break;
 118:takshaka.cpp  **** 		}
 119:takshaka.cpp  **** 		if( filterPolesSmartKnob.GetValue() > 0.5 &&
 755              		.loc 16 119 3 is_stmt 1 view .LVU163
 756 014e 9FED4A8A 		vldr.32	s16, .L36+60
 757              	.LVL50:
 758              	.L35:
 759              		.loc 16 119 36 is_stmt 0 view .LVU164
 760 0152 4A48     		ldr	r0, .L36+64
 761 0154 FFF7FEFF 		bl	_ZN7daisysp9SmartKnob8GetValueEv
 762              	.LVL51:
 763              	.L22:
 120:takshaka.cpp  **** 			(
 121:takshaka.cpp  **** 				currentFilterMode == FILTER_MODE_LP ||
ARM GAS  C:\Users\danst\AppData\Local\Temp\ccwBJjMd.s 			page 32


 122:takshaka.cpp  **** 				currentFilterMode == FILTER_MODE_HP ||
 123:takshaka.cpp  **** 				currentFilterMode == FILTER_MODE_BP
 124:takshaka.cpp  **** 			)
 125:takshaka.cpp  **** 		){ // PASS SIGNAL THROUGH SECOND FILTER
 126:takshaka.cpp  **** 			filter2.Process( filteredSignal );
 127:takshaka.cpp  **** 			switch( currentFilterMode ){
 128:takshaka.cpp  **** 				case FILTER_MODE_LP:
 129:takshaka.cpp  **** 					filteredSignal = filter2.Low();
 130:takshaka.cpp  **** 					break;
 131:takshaka.cpp  **** 				case FILTER_MODE_HP:
 132:takshaka.cpp  **** 					filteredSignal = filter2.High();
 133:takshaka.cpp  **** 					break;
 134:takshaka.cpp  **** 				case FILTER_MODE_BP:
 135:takshaka.cpp  **** 					filteredSignal = filter2.Band();
 136:takshaka.cpp  **** 					break;
 137:takshaka.cpp  **** 			}
 138:takshaka.cpp  **** 		}
 139:takshaka.cpp  **** 		float ampMod = ampEnv.Process( envGate ) * ampEnvModSmartKnob.GetValue();
 764              		.loc 16 139 3 is_stmt 1 discriminator 2 view .LVU165
 765              		.loc 16 139 32 is_stmt 0 discriminator 2 view .LVU166
 766 0158 2978     		ldrb	r1, [r5]	@ zero_extendqisi2
 767 015a 4948     		ldr	r0, .L36+68
 768 015c FFF7FEFF 		bl	_ZN7daisysp4Adsr7ProcessEb
 769              	.LVL52:
 770              		.loc 16 139 73 discriminator 2 view .LVU167
 771 0160 4848     		ldr	r0, .L36+72
 772              		.loc 16 139 32 discriminator 2 view .LVU168
 773 0162 B0EE409A 		vmov.f32	s18, s0
 774              	.LVL53:
 775              		.loc 16 139 73 discriminator 2 view .LVU169
 776 0166 FFF7FEFF 		bl	_ZN7daisysp9SmartKnob8GetValueEv
 777              	.LVL54:
 140:takshaka.cpp  **** 		ampMod = fclamp( ampMod + ampSmartKnob.GetValue(), 0.0, 1.0 );
 778              		.loc 16 140 50 discriminator 2 view .LVU170
 779 016a 4748     		ldr	r0, .L36+76
 139:takshaka.cpp  **** 		ampMod = fclamp( ampMod + ampSmartKnob.GetValue(), 0.0, 1.0 );
 780              		.loc 16 139 73 discriminator 2 view .LVU171
 781 016c F0EE408A 		vmov.f32	s17, s0
 782              	.LVL55:
 783              		.loc 16 140 3 is_stmt 1 discriminator 2 view .LVU172
 784              		.loc 16 140 50 is_stmt 0 discriminator 2 view .LVU173
 785 0170 FFF7FEFF 		bl	_ZN7daisysp9SmartKnob8GetValueEv
 786              	.LVL56:
 787              		.loc 16 140 18 discriminator 2 view .LVU174
 788 0174 F0EE407A 		vmov.f32	s15, s0
 789              	.LBB613:
 790              	.LBB614:
 791              	.LBB615:
  47:../../DaisySP//Source/Utility/dsp.h **** #else
 792              		.loc 17 47 5 discriminator 2 view .LVU175
 793 0178 F7EE006A 		vmov.f32	s13, #1.0e+0
 794              	.LBE615:
 795              	.LBE614:
 796              	.LBB617:
 797              	.LBB618:
  36:../../DaisySP//Source/Utility/dsp.h **** #else
 798              		.loc 17 36 5 discriminator 2 view .LVU176
ARM GAS  C:\Users\danst\AppData\Local\Temp\ccwBJjMd.s 			page 33


 799 017c 9FED3E7A 		vldr.32	s14, .L36+60
 800              	.LBE618:
 801              	.LBE617:
 802              	.LBE613:
 141:takshaka.cpp  **** 		out[0][i] = out[1][i] = filteredSignal * ampMod;
 803              		.loc 16 141 13 discriminator 2 view .LVU177
 804 0180 D6E90032 		ldrd	r3, r2, [r6]
 140:takshaka.cpp  **** 		out[0][i] = out[1][i] = filteredSignal * ampMod;
 805              		.loc 16 140 18 discriminator 2 view .LVU178
 806 0184 E9EE287A 		vfma.f32	s15, s18, s17
 807              	.LVL57:
 808              	.LBB624:
 809              	.LBI613:
  56:../../DaisySP//Source/Utility/dsp.h **** {
 810              		.loc 17 56 14 is_stmt 1 discriminator 2 view .LVU179
 811              	.LBE624:
 812              	.LBE649:
 813              	.LBE660:
  58:../../DaisySP//Source/Utility/dsp.h **** }
 814              		.loc 17 58 5 discriminator 2 view .LVU180
 815              	.LBB661:
 816              	.LBB650:
 817              	.LBB625:
 818              	.LBB621:
 819              	.LBI617:
  32:../../DaisySP//Source/Utility/dsp.h **** {
 820              		.loc 17 32 14 discriminator 2 view .LVU181
 821              	.LBB619:
  34:../../DaisySP//Source/Utility/dsp.h **** #ifdef __arm__
 822              		.loc 17 34 5 discriminator 2 view .LVU182
  36:../../DaisySP//Source/Utility/dsp.h **** #else
 823              		.loc 17 36 5 discriminator 2 view .LVU183
 824              	.LBE619:
 825              	.LBE621:
 826              	.LBE625:
 827              		.loc 16 141 25 is_stmt 0 discriminator 2 view .LVU184
 828 0188 02EB8402 		add	r2, r2, r4, lsl #2
 829              		.loc 16 141 13 discriminator 2 view .LVU185
 830 018c 03EB8403 		add	r3, r3, r4, lsl #2
 831              	.LBE650:
  78:takshaka.cpp  **** 		float pounceValue = pounce.Process( envGate );
 832              		.loc 16 78 2 discriminator 2 view .LVU186
 833 0190 0134     		adds	r4, r4, #1
 834              	.LVL58:
 835              	.LBB651:
 836              	.LBB626:
 837              	.LBB622:
 838              	.LBB620:
  36:../../DaisySP//Source/Utility/dsp.h **** #else
 839              		.loc 17 36 5 discriminator 2 view .LVU187
 840              		.syntax unified
 841              	@ 36 "../../DaisySP//Source/Utility/dsp.h" 1
 842 0192 C7FE877A 		vmaxnm.f32 s15, s15, s14
 843              	@ 0 "" 2
 844              	.LVL59:
  40:../../DaisySP//Source/Utility/dsp.h **** }
 845              		.loc 17 40 5 is_stmt 1 discriminator 2 view .LVU188
ARM GAS  C:\Users\danst\AppData\Local\Temp\ccwBJjMd.s 			page 34


  40:../../DaisySP//Source/Utility/dsp.h **** }
 846              		.loc 17 40 5 is_stmt 0 discriminator 2 view .LVU189
 847              		.thumb
 848              		.syntax unified
 849              	.LBE620:
 850              	.LBE622:
 851              	.LBB623:
 852              	.LBI614:
  43:../../DaisySP//Source/Utility/dsp.h **** {
 853              		.loc 17 43 14 is_stmt 1 discriminator 2 view .LVU190
 854              	.LBB616:
  45:../../DaisySP//Source/Utility/dsp.h **** #ifdef __arm__
 855              		.loc 17 45 5 discriminator 2 view .LVU191
  47:../../DaisySP//Source/Utility/dsp.h **** #else
 856              		.loc 17 47 5 discriminator 2 view .LVU192
 857              		.syntax unified
 858              	@ 47 "../../DaisySP//Source/Utility/dsp.h" 1
 859 0196 C7FEE67A 		vminnm.f32 s15, s15, s13
 860              	@ 0 "" 2
 861              	.LVL60:
  51:../../DaisySP//Source/Utility/dsp.h **** }
 862              		.loc 17 51 5 discriminator 2 view .LVU193
  51:../../DaisySP//Source/Utility/dsp.h **** }
 863              		.loc 17 51 5 is_stmt 0 discriminator 2 view .LVU194
 864              		.thumb
 865              		.syntax unified
 866              	.LBE616:
 867              	.LBE623:
 868              	.LBE626:
 869              		.loc 16 141 3 is_stmt 1 discriminator 2 view .LVU195
 870              		.loc 16 141 42 is_stmt 0 discriminator 2 view .LVU196
 871 019a 28EE270A 		vmul.f32	s0, s16, s15
 872              	.LBE651:
  78:takshaka.cpp  **** 		float pounceValue = pounce.Process( envGate );
 873              		.loc 16 78 23 discriminator 2 view .LVU197
 874 019e A742     		cmp	r7, r4
 875              	.LBB652:
 876              		.loc 16 141 25 discriminator 2 view .LVU198
 877 01a0 82ED000A 		vstr.32	s0, [r2]
 878              		.loc 16 141 13 discriminator 2 view .LVU199
 879 01a4 83ED000A 		vstr.32	s0, [r3]
 880              	.LBE652:
  78:takshaka.cpp  **** 		float pounceValue = pounce.Process( envGate );
 881              		.loc 16 78 2 is_stmt 1 discriminator 2 view .LVU200
 882              	.LVL61:
  78:takshaka.cpp  **** 		float pounceValue = pounce.Process( envGate );
 883              		.loc 16 78 23 discriminator 2 view .LVU201
 884 01a8 7FF43DAF 		bne	.L25
 885              	.LBE661:
 142:takshaka.cpp  **** 	}
 143:takshaka.cpp  **** }
 886              		.loc 16 143 1 is_stmt 0 view .LVU202
 887 01ac BDEC048B 		vldm	sp!, {d8-d9}
 888              		.cfi_remember_state
 889              		.cfi_restore 82
 890              		.cfi_restore 83
 891              		.cfi_restore 80
ARM GAS  C:\Users\danst\AppData\Local\Temp\ccwBJjMd.s 			page 35


 892              		.cfi_restore 81
 893              		.cfi_def_cfa_offset 40
 894              	.LVL62:
 895              		.loc 16 143 1 view .LVU203
 896 01b0 BDE8F88F 		pop	{r3, r4, r5, r6, r7, r8, r9, r10, fp, pc}
 897              	.LVL63:
 898              	.L18:
 899              		.cfi_restore_state
 900              	.LBB662:
 901              	.LBB653:
 112:takshaka.cpp  **** 				filteredSignal = filter1.Band();
 902              		.loc 16 112 4 is_stmt 1 view .LVU204
 113:takshaka.cpp  **** 				break;
 903              		.loc 16 113 5 view .LVU205
 904              	.LBB627:
 905              	.LBI627:
  23:../../DaisySP//Source/Filters/svf.h ****     /** Initializes the filter
  24:../../DaisySP//Source/Filters/svf.h ****         float sample_rate - sample rate of the audio engine being run, and the frequency that the P
  25:../../DaisySP//Source/Filters/svf.h ****     */
  26:../../DaisySP//Source/Filters/svf.h ****     void Init(float sample_rate);
  27:../../DaisySP//Source/Filters/svf.h **** 
  28:../../DaisySP//Source/Filters/svf.h **** 
  29:../../DaisySP//Source/Filters/svf.h ****     /** 
  30:../../DaisySP//Source/Filters/svf.h ****         Process the input signal, updating all of the outputs.
  31:../../DaisySP//Source/Filters/svf.h ****     */
  32:../../DaisySP//Source/Filters/svf.h ****     void Process(float in);
  33:../../DaisySP//Source/Filters/svf.h **** 
  34:../../DaisySP//Source/Filters/svf.h **** 
  35:../../DaisySP//Source/Filters/svf.h ****     /** sets the frequency of the cutoff frequency. 
  36:../../DaisySP//Source/Filters/svf.h ****         f must be between 0.0 and sample_rate / 3
  37:../../DaisySP//Source/Filters/svf.h ****     */
  38:../../DaisySP//Source/Filters/svf.h ****     void SetFreq(float f);
  39:../../DaisySP//Source/Filters/svf.h **** 
  40:../../DaisySP//Source/Filters/svf.h ****     /** sets the resonance of the filter.
  41:../../DaisySP//Source/Filters/svf.h ****         Must be between 0.0 and 1.0 to ensure stability.
  42:../../DaisySP//Source/Filters/svf.h ****     */
  43:../../DaisySP//Source/Filters/svf.h ****     void SetRes(float r);
  44:../../DaisySP//Source/Filters/svf.h **** 
  45:../../DaisySP//Source/Filters/svf.h ****     /** sets the drive of the filter 
  46:../../DaisySP//Source/Filters/svf.h ****         affects the response of the resonance of the filter
  47:../../DaisySP//Source/Filters/svf.h ****     */
  48:../../DaisySP//Source/Filters/svf.h ****     void SetDrive(float d);
  49:../../DaisySP//Source/Filters/svf.h ****     /** lowpass output
  50:../../DaisySP//Source/Filters/svf.h ****         \return low pass output of the filter
  51:../../DaisySP//Source/Filters/svf.h ****     */
  52:../../DaisySP//Source/Filters/svf.h ****     inline float Low() { return out_low_; }
  53:../../DaisySP//Source/Filters/svf.h ****     /** highpass output
  54:../../DaisySP//Source/Filters/svf.h ****         \return high pass output of the filter
  55:../../DaisySP//Source/Filters/svf.h ****     */
  56:../../DaisySP//Source/Filters/svf.h ****     inline float High() { return out_high_; }
  57:../../DaisySP//Source/Filters/svf.h ****     /** bandpass output
  58:../../DaisySP//Source/Filters/svf.h ****         \return band pass output of the filter
  59:../../DaisySP//Source/Filters/svf.h ****     */
  60:../../DaisySP//Source/Filters/svf.h ****     inline float Band() { return out_band_; }
 906              		.loc 9 60 18 view .LVU206
 907              	.LBB628:
 908              		.loc 9 60 27 view .LVU207
ARM GAS  C:\Users\danst\AppData\Local\Temp\ccwBJjMd.s 			page 36


 909              		.loc 9 60 34 is_stmt 0 view .LVU208
 910 01b4 2C4B     		ldr	r3, .L36+44
 911              	.LBE628:
 912              	.LBE627:
 119:takshaka.cpp  **** 			(
 913              		.loc 16 119 36 view .LVU209
 914 01b6 3148     		ldr	r0, .L36+64
 915              	.LBB630:
 916              	.LBB629:
 917              		.loc 9 60 34 view .LVU210
 918 01b8 93ED0E8A 		vldr.32	s16, [r3, #56]
 919              	.LVL64:
 920              		.loc 9 60 34 view .LVU211
 921              	.LBE629:
 922              	.LBE630:
 114:takshaka.cpp  **** 			case FILTER_MODE_COMB:
 923              		.loc 16 114 5 is_stmt 1 view .LVU212
 119:takshaka.cpp  **** 			(
 924              		.loc 16 119 3 view .LVU213
 119:takshaka.cpp  **** 			(
 925              		.loc 16 119 36 is_stmt 0 view .LVU214
 926 01bc FFF7FEFF 		bl	_ZN7daisysp9SmartKnob8GetValueEv
 927              	.LVL65:
 119:takshaka.cpp  **** 			(
 928              		.loc 16 119 45 view .LVU215
 929 01c0 F6EE007A 		vmov.f32	s15, #5.0e-1
 930 01c4 B4EEE70A 		vcmpe.f32	s0, s15
 931 01c8 F1EE10FA 		vmrs	APSR_nzcv, FPSCR
 932 01cc C4DD     		ble	.L22
 126:takshaka.cpp  **** 			switch( currentFilterMode ){
 933              		.loc 16 126 4 is_stmt 1 view .LVU216
 126:takshaka.cpp  **** 			switch( currentFilterMode ){
 934              		.loc 16 126 19 is_stmt 0 view .LVU217
 935 01ce B0EE480A 		vmov.f32	s0, s16
 936 01d2 2648     		ldr	r0, .L36+48
 937 01d4 FFF7FEFF 		bl	_ZN7daisysp3Svf7ProcessEf
 938              	.LVL66:
 127:takshaka.cpp  **** 				case FILTER_MODE_LP:
 939              		.loc 16 127 4 is_stmt 1 view .LVU218
 134:takshaka.cpp  **** 					filteredSignal = filter2.Band();
 940              		.loc 16 134 5 view .LVU219
 135:takshaka.cpp  **** 					break;
 941              		.loc 16 135 6 view .LVU220
 942              	.LBB631:
 943              	.LBI631:
 944              		.loc 9 60 18 view .LVU221
 945              	.LBB632:
 946              		.loc 9 60 27 view .LVU222
 947              		.loc 9 60 34 is_stmt 0 view .LVU223
 948 01d8 2448     		ldr	r0, .L36+48
 949 01da 90ED0E8A 		vldr.32	s16, [r0, #56]
 950              	.LVL67:
 951              		.loc 9 60 34 view .LVU224
 952              	.LBE632:
 953              	.LBE631:
 136:takshaka.cpp  **** 			}
 954              		.loc 16 136 6 is_stmt 1 view .LVU225
ARM GAS  C:\Users\danst\AppData\Local\Temp\ccwBJjMd.s 			page 37


 955 01de BBE7     		b	.L22
 956              	.LVL68:
 957              	.L19:
 109:takshaka.cpp  **** 				filteredSignal = filter1.High();
 958              		.loc 16 109 4 view .LVU226
 110:takshaka.cpp  **** 				break;
 959              		.loc 16 110 5 view .LVU227
 960              	.LBB633:
 961              	.LBI633:
  56:../../DaisySP//Source/Filters/svf.h ****     /** bandpass output
 962              		.loc 9 56 18 view .LVU228
 963              	.LBB634:
  56:../../DaisySP//Source/Filters/svf.h ****     /** bandpass output
 964              		.loc 9 56 27 view .LVU229
  56:../../DaisySP//Source/Filters/svf.h ****     /** bandpass output
 965              		.loc 9 56 34 is_stmt 0 view .LVU230
 966 01e0 214B     		ldr	r3, .L36+44
 967              	.LBE634:
 968              	.LBE633:
 119:takshaka.cpp  **** 			(
 969              		.loc 16 119 36 view .LVU231
 970 01e2 2648     		ldr	r0, .L36+64
 971              	.LBB636:
 972              	.LBB635:
  56:../../DaisySP//Source/Filters/svf.h ****     /** bandpass output
 973              		.loc 9 56 34 view .LVU232
 974 01e4 93ED0D8A 		vldr.32	s16, [r3, #52]
 975              	.LVL69:
  56:../../DaisySP//Source/Filters/svf.h ****     /** bandpass output
 976              		.loc 9 56 34 view .LVU233
 977              	.LBE635:
 978              	.LBE636:
 111:takshaka.cpp  **** 			case FILTER_MODE_BP:
 979              		.loc 16 111 5 is_stmt 1 view .LVU234
 119:takshaka.cpp  **** 			(
 980              		.loc 16 119 3 view .LVU235
 119:takshaka.cpp  **** 			(
 981              		.loc 16 119 36 is_stmt 0 view .LVU236
 982 01e8 FFF7FEFF 		bl	_ZN7daisysp9SmartKnob8GetValueEv
 983              	.LVL70:
 119:takshaka.cpp  **** 			(
 984              		.loc 16 119 45 view .LVU237
 985 01ec F6EE007A 		vmov.f32	s15, #5.0e-1
 986 01f0 B4EEE70A 		vcmpe.f32	s0, s15
 987 01f4 F1EE10FA 		vmrs	APSR_nzcv, FPSCR
 988 01f8 AEDD     		ble	.L22
 126:takshaka.cpp  **** 			switch( currentFilterMode ){
 989              		.loc 16 126 4 is_stmt 1 view .LVU238
 126:takshaka.cpp  **** 			switch( currentFilterMode ){
 990              		.loc 16 126 19 is_stmt 0 view .LVU239
 991 01fa B0EE480A 		vmov.f32	s0, s16
 992 01fe 1B48     		ldr	r0, .L36+48
 993 0200 FFF7FEFF 		bl	_ZN7daisysp3Svf7ProcessEf
 994              	.LVL71:
 127:takshaka.cpp  **** 				case FILTER_MODE_LP:
 995              		.loc 16 127 4 is_stmt 1 view .LVU240
 131:takshaka.cpp  **** 					filteredSignal = filter2.High();
ARM GAS  C:\Users\danst\AppData\Local\Temp\ccwBJjMd.s 			page 38


 996              		.loc 16 131 5 view .LVU241
 132:takshaka.cpp  **** 					break;
 997              		.loc 16 132 6 view .LVU242
 998              	.LBB637:
 999              	.LBI637:
  56:../../DaisySP//Source/Filters/svf.h ****     /** bandpass output
 1000              		.loc 9 56 18 view .LVU243
 1001              	.LBB638:
  56:../../DaisySP//Source/Filters/svf.h ****     /** bandpass output
 1002              		.loc 9 56 27 view .LVU244
  56:../../DaisySP//Source/Filters/svf.h ****     /** bandpass output
 1003              		.loc 9 56 34 is_stmt 0 view .LVU245
 1004 0204 1948     		ldr	r0, .L36+48
 1005 0206 90ED0D8A 		vldr.32	s16, [r0, #52]
 1006              	.LVL72:
  56:../../DaisySP//Source/Filters/svf.h ****     /** bandpass output
 1007              		.loc 9 56 34 view .LVU246
 1008              	.LBE638:
 1009              	.LBE637:
 133:takshaka.cpp  **** 				case FILTER_MODE_BP:
 1010              		.loc 16 133 6 is_stmt 1 view .LVU247
 1011 020a A5E7     		b	.L22
 1012              	.LVL73:
 1013              	.L20:
 106:takshaka.cpp  **** 				filteredSignal = filter1.Low();
 1014              		.loc 16 106 4 view .LVU248
 107:takshaka.cpp  **** 				break;
 1015              		.loc 16 107 5 view .LVU249
 1016              	.LBB639:
 1017              	.LBI639:
  52:../../DaisySP//Source/Filters/svf.h ****     /** highpass output
 1018              		.loc 9 52 18 view .LVU250
 1019              	.LBB640:
  52:../../DaisySP//Source/Filters/svf.h ****     /** highpass output
 1020              		.loc 9 52 26 view .LVU251
  52:../../DaisySP//Source/Filters/svf.h ****     /** highpass output
 1021              		.loc 9 52 33 is_stmt 0 view .LVU252
 1022 020c 164B     		ldr	r3, .L36+44
 1023              	.LBE640:
 1024              	.LBE639:
 119:takshaka.cpp  **** 			(
 1025              		.loc 16 119 36 view .LVU253
 1026 020e 1B48     		ldr	r0, .L36+64
 1027              	.LBB642:
 1028              	.LBB641:
  52:../../DaisySP//Source/Filters/svf.h ****     /** highpass output
 1029              		.loc 9 52 33 view .LVU254
 1030 0210 93ED0C8A 		vldr.32	s16, [r3, #48]
 1031              	.LVL74:
  52:../../DaisySP//Source/Filters/svf.h ****     /** highpass output
 1032              		.loc 9 52 33 view .LVU255
 1033              	.LBE641:
 1034              	.LBE642:
 108:takshaka.cpp  **** 			case FILTER_MODE_HP:
 1035              		.loc 16 108 5 is_stmt 1 view .LVU256
 119:takshaka.cpp  **** 			(
 1036              		.loc 16 119 3 view .LVU257
ARM GAS  C:\Users\danst\AppData\Local\Temp\ccwBJjMd.s 			page 39


 119:takshaka.cpp  **** 			(
 1037              		.loc 16 119 36 is_stmt 0 view .LVU258
 1038 0214 FFF7FEFF 		bl	_ZN7daisysp9SmartKnob8GetValueEv
 1039              	.LVL75:
 119:takshaka.cpp  **** 			(
 1040              		.loc 16 119 45 view .LVU259
 1041 0218 F6EE007A 		vmov.f32	s15, #5.0e-1
 1042 021c B4EEE70A 		vcmpe.f32	s0, s15
 1043 0220 F1EE10FA 		vmrs	APSR_nzcv, FPSCR
 1044 0224 98DD     		ble	.L22
 126:takshaka.cpp  **** 			switch( currentFilterMode ){
 1045              		.loc 16 126 4 is_stmt 1 view .LVU260
 126:takshaka.cpp  **** 			switch( currentFilterMode ){
 1046              		.loc 16 126 19 is_stmt 0 view .LVU261
 1047 0226 B0EE480A 		vmov.f32	s0, s16
 1048 022a 1048     		ldr	r0, .L36+48
 1049 022c FFF7FEFF 		bl	_ZN7daisysp3Svf7ProcessEf
 1050              	.LVL76:
 127:takshaka.cpp  **** 				case FILTER_MODE_LP:
 1051              		.loc 16 127 4 is_stmt 1 view .LVU262
 128:takshaka.cpp  **** 					filteredSignal = filter2.Low();
 1052              		.loc 16 128 5 view .LVU263
 129:takshaka.cpp  **** 					break;
 1053              		.loc 16 129 6 view .LVU264
 1054              	.LBB643:
 1055              	.LBI643:
  52:../../DaisySP//Source/Filters/svf.h ****     /** highpass output
 1056              		.loc 9 52 18 view .LVU265
 1057              	.LBB644:
  52:../../DaisySP//Source/Filters/svf.h ****     /** highpass output
 1058              		.loc 9 52 26 view .LVU266
  52:../../DaisySP//Source/Filters/svf.h ****     /** highpass output
 1059              		.loc 9 52 33 is_stmt 0 view .LVU267
 1060 0230 0E48     		ldr	r0, .L36+48
 1061 0232 90ED0C8A 		vldr.32	s16, [r0, #48]
 1062              	.LVL77:
  52:../../DaisySP//Source/Filters/svf.h ****     /** highpass output
 1063              		.loc 9 52 33 view .LVU268
 1064              	.LBE644:
 1065              	.LBE643:
 130:takshaka.cpp  **** 				case FILTER_MODE_HP:
 1066              		.loc 16 130 6 is_stmt 1 view .LVU269
 1067 0236 8FE7     		b	.L22
 1068              	.LVL78:
 1069              	.L32:
 1070              		.cfi_def_cfa_offset 0
 1071              		.cfi_restore 3
 1072              		.cfi_restore 4
 1073              		.cfi_restore 5
 1074              		.cfi_restore 6
 1075              		.cfi_restore 7
 1076              		.cfi_restore 8
 1077              		.cfi_restore 9
 1078              		.cfi_restore 10
 1079              		.cfi_restore 11
 1080              		.cfi_restore 14
 1081              		.cfi_restore 80
ARM GAS  C:\Users\danst\AppData\Local\Temp\ccwBJjMd.s 			page 40


 1082              		.cfi_restore 81
 1083              		.cfi_restore 82
 1084              		.cfi_restore 83
 130:takshaka.cpp  **** 				case FILTER_MODE_HP:
 1085              		.loc 16 130 6 is_stmt 0 view .LVU270
 1086 0238 7047     		bx	lr
 1087              	.L37:
 1088 023a 00BF     		.align	2
 1089              	.L36:
 1090 023c 00000000 		.word	.LANCHOR0
 1091 0240 00000000 		.word	.LANCHOR1
 1092 0244 00000000 		.word	.LANCHOR3
 1093 0248 00000000 		.word	.LANCHOR6
 1094 024c CDCC4C3F 		.word	1061997773
 1095 0250 CCCC4C3E 		.word	1045220556
 1096 0254 00000000 		.word	.LANCHOR7
 1097 0258 00000000 		.word	.LANCHOR8
 1098 025c 00000000 		.word	.LANCHOR9
 1099 0260 00000000 		.word	.LANCHOR10
 1100 0264 00409C46 		.word	1184645120
 1101 0268 00000000 		.word	.LANCHOR12
 1102 026c 00000000 		.word	.LANCHOR13
 1103 0270 00000000 		.word	.LANCHOR14
 1104 0274 00000000 		.word	.LANCHOR15
 1105 0278 00000000 		.word	0
 1106 027c 00000000 		.word	.LANCHOR16
 1107 0280 00000000 		.word	.LANCHOR17
 1108 0284 00000000 		.word	.LANCHOR18
 1109 0288 00000000 		.word	.LANCHOR19
 1110 028c 00000000 		.word	.LANCHOR2
 1111 0290 00000000 		.word	.LANCHOR4
 1112 0294 00000000 		.word	.LANCHOR5
 1113 0298 00000000 		.word	.LANCHOR11
 1114              	.LBE653:
 1115              	.LBE662:
 1116              		.cfi_endproc
 1117              	.LFE4788:
 1119              		.section	.text._ZN7daisysp11SuperSawOscC2Ev,"axG",%progbits,_ZN7daisysp11SuperSawOscC5Ev,comdat
 1120              		.align	1
 1121              		.p2align 2,,3
 1122              		.weak	_ZN7daisysp11SuperSawOscC2Ev
 1123              		.syntax unified
 1124              		.thumb
 1125              		.thumb_func
 1126              		.fpu fpv5-d16
 1128              	_ZN7daisysp11SuperSawOscC2Ev:
 1129              	.LVL79:
 1130              	.LFB4780:
  20:SuperSawOsc.h ****             ~SuperSawOsc(){}
 1131              		.loc 12 20 13 is_stmt 1 view -0
 1132              		.cfi_startproc
 1133              		@ args = 0, pretend = 0, frame = 0
 1134              		@ frame_needed = 0, uses_anonymous_args = 0
  20:SuperSawOsc.h ****             ~SuperSawOsc(){}
 1135              		.loc 12 20 13 is_stmt 0 view .LVU272
 1136 0000 2DE9F041 		push	{r4, r5, r6, r7, r8, lr}
 1137              		.cfi_def_cfa_offset 24
ARM GAS  C:\Users\danst\AppData\Local\Temp\ccwBJjMd.s 			page 41


 1138              		.cfi_offset 4, -24
 1139              		.cfi_offset 5, -20
 1140              		.cfi_offset 6, -16
 1141              		.cfi_offset 7, -12
 1142              		.cfi_offset 8, -8
 1143              		.cfi_offset 14, -4
 1144              	.LBB663:
  20:SuperSawOsc.h ****             ~SuperSawOsc(){}
 1145              		.loc 12 20 26 view .LVU273
 1146 0004 144F     		ldr	r7, .L40
 1147              	.LBE663:
  20:SuperSawOsc.h ****             ~SuperSawOsc(){}
 1148              		.loc 12 20 13 view .LVU274
 1149 0006 0646     		mov	r6, r0
 1150              	.LBB665:
  20:SuperSawOsc.h ****             ~SuperSawOsc(){}
 1151              		.loc 12 20 26 view .LVU275
 1152 0008 00F12C04 		add	r4, r0, #44
 1153 000c 00F1480C 		add	ip, r0, #72
 1154 0010 3D46     		mov	r5, r7
 1155 0012 07F11C0E 		add	lr, r7, #28
 1156 0016 4FF04408 		mov	r8, #68
 1157 001a 0FCD     		ldmia	r5!, {r0, r1, r2, r3}
 1158              	.LVL80:
  20:SuperSawOsc.h ****             ~SuperSawOsc(){}
 1159              		.loc 12 20 26 view .LVU276
 1160 001c 0FC4     		stmia	r4!, {r0, r1, r2, r3}
 1161 001e 95E80700 		ldm	r5, {r0, r1, r2}
 1162 0022 84E80700 		stm	r4, {r0, r1, r2}
 1163 0026 BEE80F00 		ldmia	lr!, {r0, r1, r2, r3}
 1164 002a ACE80F00 		stmia	ip!, {r0, r1, r2, r3}
 1165 002e 9EE80700 		ldm	lr, {r0, r1, r2}
 1166 0032 8CE80700 		stm	ip, {r0, r1, r2}
 1167 0036 07F13801 		add	r1, r7, #56
 1168 003a 4246     		mov	r2, r8
 1169 003c 06F16400 		add	r0, r6, #100
 1170 0040 FFF7FEFF 		bl	memcpy
 1171              	.LVL81:
 1172 0044 4246     		mov	r2, r8
 1173 0046 07F17C01 		add	r1, r7, #124
 1174 004a 06F1A800 		add	r0, r6, #168
 1175 004e FFF7FEFF 		bl	memcpy
 1176              	.LVL82:
  20:SuperSawOsc.h ****             ~SuperSawOsc(){}
 1177              		.loc 12 20 26 is_stmt 1 view .LVU277
 1178              	.LBB664:
 1179              	.LBI664:
  22:../../DaisySP//Source/Filters/atone.h ****     ~ATone() {}
 1180              		.loc 13 22 5 view .LVU278
  22:../../DaisySP//Source/Filters/atone.h ****     ~ATone() {}
 1181              		.loc 13 22 5 is_stmt 0 view .LVU279
 1182              	.LBE664:
 1183              	.LBE665:
  20:SuperSawOsc.h ****             ~SuperSawOsc(){}
 1184              		.loc 12 20 27 view .LVU280
 1185 0052 3046     		mov	r0, r6
 1186 0054 BDE8F081 		pop	{r4, r5, r6, r7, r8, pc}
ARM GAS  C:\Users\danst\AppData\Local\Temp\ccwBJjMd.s 			page 42


 1187              	.LVL83:
 1188              	.L41:
  20:SuperSawOsc.h ****             ~SuperSawOsc(){}
 1189              		.loc 12 20 27 view .LVU281
 1190              		.align	2
 1191              	.L40:
 1192 0058 00000000 		.word	.LANCHOR20
 1193              		.cfi_endproc
 1194              	.LFE4780:
 1196              		.weak	_ZN7daisysp11SuperSawOscC1Ev
 1197              		.thumb_set _ZN7daisysp11SuperSawOscC1Ev,_ZN7daisysp11SuperSawOscC2Ev
 1198              		.section	.text._Z11handleKnobsv,"ax",%progbits
 1199              		.align	1
 1200              		.p2align 2,,3
 1201              		.global	_Z11handleKnobsv
 1202              		.syntax unified
 1203              		.thumb
 1204              		.thumb_func
 1205              		.fpu fpv5-d16
 1207              	_Z11handleKnobsv:
 1208              	.LFB4790:
 144:takshaka.cpp  **** void handleMidi(){
 145:takshaka.cpp  **** 	midi.Listen();
 146:takshaka.cpp  **** 	while( midi.HasEvents() ){
 147:takshaka.cpp  **** 		auto midiEvent = midi.PopEvent();
 148:takshaka.cpp  **** 		if( midiEvent.type == NoteOn ){
 149:takshaka.cpp  **** 			auto noteMessage = midiEvent.AsNoteOn();
 150:takshaka.cpp  **** 			if( noteMessage.velocity != 0 ){
 151:takshaka.cpp  **** 				midiNote = noteMessage.note;
 152:takshaka.cpp  **** 				envGate = true;
 153:takshaka.cpp  **** 			} else envGate = false;
 154:takshaka.cpp  **** 		} else if( midiEvent.type == NoteOff ) envGate = false;
 155:takshaka.cpp  **** 	}
 156:takshaka.cpp  **** }
 157:takshaka.cpp  **** void handleKnobs(){		
 1209              		.loc 16 157 19 is_stmt 1 view -0
 1210              		.cfi_startproc
 1211              		@ args = 0, pretend = 0, frame = 8
 1212              		@ frame_needed = 0, uses_anonymous_args = 0
 158:takshaka.cpp  **** 	float growlValue = 1.0 - hw.adc.GetFloat( growlKnob );
 1213              		.loc 16 158 2 view .LVU283
 157:takshaka.cpp  **** 	float growlValue = 1.0 - hw.adc.GetFloat( growlKnob );
 1214              		.loc 16 157 19 is_stmt 0 view .LVU284
 1215 0000 10B5     		push	{r4, lr}
 1216              		.cfi_def_cfa_offset 8
 1217              		.cfi_offset 4, -8
 1218              		.cfi_offset 14, -4
 1219              		.loc 16 158 42 view .LVU285
 1220 0002 534C     		ldr	r4, .L44
 1221 0004 0221     		movs	r1, #2
 157:takshaka.cpp  **** 	float growlValue = 1.0 - hw.adc.GetFloat( growlKnob );
 1222              		.loc 16 157 19 view .LVU286
 1223 0006 2DED028B 		vpush.64	{d8}
 1224              		.cfi_def_cfa_offset 16
 1225              		.cfi_offset 80, -16
 1226              		.cfi_offset 81, -12
 1227 000a B7EE008A 		vmov.f32	s16, #1.0e+0
ARM GAS  C:\Users\danst\AppData\Local\Temp\ccwBJjMd.s 			page 43


 1228 000e 82B0     		sub	sp, sp, #8
 1229              		.cfi_def_cfa_offset 24
 1230              		.loc 16 158 42 view .LVU287
 1231 0010 2046     		mov	r0, r4
 1232 0012 FFF7FEFF 		bl	_ZNK5daisy9AdcHandle8GetFloatEh
 1233              	.LVL84:
 159:takshaka.cpp  **** 	subMixSmartKnob.Update( growlValue );
 1234              		.loc 16 159 24 view .LVU288
 1235 0016 4F48     		ldr	r0, .L44+4
 1236 0018 38EE400A 		vsub.f32	s0, s16, s0
 1237              	.LVL85:
 1238              		.loc 16 159 2 is_stmt 1 view .LVU289
 1239              		.loc 16 159 24 is_stmt 0 view .LVU290
 1240 001c 8DED010A 		vstr.32	s0, [sp, #4]	@ int
 1241 0020 FFF7FEFF 		bl	_ZN7daisysp9SmartKnob6UpdateEf
 1242              	.LVL86:
 160:takshaka.cpp  **** 	subTypeSmartKnob.Update( growlValue );
 1243              		.loc 16 160 2 is_stmt 1 view .LVU291
 1244              		.loc 16 160 25 is_stmt 0 view .LVU292
 1245 0024 9DED010A 		vldr.32	s0, [sp, #4]	@ int
 1246 0028 4B48     		ldr	r0, .L44+8
 1247 002a FFF7FEFF 		bl	_ZN7daisysp9SmartKnob6UpdateEf
 1248              	.LVL87:
 161:takshaka.cpp  **** 	float howlKnobValue = 1.0 - hw.adc.GetFloat( howlKnob );
 1249              		.loc 16 161 2 is_stmt 1 view .LVU293
 1250              		.loc 16 161 45 is_stmt 0 view .LVU294
 1251 002e 0321     		movs	r1, #3
 1252 0030 2046     		mov	r0, r4
 1253 0032 FFF7FEFF 		bl	_ZNK5daisy9AdcHandle8GetFloatEh
 1254              	.LVL88:
 1255 0036 38EE400A 		vsub.f32	s0, s16, s0
 1256              	.LVL89:
 162:takshaka.cpp  **** 	filterCutoffSmartKnob.Update( howlKnobValue );
 1257              		.loc 16 162 2 is_stmt 1 view .LVU295
 1258              		.loc 16 162 30 is_stmt 0 view .LVU296
 1259 003a 4848     		ldr	r0, .L44+12
 1260 003c 8DED010A 		vstr.32	s0, [sp, #4]	@ int
 1261 0040 FFF7FEFF 		bl	_ZN7daisysp9SmartKnob6UpdateEf
 1262              	.LVL90:
 163:takshaka.cpp  **** 	filterTypeSmartKnob.Update( howlKnobValue );
 1263              		.loc 16 163 2 is_stmt 1 view .LVU297
 1264              		.loc 16 163 28 is_stmt 0 view .LVU298
 1265 0044 9DED010A 		vldr.32	s0, [sp, #4]	@ int
 1266 0048 4548     		ldr	r0, .L44+16
 1267 004a FFF7FEFF 		bl	_ZN7daisysp9SmartKnob6UpdateEf
 1268              	.LVL91:
 164:takshaka.cpp  **** 	float resKnobValue = 1.0 - hw.adc.GetFloat( resKnob );
 1269              		.loc 16 164 2 is_stmt 1 view .LVU299
 1270              		.loc 16 164 44 is_stmt 0 view .LVU300
 1271 004e 0421     		movs	r1, #4
 1272 0050 2046     		mov	r0, r4
 1273 0052 FFF7FEFF 		bl	_ZNK5daisy9AdcHandle8GetFloatEh
 1274              	.LVL92:
 1275 0056 38EE400A 		vsub.f32	s0, s16, s0
 1276              	.LVL93:
 165:takshaka.cpp  **** 	filterResSmartKnob.Update( resKnobValue );
 1277              		.loc 16 165 2 is_stmt 1 view .LVU301
ARM GAS  C:\Users\danst\AppData\Local\Temp\ccwBJjMd.s 			page 44


 1278              		.loc 16 165 27 is_stmt 0 view .LVU302
 1279 005a 4248     		ldr	r0, .L44+20
 1280 005c 8DED010A 		vstr.32	s0, [sp, #4]	@ int
 1281 0060 FFF7FEFF 		bl	_ZN7daisysp9SmartKnob6UpdateEf
 1282              	.LVL94:
 166:takshaka.cpp  **** 	filterPolesSmartKnob.Update( resKnobValue );
 1283              		.loc 16 166 2 is_stmt 1 view .LVU303
 1284              		.loc 16 166 29 is_stmt 0 view .LVU304
 1285 0064 9DED010A 		vldr.32	s0, [sp, #4]	@ int
 1286 0068 3F48     		ldr	r0, .L44+24
 1287 006a FFF7FEFF 		bl	_ZN7daisysp9SmartKnob6UpdateEf
 1288              	.LVL95:
 167:takshaka.cpp  **** 	float attackKnobValue = 1.0 - hw.adc.GetFloat( attackKnob );
 1289              		.loc 16 167 2 is_stmt 1 view .LVU305
 1290              		.loc 16 167 47 is_stmt 0 view .LVU306
 1291 006e 0621     		movs	r1, #6
 1292 0070 2046     		mov	r0, r4
 1293 0072 FFF7FEFF 		bl	_ZNK5daisy9AdcHandle8GetFloatEh
 1294              	.LVL96:
 1295 0076 38EE400A 		vsub.f32	s0, s16, s0
 1296              	.LVL97:
 168:takshaka.cpp  **** 	pounceAttackSmartKnob.Update( attackKnobValue );
 1297              		.loc 16 168 2 is_stmt 1 view .LVU307
 1298              		.loc 16 168 30 is_stmt 0 view .LVU308
 1299 007a 3C48     		ldr	r0, .L44+28
 1300 007c 8DED010A 		vstr.32	s0, [sp, #4]	@ int
 1301 0080 FFF7FEFF 		bl	_ZN7daisysp9SmartKnob6UpdateEf
 1302              	.LVL98:
 169:takshaka.cpp  **** 	ampEnvAttackSmartKnob.Update( attackKnobValue );
 1303              		.loc 16 169 2 is_stmt 1 view .LVU309
 1304              		.loc 16 169 30 is_stmt 0 view .LVU310
 1305 0084 9DED010A 		vldr.32	s0, [sp, #4]	@ int
 1306 0088 3948     		ldr	r0, .L44+32
 1307 008a FFF7FEFF 		bl	_ZN7daisysp9SmartKnob6UpdateEf
 1308              	.LVL99:
 170:takshaka.cpp  **** 	float sustainKnobValue = 1.0 - hw.adc.GetFloat( sustainKnob );
 1309              		.loc 16 170 2 is_stmt 1 view .LVU311
 1310              		.loc 16 170 48 is_stmt 0 view .LVU312
 1311 008e 0721     		movs	r1, #7
 1312 0090 2046     		mov	r0, r4
 1313 0092 FFF7FEFF 		bl	_ZNK5daisy9AdcHandle8GetFloatEh
 1314              	.LVL100:
 1315 0096 38EE400A 		vsub.f32	s0, s16, s0
 1316              	.LVL101:
 171:takshaka.cpp  **** 	pounceSustainSmartKnob.Update( sustainKnobValue );
 1317              		.loc 16 171 2 is_stmt 1 view .LVU313
 1318              		.loc 16 171 31 is_stmt 0 view .LVU314
 1319 009a 3648     		ldr	r0, .L44+36
 1320 009c 8DED010A 		vstr.32	s0, [sp, #4]	@ int
 1321 00a0 FFF7FEFF 		bl	_ZN7daisysp9SmartKnob6UpdateEf
 1322              	.LVL102:
 172:takshaka.cpp  **** 	ampEnvSustainSmartKnob.Update( sustainKnobValue );
 1323              		.loc 16 172 2 is_stmt 1 view .LVU315
 1324              		.loc 16 172 31 is_stmt 0 view .LVU316
 1325 00a4 9DED010A 		vldr.32	s0, [sp, #4]	@ int
 1326 00a8 3348     		ldr	r0, .L44+40
 1327 00aa FFF7FEFF 		bl	_ZN7daisysp9SmartKnob6UpdateEf
ARM GAS  C:\Users\danst\AppData\Local\Temp\ccwBJjMd.s 			page 45


 1328              	.LVL103:
 173:takshaka.cpp  **** 	float decayKnobValue = 1.0 - hw.adc.GetFloat( decayKnob );
 1329              		.loc 16 173 2 is_stmt 1 view .LVU317
 1330              		.loc 16 173 46 is_stmt 0 view .LVU318
 1331 00ae 0821     		movs	r1, #8
 1332 00b0 2046     		mov	r0, r4
 1333 00b2 FFF7FEFF 		bl	_ZNK5daisy9AdcHandle8GetFloatEh
 1334              	.LVL104:
 1335 00b6 38EE400A 		vsub.f32	s0, s16, s0
 1336              	.LVL105:
 174:takshaka.cpp  **** 	pounceDecaySmartKnob.Update( decayKnobValue );
 1337              		.loc 16 174 2 is_stmt 1 view .LVU319
 1338              		.loc 16 174 29 is_stmt 0 view .LVU320
 1339 00ba 3048     		ldr	r0, .L44+44
 1340 00bc 8DED010A 		vstr.32	s0, [sp, #4]	@ int
 1341 00c0 FFF7FEFF 		bl	_ZN7daisysp9SmartKnob6UpdateEf
 1342              	.LVL106:
 175:takshaka.cpp  **** 	ampEnvDecaySmartKnob.Update( decayKnobValue );
 1343              		.loc 16 175 2 is_stmt 1 view .LVU321
 1344              		.loc 16 175 29 is_stmt 0 view .LVU322
 1345 00c4 9DED010A 		vldr.32	s0, [sp, #4]	@ int
 1346 00c8 2D48     		ldr	r0, .L44+48
 1347 00ca FFF7FEFF 		bl	_ZN7daisysp9SmartKnob6UpdateEf
 1348              	.LVL107:
 176:takshaka.cpp  **** 	float clawsKnobValue = 1.0 - hw.adc.GetFloat( clawsKnob );
 1349              		.loc 16 176 2 is_stmt 1 view .LVU323
 1350              		.loc 16 176 46 is_stmt 0 view .LVU324
 1351 00ce 0921     		movs	r1, #9
 1352 00d0 2046     		mov	r0, r4
 1353 00d2 FFF7FEFF 		bl	_ZNK5daisy9AdcHandle8GetFloatEh
 1354              	.LVL108:
 1355 00d6 38EE400A 		vsub.f32	s0, s16, s0
 1356              	.LVL109:
 177:takshaka.cpp  **** 	ampSmartKnob.Update( clawsKnobValue );
 1357              		.loc 16 177 2 is_stmt 1 view .LVU325
 1358              		.loc 16 177 21 is_stmt 0 view .LVU326
 1359 00da 2A48     		ldr	r0, .L44+52
 1360 00dc 8DED010A 		vstr.32	s0, [sp, #4]	@ int
 1361 00e0 FFF7FEFF 		bl	_ZN7daisysp9SmartKnob6UpdateEf
 1362              	.LVL110:
 178:takshaka.cpp  **** 	ampEnvModSmartKnob.Update( clawsKnobValue );
 1363              		.loc 16 178 2 is_stmt 1 view .LVU327
 1364              		.loc 16 178 27 is_stmt 0 view .LVU328
 1365 00e4 9DED010A 		vldr.32	s0, [sp, #4]	@ int
 1366 00e8 2748     		ldr	r0, .L44+56
 1367 00ea FFF7FEFF 		bl	_ZN7daisysp9SmartKnob6UpdateEf
 1368              	.LVL111:
 179:takshaka.cpp  **** 	driftValue = 1.0 - hw.adc.GetFloat( driftKnob );
 1369              		.loc 16 179 2 is_stmt 1 view .LVU329
 1370              		.loc 16 179 36 is_stmt 0 view .LVU330
 1371 00ee 2046     		mov	r0, r4
 1372 00f0 0021     		movs	r1, #0
 1373 00f2 FFF7FEFF 		bl	_ZNK5daisy9AdcHandle8GetFloatEh
 1374              	.LVL112:
 1375              		.loc 16 179 13 view .LVU331
 1376 00f6 38EE400A 		vsub.f32	s0, s16, s0
 1377 00fa 244B     		ldr	r3, .L44+60
ARM GAS  C:\Users\danst\AppData\Local\Temp\ccwBJjMd.s 			page 46


 180:takshaka.cpp  **** 	shiftValue = 1.0 - hw.adc.GetFloat( shiftKnob );
 1378              		.loc 16 180 36 view .LVU332
 1379 00fc 2046     		mov	r0, r4
 1380 00fe 0121     		movs	r1, #1
 179:takshaka.cpp  **** 	driftValue = 1.0 - hw.adc.GetFloat( driftKnob );
 1381              		.loc 16 179 13 view .LVU333
 1382 0100 83ED000A 		vstr.32	s0, [r3]
 1383              		.loc 16 180 2 is_stmt 1 view .LVU334
 1384              		.loc 16 180 36 is_stmt 0 view .LVU335
 1385 0104 FFF7FEFF 		bl	_ZNK5daisy9AdcHandle8GetFloatEh
 1386              	.LVL113:
 1387              		.loc 16 180 13 view .LVU336
 1388 0108 38EE400A 		vsub.f32	s0, s16, s0
 1389 010c 204B     		ldr	r3, .L44+64
 181:takshaka.cpp  **** 	driveValue = 1.0 - hw.adc.GetFloat( driveKnob );
 1390              		.loc 16 181 36 view .LVU337
 1391 010e 2046     		mov	r0, r4
 1392 0110 0521     		movs	r1, #5
 180:takshaka.cpp  **** 	shiftValue = 1.0 - hw.adc.GetFloat( shiftKnob );
 1393              		.loc 16 180 13 view .LVU338
 1394 0112 83ED000A 		vstr.32	s0, [r3]
 1395              		.loc 16 181 2 is_stmt 1 view .LVU339
 1396              		.loc 16 181 36 is_stmt 0 view .LVU340
 1397 0116 FFF7FEFF 		bl	_ZNK5daisy9AdcHandle8GetFloatEh
 1398              	.LVL114:
 1399              		.loc 16 181 13 view .LVU341
 1400 011a 38EE400A 		vsub.f32	s0, s16, s0
 1401 011e 1D4B     		ldr	r3, .L44+68
 182:takshaka.cpp  **** 	slitherValue = 1.0 - hw.adc.GetFloat( slitherKnob );
 1402              		.loc 16 182 38 view .LVU342
 1403 0120 2046     		mov	r0, r4
 1404 0122 0A21     		movs	r1, #10
 181:takshaka.cpp  **** 	driveValue = 1.0 - hw.adc.GetFloat( driveKnob );
 1405              		.loc 16 181 13 view .LVU343
 1406 0124 83ED000A 		vstr.32	s0, [r3]
 1407              		.loc 16 182 2 is_stmt 1 view .LVU344
 1408              		.loc 16 182 38 is_stmt 0 view .LVU345
 1409 0128 FFF7FEFF 		bl	_ZNK5daisy9AdcHandle8GetFloatEh
 1410              	.LVL115:
 1411              		.loc 16 182 15 view .LVU346
 1412 012c 38EE400A 		vsub.f32	s0, s16, s0
 1413 0130 194B     		ldr	r3, .L44+72
 183:takshaka.cpp  **** 	slitherDriftModValue = 1.0 - hw.adc.GetFloat( slitherDriftModKnob );
 1414              		.loc 16 183 46 view .LVU347
 1415 0132 0B21     		movs	r1, #11
 1416 0134 2046     		mov	r0, r4
 182:takshaka.cpp  **** 	slitherValue = 1.0 - hw.adc.GetFloat( slitherKnob );
 1417              		.loc 16 182 15 view .LVU348
 1418 0136 83ED000A 		vstr.32	s0, [r3]
 1419              		.loc 16 183 2 is_stmt 1 view .LVU349
 1420              		.loc 16 183 46 is_stmt 0 view .LVU350
 1421 013a FFF7FEFF 		bl	_ZNK5daisy9AdcHandle8GetFloatEh
 1422              	.LVL116:
 1423              		.loc 16 183 23 view .LVU351
 1424 013e 38EE400A 		vsub.f32	s0, s16, s0
 1425 0142 164B     		ldr	r3, .L44+76
 1426 0144 83ED000A 		vstr.32	s0, [r3]
ARM GAS  C:\Users\danst\AppData\Local\Temp\ccwBJjMd.s 			page 47


 184:takshaka.cpp  **** }
 1427              		.loc 16 184 1 view .LVU352
 1428 0148 02B0     		add	sp, sp, #8
 1429              		.cfi_def_cfa_offset 16
 1430              		@ sp needed
 1431 014a BDEC028B 		vldm	sp!, {d8}
 1432              		.cfi_restore 80
 1433              		.cfi_restore 81
 1434              		.cfi_def_cfa_offset 8
 1435              		.loc 16 184 1 view .LVU353
 1436 014e 10BD     		pop	{r4, pc}
 1437              	.L45:
 1438              		.align	2
 1439              	.L44:
 1440 0150 18000000 		.word	.LANCHOR21+24
 1441 0154 00000000 		.word	.LANCHOR6
 1442 0158 00000000 		.word	.LANCHOR22
 1443 015c 00000000 		.word	.LANCHOR10
 1444 0160 00000000 		.word	.LANCHOR15
 1445 0164 00000000 		.word	.LANCHOR23
 1446 0168 00000000 		.word	.LANCHOR16
 1447 016c 00000000 		.word	.LANCHOR24
 1448 0170 00000000 		.word	.LANCHOR25
 1449 0174 00000000 		.word	.LANCHOR26
 1450 0178 00000000 		.word	.LANCHOR27
 1451 017c 00000000 		.word	.LANCHOR28
 1452 0180 00000000 		.word	.LANCHOR29
 1453 0184 00000000 		.word	.LANCHOR19
 1454 0188 00000000 		.word	.LANCHOR18
 1455 018c 00000000 		.word	.LANCHOR2
 1456 0190 00000000 		.word	.LANCHOR5
 1457 0194 00000000 		.word	.LANCHOR30
 1458 0198 00000000 		.word	.LANCHOR4
 1459 019c 00000000 		.word	.LANCHOR31
 1460              		.cfi_endproc
 1461              	.LFE4790:
 1463              		.section	.text._Z16updateSubOscWavev,"ax",%progbits
 1464              		.align	1
 1465              		.p2align 2,,3
 1466              		.global	_Z16updateSubOscWavev
 1467              		.syntax unified
 1468              		.thumb
 1469              		.thumb_func
 1470              		.fpu fpv5-d16
 1472              	_Z16updateSubOscWavev:
 1473              	.LFB4791:
 185:takshaka.cpp  **** void updateSubOscWave(){
 1474              		.loc 16 185 24 is_stmt 1 view -0
 1475              		.cfi_startproc
 1476              		@ args = 0, pretend = 0, frame = 0
 1477              		@ frame_needed = 0, uses_anonymous_args = 0
 186:takshaka.cpp  **** 	int subWave = subTypeSmartKnob.GetValue() * SUBOSC_WAVEFORMS_COUNT ;  // int range 0 - 2
 1478              		.loc 16 186 2 view .LVU355
 185:takshaka.cpp  **** void updateSubOscWave(){
 1479              		.loc 16 185 24 is_stmt 0 view .LVU356
 1480 0000 08B5     		push	{r3, lr}
 1481              		.cfi_def_cfa_offset 8
ARM GAS  C:\Users\danst\AppData\Local\Temp\ccwBJjMd.s 			page 48


 1482              		.cfi_offset 3, -8
 1483              		.cfi_offset 14, -4
 1484              		.loc 16 186 41 view .LVU357
 1485 0002 1E48     		ldr	r0, .L56
 1486 0004 FFF7FEFF 		bl	_ZN7daisysp9SmartKnob8GetValueEv
 1487              	.LVL117:
 187:takshaka.cpp  **** 	switch( subWave ){
 1488              		.loc 16 187 2 is_stmt 1 view .LVU358
 186:takshaka.cpp  **** 	int subWave = subTypeSmartKnob.GetValue() * SUBOSC_WAVEFORMS_COUNT ;  // int range 0 - 2
 1489              		.loc 16 186 44 is_stmt 0 view .LVU359
 1490 0008 F1EE087A 		vmov.f32	s15, #6.0e+0
 1491 000c 20EE270A 		vmul.f32	s0, s0, s15
 1492              	.LVL118:
 186:takshaka.cpp  **** 	int subWave = subTypeSmartKnob.GetValue() * SUBOSC_WAVEFORMS_COUNT ;  // int range 0 - 2
 1493              		.loc 16 186 46 view .LVU360
 1494 0010 BDEEC00A 		vcvt.s32.f32	s0, s0
 1495 0014 10EE103A 		vmov	r3, s0	@ int
 1496 0018 052B     		cmp	r3, #5
 1497 001a 0AD8     		bhi	.L46
 1498 001c DFE803F0 		tbb	[pc, r3]
 1499              	.L49:
 1500 0020 0A       		.byte	(.L54-.L49)/2
 1501 0021 11       		.byte	(.L53-.L49)/2
 1502 0022 18       		.byte	(.L52-.L49)/2
 1503 0023 1F       		.byte	(.L51-.L49)/2
 1504 0024 26       		.byte	(.L50-.L49)/2
 1505 0025 03       		.byte	(.L48-.L49)/2
 1506              		.p2align 1
 1507              	.L48:
 188:takshaka.cpp  **** 		case 0:
 189:takshaka.cpp  **** 			subOsc.SetWaveform( subOsc.WAVE_SIN );
 190:takshaka.cpp  **** 			subOscOctave = 1;
 191:takshaka.cpp  **** 			break;
 192:takshaka.cpp  **** 		case 1:
 193:takshaka.cpp  **** 			subOsc.SetWaveform( subOsc.WAVE_SIN );
 194:takshaka.cpp  **** 			subOscOctave = 2;
 195:takshaka.cpp  **** 			break;
 196:takshaka.cpp  **** 		case 2:
 197:takshaka.cpp  **** 			subOsc.SetWaveform( subOsc.WAVE_POLYBLEP_TRI );
 198:takshaka.cpp  **** 			subOscOctave = 1;
 199:takshaka.cpp  **** 			break;
 200:takshaka.cpp  **** 		case 3:
 201:takshaka.cpp  **** 			subOsc.SetWaveform( subOsc.WAVE_POLYBLEP_TRI );
 202:takshaka.cpp  **** 			subOscOctave = 2;
 203:takshaka.cpp  **** 			break;
 204:takshaka.cpp  **** 		case 4:
 205:takshaka.cpp  **** 			subOsc.SetWaveform( subOsc.WAVE_POLYBLEP_SQUARE );
 206:takshaka.cpp  **** 			subOscOctave = 1;
 207:takshaka.cpp  **** 			break;
 208:takshaka.cpp  **** 		case 5:
 1508              		.loc 16 208 3 is_stmt 1 view .LVU361
 209:takshaka.cpp  **** 			subOsc.SetWaveform( subOsc.WAVE_POLYBLEP_SQUARE );
 1509              		.loc 16 209 4 view .LVU362
 1510              	.LVL119:
 1511              	.LBB666:
 1512              	.LBI666:
  17:../../DaisySP//Source/Synthesis/oscillator.h ****     /** Choices for output waveforms, POLYBLEP are appropriately labeled. Others are naive forms.
ARM GAS  C:\Users\danst\AppData\Local\Temp\ccwBJjMd.s 			page 49


  18:../../DaisySP//Source/Synthesis/oscillator.h ****     */
  19:../../DaisySP//Source/Synthesis/oscillator.h ****     enum
  20:../../DaisySP//Source/Synthesis/oscillator.h ****     {
  21:../../DaisySP//Source/Synthesis/oscillator.h ****         WAVE_SIN,
  22:../../DaisySP//Source/Synthesis/oscillator.h ****         WAVE_TRI,
  23:../../DaisySP//Source/Synthesis/oscillator.h ****         WAVE_SAW,
  24:../../DaisySP//Source/Synthesis/oscillator.h ****         WAVE_RAMP,
  25:../../DaisySP//Source/Synthesis/oscillator.h ****         WAVE_SQUARE,
  26:../../DaisySP//Source/Synthesis/oscillator.h ****         WAVE_POLYBLEP_TRI,
  27:../../DaisySP//Source/Synthesis/oscillator.h ****         WAVE_POLYBLEP_SAW,
  28:../../DaisySP//Source/Synthesis/oscillator.h ****         WAVE_POLYBLEP_SQUARE,
  29:../../DaisySP//Source/Synthesis/oscillator.h ****         WAVE_LAST,
  30:../../DaisySP//Source/Synthesis/oscillator.h ****     };
  31:../../DaisySP//Source/Synthesis/oscillator.h **** 
  32:../../DaisySP//Source/Synthesis/oscillator.h **** 
  33:../../DaisySP//Source/Synthesis/oscillator.h ****     /** Initializes the Oscillator
  34:../../DaisySP//Source/Synthesis/oscillator.h **** 
  35:../../DaisySP//Source/Synthesis/oscillator.h ****         \param sample_rate - sample rate of the audio engine being run, and the frequency that the 
  36:../../DaisySP//Source/Synthesis/oscillator.h **** 
  37:../../DaisySP//Source/Synthesis/oscillator.h ****         Defaults:
  38:../../DaisySP//Source/Synthesis/oscillator.h ****         - freq_ = 100 Hz
  39:../../DaisySP//Source/Synthesis/oscillator.h ****         - amp_ = 0.5
  40:../../DaisySP//Source/Synthesis/oscillator.h ****         - waveform_ = sine wave.
  41:../../DaisySP//Source/Synthesis/oscillator.h ****     */
  42:../../DaisySP//Source/Synthesis/oscillator.h ****     void Init(float sample_rate)
  43:../../DaisySP//Source/Synthesis/oscillator.h ****     {
  44:../../DaisySP//Source/Synthesis/oscillator.h ****         sr_        = sample_rate;
  45:../../DaisySP//Source/Synthesis/oscillator.h ****         sr_recip_  = 1.0f / sample_rate;
  46:../../DaisySP//Source/Synthesis/oscillator.h ****         freq_      = 100.0f;
  47:../../DaisySP//Source/Synthesis/oscillator.h ****         amp_       = 0.5f;
  48:../../DaisySP//Source/Synthesis/oscillator.h ****         phase_     = 0.0f;
  49:../../DaisySP//Source/Synthesis/oscillator.h ****         phase_inc_ = CalcPhaseInc(freq_);
  50:../../DaisySP//Source/Synthesis/oscillator.h ****         waveform_  = WAVE_SIN;
  51:../../DaisySP//Source/Synthesis/oscillator.h ****         eoc_       = true;
  52:../../DaisySP//Source/Synthesis/oscillator.h ****         eor_       = true;
  53:../../DaisySP//Source/Synthesis/oscillator.h ****     }
  54:../../DaisySP//Source/Synthesis/oscillator.h **** 
  55:../../DaisySP//Source/Synthesis/oscillator.h **** 
  56:../../DaisySP//Source/Synthesis/oscillator.h ****     /** Changes the frequency of the Oscillator, and recalculates phase increment.
  57:../../DaisySP//Source/Synthesis/oscillator.h ****     */
  58:../../DaisySP//Source/Synthesis/oscillator.h ****     inline void SetFreq(const float f)
  59:../../DaisySP//Source/Synthesis/oscillator.h ****     {
  60:../../DaisySP//Source/Synthesis/oscillator.h ****         freq_      = f;
  61:../../DaisySP//Source/Synthesis/oscillator.h ****         phase_inc_ = CalcPhaseInc(f);
  62:../../DaisySP//Source/Synthesis/oscillator.h ****     }
  63:../../DaisySP//Source/Synthesis/oscillator.h **** 
  64:../../DaisySP//Source/Synthesis/oscillator.h **** 
  65:../../DaisySP//Source/Synthesis/oscillator.h ****     /** Sets the amplitude of the waveform.
  66:../../DaisySP//Source/Synthesis/oscillator.h ****     */
  67:../../DaisySP//Source/Synthesis/oscillator.h ****     inline void SetAmp(const float a) { amp_ = a; }
  68:../../DaisySP//Source/Synthesis/oscillator.h ****     /** Sets the waveform to be synthesized by the Process() function.
  69:../../DaisySP//Source/Synthesis/oscillator.h ****     */
  70:../../DaisySP//Source/Synthesis/oscillator.h ****     inline void SetWaveform(const uint8_t wf)
 1513              		.loc 8 70 17 view .LVU363
 1514              	.LBB667:
  71:../../DaisySP//Source/Synthesis/oscillator.h ****     {
  72:../../DaisySP//Source/Synthesis/oscillator.h ****         waveform_ = wf < WAVE_LAST ? wf : WAVE_SIN;
ARM GAS  C:\Users\danst\AppData\Local\Temp\ccwBJjMd.s 			page 50


 1515              		.loc 8 72 9 view .LVU364
 1516              		.loc 8 72 19 is_stmt 0 view .LVU365
 1517 0026 1649     		ldr	r1, .L56+4
 1518 0028 0720     		movs	r0, #7
 1519              	.LBE667:
 1520              	.LBE666:
 210:takshaka.cpp  **** 			subOscOctave = 2;
 1521              		.loc 16 210 17 view .LVU366
 1522 002a 164B     		ldr	r3, .L56+8
 1523 002c 0222     		movs	r2, #2
 1524              	.LBB669:
 1525              	.LBB668:
 1526              		.loc 8 72 19 view .LVU367
 1527 002e 0870     		strb	r0, [r1]
 1528              	.LVL120:
 1529              		.loc 8 72 19 view .LVU368
 1530              	.LBE668:
 1531              	.LBE669:
 1532              		.loc 16 210 4 is_stmt 1 view .LVU369
 1533              		.loc 16 210 17 is_stmt 0 view .LVU370
 1534 0030 1A60     		str	r2, [r3]
 1535              	.L46:
 211:takshaka.cpp  **** 	}
 212:takshaka.cpp  **** }
 1536              		.loc 16 212 1 view .LVU371
 1537 0032 08BD     		pop	{r3, pc}
 1538              	.L54:
 188:takshaka.cpp  **** 			subOsc.SetWaveform( subOsc.WAVE_SIN );
 1539              		.loc 16 188 3 is_stmt 1 view .LVU372
 189:takshaka.cpp  **** 			subOscOctave = 1;
 1540              		.loc 16 189 4 view .LVU373
 1541              	.LVL121:
 1542              	.LBB670:
 1543              	.LBI670:
  70:../../DaisySP//Source/Synthesis/oscillator.h ****     {
 1544              		.loc 8 70 17 view .LVU374
 1545              	.LBB671:
 1546              		.loc 8 72 9 view .LVU375
 1547              		.loc 8 72 19 is_stmt 0 view .LVU376
 1548 0034 1249     		ldr	r1, .L56+4
 1549 0036 0020     		movs	r0, #0
 1550              	.LBE671:
 1551              	.LBE670:
 190:takshaka.cpp  **** 			break;
 1552              		.loc 16 190 17 view .LVU377
 1553 0038 124B     		ldr	r3, .L56+8
 1554 003a 0122     		movs	r2, #1
 1555              	.LBB673:
 1556              	.LBB672:
 1557              		.loc 8 72 19 view .LVU378
 1558 003c 0870     		strb	r0, [r1]
 1559              	.LVL122:
 1560              		.loc 8 72 19 view .LVU379
 1561              	.LBE672:
 1562              	.LBE673:
 190:takshaka.cpp  **** 			break;
 1563              		.loc 16 190 4 is_stmt 1 view .LVU380
ARM GAS  C:\Users\danst\AppData\Local\Temp\ccwBJjMd.s 			page 51


 190:takshaka.cpp  **** 			break;
 1564              		.loc 16 190 17 is_stmt 0 view .LVU381
 1565 003e 1A60     		str	r2, [r3]
 191:takshaka.cpp  **** 		case 1:
 1566              		.loc 16 191 4 is_stmt 1 view .LVU382
 1567              		.loc 16 212 1 is_stmt 0 view .LVU383
 1568 0040 08BD     		pop	{r3, pc}
 1569              	.L53:
 192:takshaka.cpp  **** 			subOsc.SetWaveform( subOsc.WAVE_SIN );
 1570              		.loc 16 192 3 is_stmt 1 view .LVU384
 193:takshaka.cpp  **** 			subOscOctave = 2;
 1571              		.loc 16 193 4 view .LVU385
 1572              	.LVL123:
 1573              	.LBB674:
 1574              	.LBI674:
  70:../../DaisySP//Source/Synthesis/oscillator.h ****     {
 1575              		.loc 8 70 17 view .LVU386
 1576              	.LBB675:
 1577              		.loc 8 72 9 view .LVU387
 1578              		.loc 8 72 19 is_stmt 0 view .LVU388
 1579 0042 0F49     		ldr	r1, .L56+4
 1580 0044 0020     		movs	r0, #0
 1581              	.LBE675:
 1582              	.LBE674:
 194:takshaka.cpp  **** 			break;
 1583              		.loc 16 194 17 view .LVU389
 1584 0046 0F4B     		ldr	r3, .L56+8
 1585 0048 0222     		movs	r2, #2
 1586              	.LBB677:
 1587              	.LBB676:
 1588              		.loc 8 72 19 view .LVU390
 1589 004a 0870     		strb	r0, [r1]
 1590              	.LVL124:
 1591              		.loc 8 72 19 view .LVU391
 1592              	.LBE676:
 1593              	.LBE677:
 194:takshaka.cpp  **** 			break;
 1594              		.loc 16 194 4 is_stmt 1 view .LVU392
 194:takshaka.cpp  **** 			break;
 1595              		.loc 16 194 17 is_stmt 0 view .LVU393
 1596 004c 1A60     		str	r2, [r3]
 195:takshaka.cpp  **** 		case 2:
 1597              		.loc 16 195 4 is_stmt 1 view .LVU394
 1598              		.loc 16 212 1 is_stmt 0 view .LVU395
 1599 004e 08BD     		pop	{r3, pc}
 1600              	.L52:
 196:takshaka.cpp  **** 			subOsc.SetWaveform( subOsc.WAVE_POLYBLEP_TRI );
 1601              		.loc 16 196 3 is_stmt 1 view .LVU396
 197:takshaka.cpp  **** 			subOscOctave = 1;
 1602              		.loc 16 197 4 view .LVU397
 1603              	.LVL125:
 1604              	.LBB678:
 1605              	.LBI678:
  70:../../DaisySP//Source/Synthesis/oscillator.h ****     {
 1606              		.loc 8 70 17 view .LVU398
 1607              	.LBB679:
 1608              		.loc 8 72 9 view .LVU399
ARM GAS  C:\Users\danst\AppData\Local\Temp\ccwBJjMd.s 			page 52


 1609              		.loc 8 72 19 is_stmt 0 view .LVU400
 1610 0050 0B49     		ldr	r1, .L56+4
 1611 0052 0520     		movs	r0, #5
 1612              	.LBE679:
 1613              	.LBE678:
 198:takshaka.cpp  **** 			break;
 1614              		.loc 16 198 17 view .LVU401
 1615 0054 0B4B     		ldr	r3, .L56+8
 1616 0056 0122     		movs	r2, #1
 1617              	.LBB681:
 1618              	.LBB680:
 1619              		.loc 8 72 19 view .LVU402
 1620 0058 0870     		strb	r0, [r1]
 1621              	.LVL126:
 1622              		.loc 8 72 19 view .LVU403
 1623              	.LBE680:
 1624              	.LBE681:
 198:takshaka.cpp  **** 			break;
 1625              		.loc 16 198 4 is_stmt 1 view .LVU404
 198:takshaka.cpp  **** 			break;
 1626              		.loc 16 198 17 is_stmt 0 view .LVU405
 1627 005a 1A60     		str	r2, [r3]
 199:takshaka.cpp  **** 		case 3:
 1628              		.loc 16 199 4 is_stmt 1 view .LVU406
 1629              		.loc 16 212 1 is_stmt 0 view .LVU407
 1630 005c 08BD     		pop	{r3, pc}
 1631              	.L51:
 200:takshaka.cpp  **** 			subOsc.SetWaveform( subOsc.WAVE_POLYBLEP_TRI );
 1632              		.loc 16 200 3 is_stmt 1 view .LVU408
 201:takshaka.cpp  **** 			subOscOctave = 2;
 1633              		.loc 16 201 4 view .LVU409
 1634              	.LVL127:
 1635              	.LBB682:
 1636              	.LBI682:
  70:../../DaisySP//Source/Synthesis/oscillator.h ****     {
 1637              		.loc 8 70 17 view .LVU410
 1638              	.LBB683:
 1639              		.loc 8 72 9 view .LVU411
 1640              		.loc 8 72 19 is_stmt 0 view .LVU412
 1641 005e 0849     		ldr	r1, .L56+4
 1642 0060 0520     		movs	r0, #5
 1643              	.LBE683:
 1644              	.LBE682:
 202:takshaka.cpp  **** 			break;
 1645              		.loc 16 202 17 view .LVU413
 1646 0062 084B     		ldr	r3, .L56+8
 1647 0064 0222     		movs	r2, #2
 1648              	.LBB685:
 1649              	.LBB684:
 1650              		.loc 8 72 19 view .LVU414
 1651 0066 0870     		strb	r0, [r1]
 1652              	.LVL128:
 1653              		.loc 8 72 19 view .LVU415
 1654              	.LBE684:
 1655              	.LBE685:
 202:takshaka.cpp  **** 			break;
 1656              		.loc 16 202 4 is_stmt 1 view .LVU416
ARM GAS  C:\Users\danst\AppData\Local\Temp\ccwBJjMd.s 			page 53


 202:takshaka.cpp  **** 			break;
 1657              		.loc 16 202 17 is_stmt 0 view .LVU417
 1658 0068 1A60     		str	r2, [r3]
 203:takshaka.cpp  **** 		case 4:
 1659              		.loc 16 203 4 is_stmt 1 view .LVU418
 1660              		.loc 16 212 1 is_stmt 0 view .LVU419
 1661 006a 08BD     		pop	{r3, pc}
 1662              	.L50:
 204:takshaka.cpp  **** 			subOsc.SetWaveform( subOsc.WAVE_POLYBLEP_SQUARE );
 1663              		.loc 16 204 3 is_stmt 1 view .LVU420
 205:takshaka.cpp  **** 			subOscOctave = 1;
 1664              		.loc 16 205 4 view .LVU421
 1665              	.LVL129:
 1666              	.LBB686:
 1667              	.LBI686:
  70:../../DaisySP//Source/Synthesis/oscillator.h ****     {
 1668              		.loc 8 70 17 view .LVU422
 1669              	.LBB687:
 1670              		.loc 8 72 9 view .LVU423
 1671              		.loc 8 72 19 is_stmt 0 view .LVU424
 1672 006c 0449     		ldr	r1, .L56+4
 1673 006e 0720     		movs	r0, #7
 1674              	.LBE687:
 1675              	.LBE686:
 206:takshaka.cpp  **** 			break;
 1676              		.loc 16 206 17 view .LVU425
 1677 0070 044B     		ldr	r3, .L56+8
 1678 0072 0122     		movs	r2, #1
 1679              	.LBB689:
 1680              	.LBB688:
 1681              		.loc 8 72 19 view .LVU426
 1682 0074 0870     		strb	r0, [r1]
 1683              	.LVL130:
 1684              		.loc 8 72 19 view .LVU427
 1685              	.LBE688:
 1686              	.LBE689:
 206:takshaka.cpp  **** 			break;
 1687              		.loc 16 206 4 is_stmt 1 view .LVU428
 206:takshaka.cpp  **** 			break;
 1688              		.loc 16 206 17 is_stmt 0 view .LVU429
 1689 0076 1A60     		str	r2, [r3]
 207:takshaka.cpp  **** 		case 5:
 1690              		.loc 16 207 4 is_stmt 1 view .LVU430
 1691              		.loc 16 212 1 is_stmt 0 view .LVU431
 1692 0078 08BD     		pop	{r3, pc}
 1693              	.L57:
 1694 007a 00BF     		.align	2
 1695              	.L56:
 1696 007c 00000000 		.word	.LANCHOR22
 1697 0080 00000000 		.word	.LANCHOR7
 1698 0084 00000000 		.word	.LANCHOR32
 1699              		.cfi_endproc
 1700              	.LFE4791:
 1702              		.section	.text._Z7initADCv,"ax",%progbits
 1703              		.align	1
 1704              		.p2align 2,,3
 1705              		.global	_Z7initADCv
ARM GAS  C:\Users\danst\AppData\Local\Temp\ccwBJjMd.s 			page 54


 1706              		.syntax unified
 1707              		.thumb
 1708              		.thumb_func
 1709              		.fpu fpv5-d16
 1711              	_Z7initADCv:
 1712              	.LFB4792:
 213:takshaka.cpp  **** void initADC(){
 1713              		.loc 16 213 15 is_stmt 1 view -0
 1714              		.cfi_startproc
 1715              		@ args = 0, pretend = 0, frame = 256
 1716              		@ frame_needed = 0, uses_anonymous_args = 0
 214:takshaka.cpp  **** 	AdcChannelConfig adcConfig[ ADC_CHANNELS_COUNT ];
 1717              		.loc 16 214 2 view .LVU433
 215:takshaka.cpp  ****     adcConfig[ driftKnob ].InitSingle( daisy::seed::A0 );
 1718              		.loc 16 215 5 view .LVU434
 1719              	.LVL131:
 1720              	.LBB690:
 1721              	.LBI690:
 1722              		.file 18 "../../libDaisy//src/daisy_core.h"
   1:../../libDaisy//src/daisy_core.h **** #pragma once
   2:../../libDaisy//src/daisy_core.h **** #ifndef DSY_CORE_HW_H
   3:../../libDaisy//src/daisy_core.h **** #define DSY_CORE_HW_H /**< & */
   4:../../libDaisy//src/daisy_core.h **** #include <stdint.h>
   5:../../libDaisy//src/daisy_core.h **** #include <stdlib.h>
   6:../../libDaisy//src/daisy_core.h **** 
   7:../../libDaisy//src/daisy_core.h **** #if defined(_MSC_VER)
   8:../../libDaisy//src/daisy_core.h **** #define FORCE_INLINE __forceinline /**< & */
   9:../../libDaisy//src/daisy_core.h **** #elif defined(__clang__)
  10:../../libDaisy//src/daisy_core.h **** #define FORCE_INLINE inline __attribute__((always_inline)) /**< & */
  11:../../libDaisy//src/daisy_core.h **** #pragma clang diagnostic ignored "-Wduplicate-decl-specifier"
  12:../../libDaisy//src/daisy_core.h **** #elif defined(__GNUC__)
  13:../../libDaisy//src/daisy_core.h **** #define FORCE_INLINE inline __attribute__((always_inline)) /**< & */
  14:../../libDaisy//src/daisy_core.h **** #else
  15:../../libDaisy//src/daisy_core.h **** #error unknown compiler
  16:../../libDaisy//src/daisy_core.h **** #endif
  17:../../libDaisy//src/daisy_core.h **** 
  18:../../libDaisy//src/daisy_core.h **** /** @addtogroup utility
  19:../../libDaisy//src/daisy_core.h ****     @{
  20:../../libDaisy//src/daisy_core.h **** */
  21:../../libDaisy//src/daisy_core.h **** 
  22:../../libDaisy//src/daisy_core.h **** /** Macro for area of memory that is configured as cacheless
  23:../../libDaisy//src/daisy_core.h **** This should be used primarily for DMA buffers, and the like.
  24:../../libDaisy//src/daisy_core.h **** */
  25:../../libDaisy//src/daisy_core.h **** #define DMA_BUFFER_MEM_SECTION __attribute__((section(".sram1_bss")))
  26:../../libDaisy//src/daisy_core.h **** /** 
  27:../../libDaisy//src/daisy_core.h **** THE DTCM RAM section is also non-cached. However, is not suitable 
  28:../../libDaisy//src/daisy_core.h **** for DMA transfers. Performance is on par with internal SRAM w/ 
  29:../../libDaisy//src/daisy_core.h **** cache enabled.
  30:../../libDaisy//src/daisy_core.h **** */
  31:../../libDaisy//src/daisy_core.h **** #define DTCM_MEM_SECTION __attribute__((section(".dtcmram_bss")))
  32:../../libDaisy//src/daisy_core.h **** 
  33:../../libDaisy//src/daisy_core.h **** #define FBIPMAX 0.999985f             /**< close to 1.0f-LSB at 16 bit */
  34:../../libDaisy//src/daisy_core.h **** #define FBIPMIN (-FBIPMAX)            /**< - (1 - LSB) */
  35:../../libDaisy//src/daisy_core.h **** #define U82F_SCALE 0.0078740f         /**< 1 / 127 */
  36:../../libDaisy//src/daisy_core.h **** #define F2U8_SCALE 127.0f             /**< 128 - 1 */
  37:../../libDaisy//src/daisy_core.h **** #define S82F_SCALE 0.0078125f         /**< 1 / (2**7) */
  38:../../libDaisy//src/daisy_core.h **** #define F2S8_SCALE 127.0f             /**< (2 ** 7) - 1 */
ARM GAS  C:\Users\danst\AppData\Local\Temp\ccwBJjMd.s 			page 55


  39:../../libDaisy//src/daisy_core.h **** #define S162F_SCALE 3.0517578125e-05f /**< 1 / (2** 15) */
  40:../../libDaisy//src/daisy_core.h **** #define F2S16_SCALE 32767.0f          /**< (2 ** 15) - 1 */
  41:../../libDaisy//src/daisy_core.h **** #define F2S24_SCALE 8388608.0f        /**< 2 ** 23 */
  42:../../libDaisy//src/daisy_core.h **** #define S242F_SCALE 1.192092896e-07f  /**< 1 / (2 ** 23) */
  43:../../libDaisy//src/daisy_core.h **** #define S24SIGN 0x800000              /**< 2 ** 23 */
  44:../../libDaisy//src/daisy_core.h **** #define S322F_SCALE 4.6566129e-10f    /**< 1 / (2** 31) */
  45:../../libDaisy//src/daisy_core.h **** #define F2S32_SCALE 2147483647.f      /**< (2 ** 31) - 1 */
  46:../../libDaisy//src/daisy_core.h **** 
  47:../../libDaisy//src/daisy_core.h **** 
  48:../../libDaisy//src/daisy_core.h **** /** shorthand macro for simplifying the reading of the left 
  49:../../libDaisy//src/daisy_core.h ****  *  channel of a non-interleaved output buffer named out */
  50:../../libDaisy//src/daisy_core.h **** #define OUT_L out[0]
  51:../../libDaisy//src/daisy_core.h **** 
  52:../../libDaisy//src/daisy_core.h **** /** shorthand macro for simplifying the reading of the right 
  53:../../libDaisy//src/daisy_core.h ****  *  channel of a non-interleaved output buffer named out */
  54:../../libDaisy//src/daisy_core.h **** #define OUT_R out[1]
  55:../../libDaisy//src/daisy_core.h **** 
  56:../../libDaisy//src/daisy_core.h **** /** shorthand macro for simplifying the reading of the left 
  57:../../libDaisy//src/daisy_core.h ****  *  channel of a non-interleaved input buffer named in */
  58:../../libDaisy//src/daisy_core.h **** #define IN_L in[0]
  59:../../libDaisy//src/daisy_core.h **** 
  60:../../libDaisy//src/daisy_core.h **** /** shorthand macro for simplifying the reading of the right 
  61:../../libDaisy//src/daisy_core.h ****  *  channel of a non-interleaved input buffer named in */
  62:../../libDaisy//src/daisy_core.h **** #define IN_R in[1]
  63:../../libDaisy//src/daisy_core.h **** 
  64:../../libDaisy//src/daisy_core.h **** /** 
  65:../../libDaisy//src/daisy_core.h ****     Computes cube.
  66:../../libDaisy//src/daisy_core.h ****     \param x Number to be cubed
  67:../../libDaisy//src/daisy_core.h ****     \return x ^ 3
  68:../../libDaisy//src/daisy_core.h **** */
  69:../../libDaisy//src/daisy_core.h **** FORCE_INLINE float cube(float x)
  70:../../libDaisy//src/daisy_core.h **** {
  71:../../libDaisy//src/daisy_core.h ****     return (x * x) * x;
  72:../../libDaisy//src/daisy_core.h **** }
  73:../../libDaisy//src/daisy_core.h **** 
  74:../../libDaisy//src/daisy_core.h **** /** 
  75:../../libDaisy//src/daisy_core.h ****     Converts unsigned 8-bit to float
  76:../../libDaisy//src/daisy_core.h ****     \param x Number to be scaled.
  77:../../libDaisy//src/daisy_core.h ****     \return Scaled number.
  78:../../libDaisy//src/daisy_core.h **** */
  79:../../libDaisy//src/daisy_core.h **** FORCE_INLINE float u82f(uint8_t x)
  80:../../libDaisy//src/daisy_core.h **** {
  81:../../libDaisy//src/daisy_core.h ****     return ((float)x - 127.f) * U82F_SCALE;
  82:../../libDaisy//src/daisy_core.h **** }
  83:../../libDaisy//src/daisy_core.h **** 
  84:../../libDaisy//src/daisy_core.h **** /**
  85:../../libDaisy//src/daisy_core.h ****     Converts float to unsigned 8-bit
  86:../../libDaisy//src/daisy_core.h **** */
  87:../../libDaisy//src/daisy_core.h **** FORCE_INLINE uint8_t f2u8(float x)
  88:../../libDaisy//src/daisy_core.h **** {
  89:../../libDaisy//src/daisy_core.h ****     x = x <= FBIPMIN ? FBIPMIN : x;
  90:../../libDaisy//src/daisy_core.h ****     x = x >= FBIPMAX ? FBIPMAX : x;
  91:../../libDaisy//src/daisy_core.h ****     return (uint8_t)((x * F2U8_SCALE) + F2U8_SCALE);
  92:../../libDaisy//src/daisy_core.h **** }
  93:../../libDaisy//src/daisy_core.h **** 
  94:../../libDaisy//src/daisy_core.h **** 
  95:../../libDaisy//src/daisy_core.h **** /** 
ARM GAS  C:\Users\danst\AppData\Local\Temp\ccwBJjMd.s 			page 56


  96:../../libDaisy//src/daisy_core.h ****     Converts Signed 8-bit to float
  97:../../libDaisy//src/daisy_core.h ****     \param x Number to be scaled.
  98:../../libDaisy//src/daisy_core.h ****     \return Scaled number.
  99:../../libDaisy//src/daisy_core.h **** */
 100:../../libDaisy//src/daisy_core.h **** FORCE_INLINE float s82f(int8_t x)
 101:../../libDaisy//src/daisy_core.h **** {
 102:../../libDaisy//src/daisy_core.h ****     return (float)x * S82F_SCALE;
 103:../../libDaisy//src/daisy_core.h **** }
 104:../../libDaisy//src/daisy_core.h **** 
 105:../../libDaisy//src/daisy_core.h **** /**
 106:../../libDaisy//src/daisy_core.h ****     Converts float to Signed 8-bit
 107:../../libDaisy//src/daisy_core.h **** */
 108:../../libDaisy//src/daisy_core.h **** FORCE_INLINE int8_t f2s8(float x)
 109:../../libDaisy//src/daisy_core.h **** {
 110:../../libDaisy//src/daisy_core.h ****     x = x <= FBIPMIN ? FBIPMIN : x;
 111:../../libDaisy//src/daisy_core.h ****     x = x >= FBIPMAX ? FBIPMAX : x;
 112:../../libDaisy//src/daisy_core.h ****     return (int32_t)(x * F2S8_SCALE);
 113:../../libDaisy//src/daisy_core.h **** }
 114:../../libDaisy//src/daisy_core.h **** 
 115:../../libDaisy//src/daisy_core.h **** /** 
 116:../../libDaisy//src/daisy_core.h ****     Converts Signed 16-bit to float
 117:../../libDaisy//src/daisy_core.h ****     \param x Number to be scaled.
 118:../../libDaisy//src/daisy_core.h ****     \return Scaled number.
 119:../../libDaisy//src/daisy_core.h **** */
 120:../../libDaisy//src/daisy_core.h **** FORCE_INLINE float s162f(int16_t x)
 121:../../libDaisy//src/daisy_core.h **** {
 122:../../libDaisy//src/daisy_core.h ****     return (float)x * S162F_SCALE;
 123:../../libDaisy//src/daisy_core.h **** }
 124:../../libDaisy//src/daisy_core.h **** 
 125:../../libDaisy//src/daisy_core.h **** /**
 126:../../libDaisy//src/daisy_core.h ****     Converts float to Signed 16-bit
 127:../../libDaisy//src/daisy_core.h **** */
 128:../../libDaisy//src/daisy_core.h **** FORCE_INLINE int16_t f2s16(float x)
 129:../../libDaisy//src/daisy_core.h **** {
 130:../../libDaisy//src/daisy_core.h ****     x = x <= FBIPMIN ? FBIPMIN : x;
 131:../../libDaisy//src/daisy_core.h ****     x = x >= FBIPMAX ? FBIPMAX : x;
 132:../../libDaisy//src/daisy_core.h ****     return (int32_t)(x * F2S16_SCALE);
 133:../../libDaisy//src/daisy_core.h **** }
 134:../../libDaisy//src/daisy_core.h **** 
 135:../../libDaisy//src/daisy_core.h **** /**
 136:../../libDaisy//src/daisy_core.h ****     Converts Signed 24-bit to float
 137:../../libDaisy//src/daisy_core.h ****  */
 138:../../libDaisy//src/daisy_core.h **** FORCE_INLINE float s242f(int32_t x)
 139:../../libDaisy//src/daisy_core.h **** {
 140:../../libDaisy//src/daisy_core.h ****     x = (x ^ S24SIGN) - S24SIGN; //sign extend aka ((x<<8)>>8)
 141:../../libDaisy//src/daisy_core.h ****     return (float)x * S242F_SCALE;
 142:../../libDaisy//src/daisy_core.h **** }
 143:../../libDaisy//src/daisy_core.h **** /**
 144:../../libDaisy//src/daisy_core.h ****     Converts float to Signed 24-bit
 145:../../libDaisy//src/daisy_core.h ****  */
 146:../../libDaisy//src/daisy_core.h **** FORCE_INLINE int32_t f2s24(float x)
 147:../../libDaisy//src/daisy_core.h **** {
 148:../../libDaisy//src/daisy_core.h ****     x = x <= FBIPMIN ? FBIPMIN : x;
 149:../../libDaisy//src/daisy_core.h ****     x = x >= FBIPMAX ? FBIPMAX : x;
 150:../../libDaisy//src/daisy_core.h ****     return (int32_t)(x * F2S24_SCALE);
 151:../../libDaisy//src/daisy_core.h **** }
 152:../../libDaisy//src/daisy_core.h **** 
ARM GAS  C:\Users\danst\AppData\Local\Temp\ccwBJjMd.s 			page 57


 153:../../libDaisy//src/daisy_core.h **** /**
 154:../../libDaisy//src/daisy_core.h ****     Converts Signed 32-bit to float
 155:../../libDaisy//src/daisy_core.h ****  */
 156:../../libDaisy//src/daisy_core.h **** FORCE_INLINE float s322f(int32_t x)
 157:../../libDaisy//src/daisy_core.h **** {
 158:../../libDaisy//src/daisy_core.h ****     return (float)x * S322F_SCALE;
 159:../../libDaisy//src/daisy_core.h **** }
 160:../../libDaisy//src/daisy_core.h **** /**
 161:../../libDaisy//src/daisy_core.h ****     Converts float to Signed 24-bit
 162:../../libDaisy//src/daisy_core.h ****  */
 163:../../libDaisy//src/daisy_core.h **** FORCE_INLINE int32_t f2s32(float x)
 164:../../libDaisy//src/daisy_core.h **** {
 165:../../libDaisy//src/daisy_core.h ****     x = x <= FBIPMIN ? FBIPMIN : x;
 166:../../libDaisy//src/daisy_core.h ****     x = x >= FBIPMAX ? FBIPMAX : x;
 167:../../libDaisy//src/daisy_core.h ****     return (int32_t)(x * F2S32_SCALE);
 168:../../libDaisy//src/daisy_core.h **** }
 169:../../libDaisy//src/daisy_core.h **** 
 170:../../libDaisy//src/daisy_core.h **** 
 171:../../libDaisy//src/daisy_core.h **** /** Enums and a simple struct for defining a hardware pin on the MCU
 172:../../libDaisy//src/daisy_core.h ****  *  These correlate with the stm32 datasheet, and are used to configure
 173:../../libDaisy//src/daisy_core.h ****  *  the hardware.
 174:../../libDaisy//src/daisy_core.h ****  * 
 175:../../libDaisy//src/daisy_core.h ****  *  This along with the dsy_gpio_pin class should no longer be used.
 176:../../libDaisy//src/daisy_core.h ****  *  They are available for backwards compatability. 
 177:../../libDaisy//src/daisy_core.h ****  * 
 178:../../libDaisy//src/daisy_core.h ****  *  Please use GPIOPort enum and the Pin struct instead.
 179:../../libDaisy//src/daisy_core.h ****  */
 180:../../libDaisy//src/daisy_core.h **** typedef enum
 181:../../libDaisy//src/daisy_core.h **** {
 182:../../libDaisy//src/daisy_core.h ****     DSY_GPIOA, /**< & */
 183:../../libDaisy//src/daisy_core.h ****     DSY_GPIOB, /**< & */
 184:../../libDaisy//src/daisy_core.h ****     DSY_GPIOC, /**< & */
 185:../../libDaisy//src/daisy_core.h ****     DSY_GPIOD, /**< & */
 186:../../libDaisy//src/daisy_core.h ****     DSY_GPIOE, /**< & */
 187:../../libDaisy//src/daisy_core.h ****     DSY_GPIOF, /**< & */
 188:../../libDaisy//src/daisy_core.h ****     DSY_GPIOG, /**< & */
 189:../../libDaisy//src/daisy_core.h ****     DSY_GPIOH, /**< & */
 190:../../libDaisy//src/daisy_core.h ****     DSY_GPIOI, /**< & */
 191:../../libDaisy//src/daisy_core.h ****     DSY_GPIOJ, /**< & */
 192:../../libDaisy//src/daisy_core.h ****     DSY_GPIOK, /**< & */
 193:../../libDaisy//src/daisy_core.h ****     DSY_GPIOX, /** This is a non-existant port for unsupported bits of hardware. */
 194:../../libDaisy//src/daisy_core.h ****     DSY_GPIO_LAST, /** Final enum member */
 195:../../libDaisy//src/daisy_core.h **** } dsy_gpio_port;
 196:../../libDaisy//src/daisy_core.h **** 
 197:../../libDaisy//src/daisy_core.h **** /** Hardware define pins 
 198:../../libDaisy//src/daisy_core.h ****  *  
 199:../../libDaisy//src/daisy_core.h ****  *  The dsy_gpio_pin struct should no longer be used, and is only available for
 200:../../libDaisy//src/daisy_core.h ****  *  backwards compatability.
 201:../../libDaisy//src/daisy_core.h ****  * 
 202:../../libDaisy//src/daisy_core.h ****  *  Please use Pin struct instead.
 203:../../libDaisy//src/daisy_core.h ****  */
 204:../../libDaisy//src/daisy_core.h **** typedef struct
 205:../../libDaisy//src/daisy_core.h **** {
 206:../../libDaisy//src/daisy_core.h ****     dsy_gpio_port port; /**< & */
 207:../../libDaisy//src/daisy_core.h ****     uint8_t       pin;  /**< number 0-15 */
 208:../../libDaisy//src/daisy_core.h **** } dsy_gpio_pin;
 209:../../libDaisy//src/daisy_core.h **** 
ARM GAS  C:\Users\danst\AppData\Local\Temp\ccwBJjMd.s 			page 58


 210:../../libDaisy//src/daisy_core.h **** /** Helper for creating pins from port/pin combos easily
 211:../../libDaisy//src/daisy_core.h ****  * 
 212:../../libDaisy//src/daisy_core.h ****  *  The dsy_gpio_pin struct should no longer be used, and is only available for
 213:../../libDaisy//src/daisy_core.h ****  *  backwards compatability.
 214:../../libDaisy//src/daisy_core.h ****  * 
 215:../../libDaisy//src/daisy_core.h ****  *  Please use Pin struct instead.
 216:../../libDaisy//src/daisy_core.h **** */
 217:../../libDaisy//src/daisy_core.h **** FORCE_INLINE dsy_gpio_pin dsy_pin(dsy_gpio_port port, uint8_t pin)
 218:../../libDaisy//src/daisy_core.h **** {
 219:../../libDaisy//src/daisy_core.h ****     dsy_gpio_pin p;
 220:../../libDaisy//src/daisy_core.h ****     p.port = port;
 221:../../libDaisy//src/daisy_core.h ****     p.pin  = pin;
 222:../../libDaisy//src/daisy_core.h ****     return p;
 223:../../libDaisy//src/daisy_core.h **** }
 224:../../libDaisy//src/daisy_core.h **** 
 225:../../libDaisy//src/daisy_core.h **** /** Helper for testing sameness of two dsy_gpio_pins
 226:../../libDaisy//src/daisy_core.h ****  *  \return    1 if same, 0 if different
 227:../../libDaisy//src/daisy_core.h ****  * 
 228:../../libDaisy//src/daisy_core.h ****  *  The dsy_gpio_pin struct should no longer be used, and is only available for
 229:../../libDaisy//src/daisy_core.h ****  *  backwards compatability.
 230:../../libDaisy//src/daisy_core.h ****  * 
 231:../../libDaisy//src/daisy_core.h ****  *  Please use Pin struct instead.
 232:../../libDaisy//src/daisy_core.h ****  */
 233:../../libDaisy//src/daisy_core.h **** FORCE_INLINE uint8_t dsy_pin_cmp(dsy_gpio_pin *a, dsy_gpio_pin *b)
 234:../../libDaisy//src/daisy_core.h **** {
 235:../../libDaisy//src/daisy_core.h ****     return ((a->port == b->port) && (a->pin == b->pin));
 236:../../libDaisy//src/daisy_core.h **** }
 237:../../libDaisy//src/daisy_core.h **** 
 238:../../libDaisy//src/daisy_core.h **** #ifdef __cplusplus
 239:../../libDaisy//src/daisy_core.h **** 
 240:../../libDaisy//src/daisy_core.h **** namespace daisy
 241:../../libDaisy//src/daisy_core.h **** {
 242:../../libDaisy//src/daisy_core.h **** /** @brief GPIO Port names */
 243:../../libDaisy//src/daisy_core.h **** enum GPIOPort
 244:../../libDaisy//src/daisy_core.h **** {
 245:../../libDaisy//src/daisy_core.h ****     PORTA, /**< Port A */
 246:../../libDaisy//src/daisy_core.h ****     PORTB, /**< Port B */
 247:../../libDaisy//src/daisy_core.h ****     PORTC, /**< Port C */
 248:../../libDaisy//src/daisy_core.h ****     PORTD, /**< Port D */
 249:../../libDaisy//src/daisy_core.h ****     PORTE, /**< Port E */
 250:../../libDaisy//src/daisy_core.h ****     PORTF, /**< Port F */
 251:../../libDaisy//src/daisy_core.h ****     PORTG, /**< Port G */
 252:../../libDaisy//src/daisy_core.h ****     PORTH, /**< Port H */
 253:../../libDaisy//src/daisy_core.h ****     PORTI, /**< Port I */
 254:../../libDaisy//src/daisy_core.h ****     PORTJ, /**< Port J */
 255:../../libDaisy//src/daisy_core.h ****     PORTK, /**< Port K */
 256:../../libDaisy//src/daisy_core.h ****     PORTX, /**< Used as a dummy port to signal an invalid pin. */
 257:../../libDaisy//src/daisy_core.h **** };
 258:../../libDaisy//src/daisy_core.h **** 
 259:../../libDaisy//src/daisy_core.h **** /** @brief representation of hardware port/pin combination */
 260:../../libDaisy//src/daisy_core.h **** struct Pin
 261:../../libDaisy//src/daisy_core.h **** {
 262:../../libDaisy//src/daisy_core.h ****     GPIOPort port;
 263:../../libDaisy//src/daisy_core.h ****     uint8_t  pin;
 264:../../libDaisy//src/daisy_core.h **** 
 265:../../libDaisy//src/daisy_core.h ****     /** @brief Constructor creates a valid pin. 
 266:../../libDaisy//src/daisy_core.h ****      *  @param pt GPIOPort between PA, and PK corresponding to STM32 Port.
ARM GAS  C:\Users\danst\AppData\Local\Temp\ccwBJjMd.s 			page 59


 267:../../libDaisy//src/daisy_core.h ****      *  @param pn pin number in range of 0-15
 268:../../libDaisy//src/daisy_core.h ****     */
 269:../../libDaisy//src/daisy_core.h ****     constexpr Pin(const GPIOPort pt, const uint8_t pn) : port(pt), pin(pn) {}
 270:../../libDaisy//src/daisy_core.h **** 
 271:../../libDaisy//src/daisy_core.h ****     /** @brief Basic Constructor creates an invalid Pin object */
 272:../../libDaisy//src/daisy_core.h ****     constexpr Pin() : port(PORTX), pin(255) {}
 273:../../libDaisy//src/daisy_core.h **** 
 274:../../libDaisy//src/daisy_core.h ****     /** @brief checks validity of a Pin 
 275:../../libDaisy//src/daisy_core.h ****      *  @retval returns true if the port is a valid hardware pin, otherwise false.
 276:../../libDaisy//src/daisy_core.h ****     */
 277:../../libDaisy//src/daisy_core.h ****     constexpr bool IsValid() const { return port != PORTX && pin < 16; }
 278:../../libDaisy//src/daisy_core.h **** 
 279:../../libDaisy//src/daisy_core.h ****     /** @brief comparison operator for checking equality between Pin objects */
 280:../../libDaisy//src/daisy_core.h ****     constexpr bool operator==(const Pin &rhs) const
 281:../../libDaisy//src/daisy_core.h ****     {
 282:../../libDaisy//src/daisy_core.h ****         return (rhs.port == port) && (rhs.pin == pin);
 283:../../libDaisy//src/daisy_core.h ****     }
 284:../../libDaisy//src/daisy_core.h **** 
 285:../../libDaisy//src/daisy_core.h ****     /** @brief comparison operator for checking inequality between Pin objects */
 286:../../libDaisy//src/daisy_core.h ****     constexpr bool operator!=(const Pin &rhs) const { return !operator==(rhs); }
 287:../../libDaisy//src/daisy_core.h **** 
 288:../../libDaisy//src/daisy_core.h ****     /** @brief conversion operation for converting to the old-style representation
 289:../../libDaisy//src/daisy_core.h ****      *         of a pin.
 290:../../libDaisy//src/daisy_core.h ****      * 
 291:../../libDaisy//src/daisy_core.h ****      *  This allows the new Pin type to be used in place of the older, dsy_gpio_pin
 292:../../libDaisy//src/daisy_core.h ****      *  type.
 293:../../libDaisy//src/daisy_core.h ****      */
 294:../../libDaisy//src/daisy_core.h ****     operator dsy_gpio_pin() const
 1723              		.loc 18 294 5 view .LVU435
 1724              	.LBE690:
 295:../../libDaisy//src/daisy_core.h ****     {
 296:../../libDaisy//src/daisy_core.h ****         return dsy_pin(static_cast<dsy_gpio_port>(port), pin);
 1725              		.loc 18 296 9 view .LVU436
 1726              	.LBB692:
 1727              	.LBB691:
 1728              	.LBI691:
 217:../../libDaisy//src/daisy_core.h **** {
 1729              		.loc 18 217 27 view .LVU437
 1730              	.LBE691:
 1731              	.LBE692:
 219:../../libDaisy//src/daisy_core.h ****     p.port = port;
 1732              		.loc 18 219 5 view .LVU438
 220:../../libDaisy//src/daisy_core.h ****     p.pin  = pin;
 1733              		.loc 18 220 5 view .LVU439
 221:../../libDaisy//src/daisy_core.h ****     return p;
 1734              		.loc 18 221 5 view .LVU440
 222:../../libDaisy//src/daisy_core.h **** }
 1735              		.loc 18 222 5 view .LVU441
 213:takshaka.cpp  **** 	AdcChannelConfig adcConfig[ ADC_CHANNELS_COUNT ];
 1736              		.loc 16 213 15 is_stmt 0 view .LVU442
 1737 0000 F0B5     		push	{r4, r5, r6, r7, lr}
 1738              		.cfi_def_cfa_offset 20
 1739              		.cfi_offset 4, -20
 1740              		.cfi_offset 5, -16
 1741              		.cfi_offset 6, -12
 1742              		.cfi_offset 7, -8
 1743              		.cfi_offset 14, -4
ARM GAS  C:\Users\danst\AppData\Local\Temp\ccwBJjMd.s 			page 60


 1744 0002 0024     		movs	r4, #0
 1745 0004 C1B0     		sub	sp, sp, #260
 1746              		.cfi_def_cfa_offset 280
 1747 0006 0225     		movs	r5, #2
 1748 0008 0126     		movs	r6, #1
 1749 000a 8DF80540 		strb	r4, [sp, #5]
 1750              	.LVL132:
 1751              		.loc 16 215 38 view .LVU443
 1752 000e 0DA8     		add	r0, sp, #52
 1753 0010 8DF80450 		strb	r5, [sp, #4]
 1754 0014 0427     		movs	r7, #4
 1755 0016 0199     		ldr	r1, [sp, #4]
 1756 0018 FFF7FEFF 		bl	_ZN5daisy16AdcChannelConfig10InitSingleE12dsy_gpio_pin
 1757              	.LVL133:
 216:takshaka.cpp  ****     adcConfig[ shiftKnob ].InitSingle( daisy::seed::A1 );
 1758              		.loc 16 216 5 is_stmt 1 view .LVU444
 1759              	.LBB693:
 1760              	.LBI693:
 294:../../libDaisy//src/daisy_core.h ****     {
 1761              		.loc 18 294 5 view .LVU445
 1762              	.LBE693:
 1763              		.loc 18 296 9 view .LVU446
 1764              	.LBB695:
 1765              	.LBB694:
 1766              	.LBI694:
 217:../../libDaisy//src/daisy_core.h **** {
 1767              		.loc 18 217 27 view .LVU447
 1768              	.LBE694:
 1769              	.LBE695:
 219:../../libDaisy//src/daisy_core.h ****     p.port = port;
 1770              		.loc 18 219 5 view .LVU448
 220:../../libDaisy//src/daisy_core.h ****     p.pin  = pin;
 1771              		.loc 18 220 5 view .LVU449
 221:../../libDaisy//src/daisy_core.h ****     return p;
 1772              		.loc 18 221 5 view .LVU450
 222:../../libDaisy//src/daisy_core.h **** }
 1773              		.loc 18 222 5 view .LVU451
 222:../../libDaisy//src/daisy_core.h **** }
 1774              		.loc 18 222 5 is_stmt 0 view .LVU452
 1775 001c 0323     		movs	r3, #3
 1776 001e 8DF80840 		strb	r4, [sp, #8]
 1777              		.loc 16 216 38 view .LVU453
 1778 0022 0DF14500 		add	r0, sp, #69
 1779 0026 8DF80930 		strb	r3, [sp, #9]
 1780              	.LVL134:
 1781              		.loc 16 216 38 view .LVU454
 1782 002a 0299     		ldr	r1, [sp, #8]
 1783 002c FFF7FEFF 		bl	_ZN5daisy16AdcChannelConfig10InitSingleE12dsy_gpio_pin
 1784              	.LVL135:
 217:takshaka.cpp  ****     adcConfig[ growlKnob ].InitSingle( daisy::seed::A2 );
 1785              		.loc 16 217 5 is_stmt 1 view .LVU455
 1786              	.LBB696:
 1787              	.LBI696:
 294:../../libDaisy//src/daisy_core.h ****     {
 1788              		.loc 18 294 5 view .LVU456
 1789              	.LBE696:
 1790              		.loc 18 296 9 view .LVU457
ARM GAS  C:\Users\danst\AppData\Local\Temp\ccwBJjMd.s 			page 61


 1791              	.LBB698:
 1792              	.LBB697:
 1793              	.LBI697:
 217:../../libDaisy//src/daisy_core.h **** {
 1794              		.loc 18 217 27 view .LVU458
 1795              	.LBE697:
 1796              	.LBE698:
 219:../../libDaisy//src/daisy_core.h ****     p.port = port;
 1797              		.loc 18 219 5 view .LVU459
 220:../../libDaisy//src/daisy_core.h ****     p.pin  = pin;
 1798              		.loc 18 220 5 view .LVU460
 221:../../libDaisy//src/daisy_core.h ****     return p;
 1799              		.loc 18 221 5 view .LVU461
 222:../../libDaisy//src/daisy_core.h **** }
 1800              		.loc 18 222 5 view .LVU462
 222:../../libDaisy//src/daisy_core.h **** }
 1801              		.loc 18 222 5 is_stmt 0 view .LVU463
 1802 0030 8DF80C60 		strb	r6, [sp, #12]
 1803 0034 8DF80D60 		strb	r6, [sp, #13]
 1804              	.LVL136:
 1805              		.loc 16 217 38 view .LVU464
 1806 0038 0DF15600 		add	r0, sp, #86
 1807 003c 0399     		ldr	r1, [sp, #12]
 1808 003e FFF7FEFF 		bl	_ZN5daisy16AdcChannelConfig10InitSingleE12dsy_gpio_pin
 1809              	.LVL137:
 218:takshaka.cpp  ****     adcConfig[ howlKnob ].InitSingle( daisy::seed::A3 );
 1810              		.loc 16 218 5 is_stmt 1 view .LVU465
 1811              	.LBB699:
 1812              	.LBI699:
 294:../../libDaisy//src/daisy_core.h ****     {
 1813              		.loc 18 294 5 view .LVU466
 1814              	.LBE699:
 1815              		.loc 18 296 9 view .LVU467
 1816              	.LBB701:
 1817              	.LBB700:
 1818              	.LBI700:
 217:../../libDaisy//src/daisy_core.h **** {
 1819              		.loc 18 217 27 view .LVU468
 1820              	.LBE700:
 1821              	.LBE701:
 219:../../libDaisy//src/daisy_core.h ****     p.port = port;
 1822              		.loc 18 219 5 view .LVU469
 220:../../libDaisy//src/daisy_core.h ****     p.pin  = pin;
 1823              		.loc 18 220 5 view .LVU470
 221:../../libDaisy//src/daisy_core.h ****     return p;
 1824              		.loc 18 221 5 view .LVU471
 222:../../libDaisy//src/daisy_core.h **** }
 1825              		.loc 18 222 5 view .LVU472
 222:../../libDaisy//src/daisy_core.h **** }
 1826              		.loc 18 222 5 is_stmt 0 view .LVU473
 1827 0042 0723     		movs	r3, #7
 1828 0044 8DF81040 		strb	r4, [sp, #16]
 1829              		.loc 16 218 37 view .LVU474
 1830 0048 0DF16700 		add	r0, sp, #103
 1831 004c 8DF81130 		strb	r3, [sp, #17]
 1832              	.LVL138:
 1833              		.loc 16 218 37 view .LVU475
ARM GAS  C:\Users\danst\AppData\Local\Temp\ccwBJjMd.s 			page 62


 1834 0050 0499     		ldr	r1, [sp, #16]
 1835 0052 FFF7FEFF 		bl	_ZN5daisy16AdcChannelConfig10InitSingleE12dsy_gpio_pin
 1836              	.LVL139:
 219:takshaka.cpp  ****     adcConfig[ resKnob ].InitSingle( daisy::seed::A4 );
 1837              		.loc 16 219 5 is_stmt 1 view .LVU476
 1838              	.LBB702:
 1839              	.LBI702:
 294:../../libDaisy//src/daisy_core.h ****     {
 1840              		.loc 18 294 5 view .LVU477
 1841              	.LBE702:
 1842              		.loc 18 296 9 view .LVU478
 1843              	.LBB704:
 1844              	.LBB703:
 1845              	.LBI703:
 217:../../libDaisy//src/daisy_core.h **** {
 1846              		.loc 18 217 27 view .LVU479
 1847              	.LBE703:
 1848              	.LBE704:
 219:../../libDaisy//src/daisy_core.h ****     p.port = port;
 1849              		.loc 18 219 5 view .LVU480
 220:../../libDaisy//src/daisy_core.h ****     p.pin  = pin;
 1850              		.loc 18 220 5 view .LVU481
 221:../../libDaisy//src/daisy_core.h ****     return p;
 1851              		.loc 18 221 5 view .LVU482
 222:../../libDaisy//src/daisy_core.h **** }
 1852              		.loc 18 222 5 view .LVU483
 222:../../libDaisy//src/daisy_core.h **** }
 1853              		.loc 18 222 5 is_stmt 0 view .LVU484
 1854 0056 0623     		movs	r3, #6
 1855 0058 8DF81440 		strb	r4, [sp, #20]
 1856              		.loc 16 219 36 view .LVU485
 1857 005c 1EA8     		add	r0, sp, #120
 1858 005e 8DF81530 		strb	r3, [sp, #21]
 1859              	.LVL140:
 1860              		.loc 16 219 36 view .LVU486
 1861 0062 0599     		ldr	r1, [sp, #20]
 1862 0064 FFF7FEFF 		bl	_ZN5daisy16AdcChannelConfig10InitSingleE12dsy_gpio_pin
 1863              	.LVL141:
 220:takshaka.cpp  ****     adcConfig[ driveKnob ].InitSingle( daisy::seed::A5 );
 1864              		.loc 16 220 5 is_stmt 1 view .LVU487
 1865              	.LBB705:
 1866              	.LBI705:
 294:../../libDaisy//src/daisy_core.h ****     {
 1867              		.loc 18 294 5 view .LVU488
 1868              	.LBE705:
 1869              		.loc 18 296 9 view .LVU489
 1870              	.LBB707:
 1871              	.LBB706:
 1872              	.LBI706:
 217:../../libDaisy//src/daisy_core.h **** {
 1873              		.loc 18 217 27 view .LVU490
 1874              	.LBE706:
 1875              	.LBE707:
 219:../../libDaisy//src/daisy_core.h ****     p.port = port;
 1876              		.loc 18 219 5 view .LVU491
 220:../../libDaisy//src/daisy_core.h ****     p.pin  = pin;
 1877              		.loc 18 220 5 view .LVU492
ARM GAS  C:\Users\danst\AppData\Local\Temp\ccwBJjMd.s 			page 63


 221:../../libDaisy//src/daisy_core.h ****     return p;
 1878              		.loc 18 221 5 view .LVU493
 222:../../libDaisy//src/daisy_core.h **** }
 1879              		.loc 18 222 5 view .LVU494
 222:../../libDaisy//src/daisy_core.h **** }
 1880              		.loc 18 222 5 is_stmt 0 view .LVU495
 1881 0068 8DF81960 		strb	r6, [sp, #25]
 1882              	.LVL142:
 222:../../libDaisy//src/daisy_core.h **** }
 1883              		.loc 18 222 5 view .LVU496
 1884 006c 8DF81850 		strb	r5, [sp, #24]
 1885              		.loc 16 220 38 view .LVU497
 1886 0070 0DF18900 		add	r0, sp, #137
 1887 0074 0699     		ldr	r1, [sp, #24]
 1888 0076 FFF7FEFF 		bl	_ZN5daisy16AdcChannelConfig10InitSingleE12dsy_gpio_pin
 1889              	.LVL143:
 221:takshaka.cpp  ****     adcConfig[ attackKnob ].InitSingle( daisy::seed::A6 );
 1890              		.loc 16 221 5 is_stmt 1 view .LVU498
 1891              	.LBB708:
 1892              	.LBI708:
 294:../../libDaisy//src/daisy_core.h ****     {
 1893              		.loc 18 294 5 view .LVU499
 1894              	.LBE708:
 1895              		.loc 18 296 9 view .LVU500
 1896              	.LBB710:
 1897              	.LBB709:
 1898              	.LBI709:
 217:../../libDaisy//src/daisy_core.h **** {
 1899              		.loc 18 217 27 view .LVU501
 1900              	.LBE709:
 1901              	.LBE710:
 219:../../libDaisy//src/daisy_core.h ****     p.port = port;
 1902              		.loc 18 219 5 view .LVU502
 220:../../libDaisy//src/daisy_core.h ****     p.pin  = pin;
 1903              		.loc 18 220 5 view .LVU503
 221:../../libDaisy//src/daisy_core.h ****     return p;
 1904              		.loc 18 221 5 view .LVU504
 222:../../libDaisy//src/daisy_core.h **** }
 1905              		.loc 18 222 5 view .LVU505
 222:../../libDaisy//src/daisy_core.h **** }
 1906              		.loc 18 222 5 is_stmt 0 view .LVU506
 1907 007a 8DF81C50 		strb	r5, [sp, #28]
 1908 007e 8DF81D70 		strb	r7, [sp, #29]
 1909              	.LVL144:
 1910              		.loc 16 221 39 view .LVU507
 1911 0082 0DF19A00 		add	r0, sp, #154
 1912 0086 0799     		ldr	r1, [sp, #28]
 1913 0088 FFF7FEFF 		bl	_ZN5daisy16AdcChannelConfig10InitSingleE12dsy_gpio_pin
 1914              	.LVL145:
 222:takshaka.cpp  ****     adcConfig[ sustainKnob ].InitSingle( daisy::seed::A7 );
 1915              		.loc 16 222 5 is_stmt 1 view .LVU508
 1916              	.LBB711:
 1917              	.LBI711:
 294:../../libDaisy//src/daisy_core.h ****     {
 1918              		.loc 18 294 5 view .LVU509
 1919              	.LBE711:
 1920              		.loc 18 296 9 view .LVU510
ARM GAS  C:\Users\danst\AppData\Local\Temp\ccwBJjMd.s 			page 64


 1921              	.LBB713:
 1922              	.LBB712:
 1923              	.LBI712:
 217:../../libDaisy//src/daisy_core.h **** {
 1924              		.loc 18 217 27 view .LVU511
 1925              	.LBE712:
 1926              	.LBE713:
 219:../../libDaisy//src/daisy_core.h ****     p.port = port;
 1927              		.loc 18 219 5 view .LVU512
 220:../../libDaisy//src/daisy_core.h ****     p.pin  = pin;
 1928              		.loc 18 220 5 view .LVU513
 221:../../libDaisy//src/daisy_core.h ****     return p;
 1929              		.loc 18 221 5 view .LVU514
 222:../../libDaisy//src/daisy_core.h **** }
 1930              		.loc 18 222 5 view .LVU515
 222:../../libDaisy//src/daisy_core.h **** }
 1931              		.loc 18 222 5 is_stmt 0 view .LVU516
 1932 008c 0523     		movs	r3, #5
 1933 008e 8DF82040 		strb	r4, [sp, #32]
 1934              		.loc 16 222 40 view .LVU517
 1935 0092 0DF1AB00 		add	r0, sp, #171
 1936 0096 8DF82130 		strb	r3, [sp, #33]
 1937              	.LVL146:
 1938              		.loc 16 222 40 view .LVU518
 1939 009a 0899     		ldr	r1, [sp, #32]
 1940 009c FFF7FEFF 		bl	_ZN5daisy16AdcChannelConfig10InitSingleE12dsy_gpio_pin
 1941              	.LVL147:
 223:takshaka.cpp  ****     adcConfig[ decayKnob ].InitSingle( daisy::seed::A8 );
 1942              		.loc 16 223 5 is_stmt 1 view .LVU519
 1943              	.LBB714:
 1944              	.LBI714:
 294:../../libDaisy//src/daisy_core.h ****     {
 1945              		.loc 18 294 5 view .LVU520
 1946              	.LBE714:
 1947              		.loc 18 296 9 view .LVU521
 1948              	.LBB716:
 1949              	.LBB715:
 1950              	.LBI715:
 217:../../libDaisy//src/daisy_core.h **** {
 1951              		.loc 18 217 27 view .LVU522
 1952              	.LBE715:
 1953              	.LBE716:
 219:../../libDaisy//src/daisy_core.h ****     p.port = port;
 1954              		.loc 18 219 5 view .LVU523
 220:../../libDaisy//src/daisy_core.h ****     p.pin  = pin;
 1955              		.loc 18 220 5 view .LVU524
 221:../../libDaisy//src/daisy_core.h ****     return p;
 1956              		.loc 18 221 5 view .LVU525
 222:../../libDaisy//src/daisy_core.h **** }
 1957              		.loc 18 222 5 view .LVU526
 222:../../libDaisy//src/daisy_core.h **** }
 1958              		.loc 18 222 5 is_stmt 0 view .LVU527
 1959 00a0 8DF82440 		strb	r4, [sp, #36]
 1960 00a4 8DF82570 		strb	r7, [sp, #37]
 1961              	.LVL148:
 1962              		.loc 16 223 38 view .LVU528
 1963 00a8 2FA8     		add	r0, sp, #188
ARM GAS  C:\Users\danst\AppData\Local\Temp\ccwBJjMd.s 			page 65


 1964 00aa 0999     		ldr	r1, [sp, #36]
 1965 00ac FFF7FEFF 		bl	_ZN5daisy16AdcChannelConfig10InitSingleE12dsy_gpio_pin
 1966              	.LVL149:
 224:takshaka.cpp  ****     adcConfig[ clawsKnob ].InitSingle( daisy::seed::A9 );
 1967              		.loc 16 224 5 is_stmt 1 view .LVU529
 1968              	.LBB717:
 1969              	.LBI717:
 294:../../libDaisy//src/daisy_core.h ****     {
 1970              		.loc 18 294 5 view .LVU530
 1971              	.LBE717:
 1972              		.loc 18 296 9 view .LVU531
 1973              	.LBB719:
 1974              	.LBB718:
 1975              	.LBI718:
 217:../../libDaisy//src/daisy_core.h **** {
 1976              		.loc 18 217 27 view .LVU532
 1977              	.LBE718:
 1978              	.LBE719:
 219:../../libDaisy//src/daisy_core.h ****     p.port = port;
 1979              		.loc 18 219 5 view .LVU533
 220:../../libDaisy//src/daisy_core.h ****     p.pin  = pin;
 1980              		.loc 18 220 5 view .LVU534
 221:../../libDaisy//src/daisy_core.h ****     return p;
 1981              		.loc 18 221 5 view .LVU535
 222:../../libDaisy//src/daisy_core.h **** }
 1982              		.loc 18 222 5 view .LVU536
 222:../../libDaisy//src/daisy_core.h **** }
 1983              		.loc 18 222 5 is_stmt 0 view .LVU537
 1984 00b0 8DF82960 		strb	r6, [sp, #41]
 1985              	.LVL150:
 222:../../libDaisy//src/daisy_core.h **** }
 1986              		.loc 18 222 5 view .LVU538
 1987 00b4 8DF82840 		strb	r4, [sp, #40]
 1988              		.loc 16 224 38 view .LVU539
 1989 00b8 0DF1CD00 		add	r0, sp, #205
 1990 00bc 0A99     		ldr	r1, [sp, #40]
 1991 00be FFF7FEFF 		bl	_ZN5daisy16AdcChannelConfig10InitSingleE12dsy_gpio_pin
 1992              	.LVL151:
 225:takshaka.cpp  ****     adcConfig[ slitherKnob ].InitSingle( daisy::seed::A10 );
 1993              		.loc 16 225 5 is_stmt 1 view .LVU540
 1994              	.LBB720:
 1995              	.LBI720:
 294:../../libDaisy//src/daisy_core.h ****     {
 1996              		.loc 18 294 5 view .LVU541
 1997              	.LBE720:
 1998              		.loc 18 296 9 view .LVU542
 1999              	.LBB722:
 2000              	.LBB721:
 2001              	.LBI721:
 217:../../libDaisy//src/daisy_core.h **** {
 2002              		.loc 18 217 27 view .LVU543
 2003              	.LBE721:
 2004              	.LBE722:
 219:../../libDaisy//src/daisy_core.h ****     p.port = port;
 2005              		.loc 18 219 5 view .LVU544
 220:../../libDaisy//src/daisy_core.h ****     p.pin  = pin;
 2006              		.loc 18 220 5 view .LVU545
ARM GAS  C:\Users\danst\AppData\Local\Temp\ccwBJjMd.s 			page 66


 221:../../libDaisy//src/daisy_core.h ****     return p;
 2007              		.loc 18 221 5 view .LVU546
 222:../../libDaisy//src/daisy_core.h **** }
 2008              		.loc 18 222 5 view .LVU547
 222:../../libDaisy//src/daisy_core.h **** }
 2009              		.loc 18 222 5 is_stmt 0 view .LVU548
 2010 00c2 8DF82C40 		strb	r4, [sp, #44]
 2011 00c6 8DF82D40 		strb	r4, [sp, #45]
 2012              	.LVL152:
 2013              		.loc 16 225 40 view .LVU549
 2014 00ca 0DF1DE00 		add	r0, sp, #222
 2015 00ce 0B99     		ldr	r1, [sp, #44]
 2016 00d0 FFF7FEFF 		bl	_ZN5daisy16AdcChannelConfig10InitSingleE12dsy_gpio_pin
 2017              	.LVL153:
 226:takshaka.cpp  ****     adcConfig[ slitherDriftModKnob ].InitSingle( daisy::seed::A11 );
 2018              		.loc 16 226 5 is_stmt 1 view .LVU550
 2019              	.LBB723:
 2020              	.LBI723:
 294:../../libDaisy//src/daisy_core.h ****     {
 2021              		.loc 18 294 5 view .LVU551
 2022              	.LBE723:
 2023              		.loc 18 296 9 view .LVU552
 2024              	.LBB725:
 2025              	.LBB724:
 2026              	.LBI724:
 217:../../libDaisy//src/daisy_core.h **** {
 2027              		.loc 18 217 27 view .LVU553
 2028              	.LBE724:
 2029              	.LBE725:
 219:../../libDaisy//src/daisy_core.h ****     p.port = port;
 2030              		.loc 18 219 5 view .LVU554
 220:../../libDaisy//src/daisy_core.h ****     p.pin  = pin;
 2031              		.loc 18 220 5 view .LVU555
 221:../../libDaisy//src/daisy_core.h ****     return p;
 2032              		.loc 18 221 5 view .LVU556
 222:../../libDaisy//src/daisy_core.h **** }
 2033              		.loc 18 222 5 view .LVU557
 227:takshaka.cpp  **** 	hw.adc.Init( adcConfig, ADC_CHANNELS_COUNT );
 2034              		.loc 16 227 13 is_stmt 0 view .LVU558
 2035 00d4 0A4E     		ldr	r6, .L60
 2036 00d6 8DF83040 		strb	r4, [sp, #48]
 226:takshaka.cpp  **** 	hw.adc.Init( adcConfig, ADC_CHANNELS_COUNT );
 2037              		.loc 16 226 48 view .LVU559
 2038 00da 0DF1EF00 		add	r0, sp, #239
 2039 00de 8DF83150 		strb	r5, [sp, #49]
 2040              	.LVL154:
 226:takshaka.cpp  **** 	hw.adc.Init( adcConfig, ADC_CHANNELS_COUNT );
 2041              		.loc 16 226 48 view .LVU560
 2042 00e2 0C99     		ldr	r1, [sp, #48]
 2043 00e4 FFF7FEFF 		bl	_ZN5daisy16AdcChannelConfig10InitSingleE12dsy_gpio_pin
 2044              	.LVL155:
 2045              		.loc 16 227 2 is_stmt 1 view .LVU561
 2046              		.loc 16 227 13 is_stmt 0 view .LVU562
 2047 00e8 3B46     		mov	r3, r7
 2048 00ea 0C22     		movs	r2, #12
 2049 00ec 0DA9     		add	r1, sp, #52
 2050 00ee 3046     		mov	r0, r6
ARM GAS  C:\Users\danst\AppData\Local\Temp\ccwBJjMd.s 			page 67


 2051 00f0 FFF7FEFF 		bl	_ZN5daisy9AdcHandle4InitEPNS_16AdcChannelConfigEjNS0_12OverSamplingE
 2052              	.LVL156:
 228:takshaka.cpp  ****     hw.adc.Start();
 2053              		.loc 16 228 5 is_stmt 1 view .LVU563
 2054              		.loc 16 228 17 is_stmt 0 view .LVU564
 2055 00f4 3046     		mov	r0, r6
 2056 00f6 FFF7FEFF 		bl	_ZN5daisy9AdcHandle5StartEv
 2057              	.LVL157:
 229:takshaka.cpp  **** }
 2058              		.loc 16 229 1 view .LVU565
 2059 00fa 41B0     		add	sp, sp, #260
 2060              		.cfi_def_cfa_offset 20
 2061              		@ sp needed
 2062 00fc F0BD     		pop	{r4, r5, r6, r7, pc}
 2063              	.L61:
 2064 00fe 00BF     		.align	2
 2065              	.L60:
 2066 0100 18000000 		.word	.LANCHOR21+24
 2067              		.cfi_endproc
 2068              	.LFE4792:
 2070              		.section	.text._Z24handleSmartKnobSwitchingv,"ax",%progbits
 2071              		.align	1
 2072              		.p2align 2,,3
 2073              		.global	_Z24handleSmartKnobSwitchingv
 2074              		.syntax unified
 2075              		.thumb
 2076              		.thumb_func
 2077              		.fpu fpv5-d16
 2079              	_Z24handleSmartKnobSwitchingv:
 2080              	.LFB4793:
 230:takshaka.cpp  **** void handleSmartKnobSwitching(){
 2081              		.loc 16 230 32 is_stmt 1 view -0
 2082              		.cfi_startproc
 2083              		@ args = 0, pretend = 0, frame = 0
 2084              		@ frame_needed = 0, uses_anonymous_args = 0
 231:takshaka.cpp  **** 	if( operationMode ){
 2085              		.loc 16 231 2 view .LVU567
 230:takshaka.cpp  **** void handleSmartKnobSwitching(){
 2086              		.loc 16 230 32 is_stmt 0 view .LVU568
 2087 0000 08B5     		push	{r3, lr}
 2088              		.cfi_def_cfa_offset 8
 2089              		.cfi_offset 3, -8
 2090              		.cfi_offset 14, -4
 2091              		.loc 16 231 2 view .LVU569
 2092 0002 2D4B     		ldr	r3, .L65
 232:takshaka.cpp  **** 		subMixSmartKnob.Activate();
 2093              		.loc 16 232 27 view .LVU570
 2094 0004 2D48     		ldr	r0, .L65+4
 231:takshaka.cpp  **** 	if( operationMode ){
 2095              		.loc 16 231 2 view .LVU571
 2096 0006 1B78     		ldrb	r3, [r3]	@ zero_extendqisi2
 2097 0008 53B3     		cbz	r3, .L63
 2098              		.loc 16 232 3 is_stmt 1 view .LVU572
 2099              		.loc 16 232 27 is_stmt 0 view .LVU573
 2100 000a FFF7FEFF 		bl	_ZN7daisysp9SmartKnob8ActivateEv
 2101              	.LVL158:
 233:takshaka.cpp  **** 		subTypeSmartKnob.Deactivate();
ARM GAS  C:\Users\danst\AppData\Local\Temp\ccwBJjMd.s 			page 68


 2102              		.loc 16 233 3 is_stmt 1 view .LVU574
 2103              		.loc 16 233 30 is_stmt 0 view .LVU575
 2104 000e 2C48     		ldr	r0, .L65+8
 2105 0010 FFF7FEFF 		bl	_ZN7daisysp9SmartKnob10DeactivateEv
 2106              	.LVL159:
 234:takshaka.cpp  **** 		filterCutoffSmartKnob.Activate();
 2107              		.loc 16 234 3 is_stmt 1 view .LVU576
 2108              		.loc 16 234 33 is_stmt 0 view .LVU577
 2109 0014 2B48     		ldr	r0, .L65+12
 2110 0016 FFF7FEFF 		bl	_ZN7daisysp9SmartKnob8ActivateEv
 2111              	.LVL160:
 235:takshaka.cpp  **** 		filterTypeSmartKnob.Deactivate();
 2112              		.loc 16 235 3 is_stmt 1 view .LVU578
 2113              		.loc 16 235 33 is_stmt 0 view .LVU579
 2114 001a 2B48     		ldr	r0, .L65+16
 2115 001c FFF7FEFF 		bl	_ZN7daisysp9SmartKnob10DeactivateEv
 2116              	.LVL161:
 236:takshaka.cpp  **** 		filterResSmartKnob.Activate();
 2117              		.loc 16 236 3 is_stmt 1 view .LVU580
 2118              		.loc 16 236 30 is_stmt 0 view .LVU581
 2119 0020 2A48     		ldr	r0, .L65+20
 2120 0022 FFF7FEFF 		bl	_ZN7daisysp9SmartKnob8ActivateEv
 2121              	.LVL162:
 237:takshaka.cpp  **** 		filterPolesSmartKnob.Deactivate();				
 2122              		.loc 16 237 3 is_stmt 1 view .LVU582
 2123              		.loc 16 237 34 is_stmt 0 view .LVU583
 2124 0026 2A48     		ldr	r0, .L65+24
 2125 0028 FFF7FEFF 		bl	_ZN7daisysp9SmartKnob10DeactivateEv
 2126              	.LVL163:
 238:takshaka.cpp  **** 		pounceAttackSmartKnob.Activate();
 2127              		.loc 16 238 3 is_stmt 1 view .LVU584
 2128              		.loc 16 238 33 is_stmt 0 view .LVU585
 2129 002c 2948     		ldr	r0, .L65+28
 2130 002e FFF7FEFF 		bl	_ZN7daisysp9SmartKnob8ActivateEv
 2131              	.LVL164:
 239:takshaka.cpp  **** 		ampEnvAttackSmartKnob.Deactivate();
 2132              		.loc 16 239 3 is_stmt 1 view .LVU586
 2133              		.loc 16 239 35 is_stmt 0 view .LVU587
 2134 0032 2948     		ldr	r0, .L65+32
 2135 0034 FFF7FEFF 		bl	_ZN7daisysp9SmartKnob10DeactivateEv
 2136              	.LVL165:
 240:takshaka.cpp  **** 		pounceSustainSmartKnob.Activate();
 2137              		.loc 16 240 3 is_stmt 1 view .LVU588
 2138              		.loc 16 240 34 is_stmt 0 view .LVU589
 2139 0038 2848     		ldr	r0, .L65+36
 2140 003a FFF7FEFF 		bl	_ZN7daisysp9SmartKnob8ActivateEv
 2141              	.LVL166:
 241:takshaka.cpp  **** 		ampEnvSustainSmartKnob.Deactivate();
 2142              		.loc 16 241 3 is_stmt 1 view .LVU590
 2143              		.loc 16 241 36 is_stmt 0 view .LVU591
 2144 003e 2848     		ldr	r0, .L65+40
 2145 0040 FFF7FEFF 		bl	_ZN7daisysp9SmartKnob10DeactivateEv
 2146              	.LVL167:
 242:takshaka.cpp  **** 		pounceDecaySmartKnob.Activate();
 2147              		.loc 16 242 3 is_stmt 1 view .LVU592
 2148              		.loc 16 242 32 is_stmt 0 view .LVU593
 2149 0044 2748     		ldr	r0, .L65+44
ARM GAS  C:\Users\danst\AppData\Local\Temp\ccwBJjMd.s 			page 69


 2150 0046 FFF7FEFF 		bl	_ZN7daisysp9SmartKnob8ActivateEv
 2151              	.LVL168:
 243:takshaka.cpp  **** 		ampEnvDecaySmartKnob.Deactivate();
 2152              		.loc 16 243 3 is_stmt 1 view .LVU594
 2153              		.loc 16 243 34 is_stmt 0 view .LVU595
 2154 004a 2748     		ldr	r0, .L65+48
 2155 004c FFF7FEFF 		bl	_ZN7daisysp9SmartKnob10DeactivateEv
 2156              	.LVL169:
 244:takshaka.cpp  **** 		ampSmartKnob.Activate();
 2157              		.loc 16 244 3 is_stmt 1 view .LVU596
 2158              		.loc 16 244 24 is_stmt 0 view .LVU597
 2159 0050 2648     		ldr	r0, .L65+52
 2160 0052 FFF7FEFF 		bl	_ZN7daisysp9SmartKnob8ActivateEv
 2161              	.LVL170:
 245:takshaka.cpp  **** 		ampEnvModSmartKnob.Deactivate();
 2162              		.loc 16 245 3 is_stmt 1 view .LVU598
 2163              		.loc 16 245 32 is_stmt 0 view .LVU599
 2164 0056 2648     		ldr	r0, .L65+56
 246:takshaka.cpp  **** 	} else {
 247:takshaka.cpp  **** 		subMixSmartKnob.Deactivate();
 248:takshaka.cpp  **** 		subTypeSmartKnob.Activate();
 249:takshaka.cpp  **** 		filterCutoffSmartKnob.Deactivate();
 250:takshaka.cpp  **** 		filterTypeSmartKnob.Activate();
 251:takshaka.cpp  **** 		filterResSmartKnob.Deactivate();
 252:takshaka.cpp  **** 		filterPolesSmartKnob.Activate();				
 253:takshaka.cpp  **** 		pounceAttackSmartKnob.Deactivate();
 254:takshaka.cpp  **** 		ampEnvAttackSmartKnob.Activate();
 255:takshaka.cpp  **** 		pounceSustainSmartKnob.Deactivate();
 256:takshaka.cpp  **** 		ampEnvSustainSmartKnob.Activate();
 257:takshaka.cpp  **** 		pounceDecaySmartKnob.Deactivate();
 258:takshaka.cpp  **** 		ampEnvDecaySmartKnob.Activate();
 259:takshaka.cpp  **** 		ampSmartKnob.Deactivate();
 260:takshaka.cpp  **** 		ampEnvModSmartKnob.Activate();
 261:takshaka.cpp  **** 	}
 262:takshaka.cpp  **** }
 2165              		.loc 16 262 1 view .LVU600
 2166 0058 BDE80840 		pop	{r3, lr}
 2167              		.cfi_remember_state
 2168              		.cfi_restore 14
 2169              		.cfi_restore 3
 2170              		.cfi_def_cfa_offset 0
 245:takshaka.cpp  **** 		ampEnvModSmartKnob.Deactivate();
 2171              		.loc 16 245 32 view .LVU601
 2172 005c FFF7FEBF 		b	_ZN7daisysp9SmartKnob10DeactivateEv
 2173              	.LVL171:
 2174              	.L63:
 2175              		.cfi_restore_state
 247:takshaka.cpp  **** 		subTypeSmartKnob.Activate();
 2176              		.loc 16 247 3 is_stmt 1 view .LVU602
 247:takshaka.cpp  **** 		subTypeSmartKnob.Activate();
 2177              		.loc 16 247 29 is_stmt 0 view .LVU603
 2178 0060 FFF7FEFF 		bl	_ZN7daisysp9SmartKnob10DeactivateEv
 2179              	.LVL172:
 248:takshaka.cpp  **** 		filterCutoffSmartKnob.Deactivate();
 2180              		.loc 16 248 3 is_stmt 1 view .LVU604
 248:takshaka.cpp  **** 		filterCutoffSmartKnob.Deactivate();
 2181              		.loc 16 248 28 is_stmt 0 view .LVU605
ARM GAS  C:\Users\danst\AppData\Local\Temp\ccwBJjMd.s 			page 70


 2182 0064 1648     		ldr	r0, .L65+8
 2183 0066 FFF7FEFF 		bl	_ZN7daisysp9SmartKnob8ActivateEv
 2184              	.LVL173:
 249:takshaka.cpp  **** 		filterTypeSmartKnob.Activate();
 2185              		.loc 16 249 3 is_stmt 1 view .LVU606
 249:takshaka.cpp  **** 		filterTypeSmartKnob.Activate();
 2186              		.loc 16 249 35 is_stmt 0 view .LVU607
 2187 006a 1648     		ldr	r0, .L65+12
 2188 006c FFF7FEFF 		bl	_ZN7daisysp9SmartKnob10DeactivateEv
 2189              	.LVL174:
 250:takshaka.cpp  **** 		filterResSmartKnob.Deactivate();
 2190              		.loc 16 250 3 is_stmt 1 view .LVU608
 250:takshaka.cpp  **** 		filterResSmartKnob.Deactivate();
 2191              		.loc 16 250 31 is_stmt 0 view .LVU609
 2192 0070 1548     		ldr	r0, .L65+16
 2193 0072 FFF7FEFF 		bl	_ZN7daisysp9SmartKnob8ActivateEv
 2194              	.LVL175:
 251:takshaka.cpp  **** 		filterPolesSmartKnob.Activate();				
 2195              		.loc 16 251 3 is_stmt 1 view .LVU610
 251:takshaka.cpp  **** 		filterPolesSmartKnob.Activate();				
 2196              		.loc 16 251 32 is_stmt 0 view .LVU611
 2197 0076 1548     		ldr	r0, .L65+20
 2198 0078 FFF7FEFF 		bl	_ZN7daisysp9SmartKnob10DeactivateEv
 2199              	.LVL176:
 252:takshaka.cpp  **** 		pounceAttackSmartKnob.Deactivate();
 2200              		.loc 16 252 3 is_stmt 1 view .LVU612
 252:takshaka.cpp  **** 		pounceAttackSmartKnob.Deactivate();
 2201              		.loc 16 252 32 is_stmt 0 view .LVU613
 2202 007c 1448     		ldr	r0, .L65+24
 2203 007e FFF7FEFF 		bl	_ZN7daisysp9SmartKnob8ActivateEv
 2204              	.LVL177:
 253:takshaka.cpp  **** 		ampEnvAttackSmartKnob.Activate();
 2205              		.loc 16 253 3 is_stmt 1 view .LVU614
 253:takshaka.cpp  **** 		ampEnvAttackSmartKnob.Activate();
 2206              		.loc 16 253 35 is_stmt 0 view .LVU615
 2207 0082 1448     		ldr	r0, .L65+28
 2208 0084 FFF7FEFF 		bl	_ZN7daisysp9SmartKnob10DeactivateEv
 2209              	.LVL178:
 254:takshaka.cpp  **** 		pounceSustainSmartKnob.Deactivate();
 2210              		.loc 16 254 3 is_stmt 1 view .LVU616
 254:takshaka.cpp  **** 		pounceSustainSmartKnob.Deactivate();
 2211              		.loc 16 254 33 is_stmt 0 view .LVU617
 2212 0088 1348     		ldr	r0, .L65+32
 2213 008a FFF7FEFF 		bl	_ZN7daisysp9SmartKnob8ActivateEv
 2214              	.LVL179:
 255:takshaka.cpp  **** 		ampEnvSustainSmartKnob.Activate();
 2215              		.loc 16 255 3 is_stmt 1 view .LVU618
 255:takshaka.cpp  **** 		ampEnvSustainSmartKnob.Activate();
 2216              		.loc 16 255 36 is_stmt 0 view .LVU619
 2217 008e 1348     		ldr	r0, .L65+36
 2218 0090 FFF7FEFF 		bl	_ZN7daisysp9SmartKnob10DeactivateEv
 2219              	.LVL180:
 256:takshaka.cpp  **** 		pounceDecaySmartKnob.Deactivate();
 2220              		.loc 16 256 3 is_stmt 1 view .LVU620
 256:takshaka.cpp  **** 		pounceDecaySmartKnob.Deactivate();
 2221              		.loc 16 256 34 is_stmt 0 view .LVU621
 2222 0094 1248     		ldr	r0, .L65+40
ARM GAS  C:\Users\danst\AppData\Local\Temp\ccwBJjMd.s 			page 71


 2223 0096 FFF7FEFF 		bl	_ZN7daisysp9SmartKnob8ActivateEv
 2224              	.LVL181:
 257:takshaka.cpp  **** 		ampEnvDecaySmartKnob.Activate();
 2225              		.loc 16 257 3 is_stmt 1 view .LVU622
 257:takshaka.cpp  **** 		ampEnvDecaySmartKnob.Activate();
 2226              		.loc 16 257 34 is_stmt 0 view .LVU623
 2227 009a 1248     		ldr	r0, .L65+44
 2228 009c FFF7FEFF 		bl	_ZN7daisysp9SmartKnob10DeactivateEv
 2229              	.LVL182:
 258:takshaka.cpp  **** 		ampSmartKnob.Deactivate();
 2230              		.loc 16 258 3 is_stmt 1 view .LVU624
 258:takshaka.cpp  **** 		ampSmartKnob.Deactivate();
 2231              		.loc 16 258 32 is_stmt 0 view .LVU625
 2232 00a0 1148     		ldr	r0, .L65+48
 2233 00a2 FFF7FEFF 		bl	_ZN7daisysp9SmartKnob8ActivateEv
 2234              	.LVL183:
 259:takshaka.cpp  **** 		ampEnvModSmartKnob.Activate();
 2235              		.loc 16 259 3 is_stmt 1 view .LVU626
 259:takshaka.cpp  **** 		ampEnvModSmartKnob.Activate();
 2236              		.loc 16 259 26 is_stmt 0 view .LVU627
 2237 00a6 1148     		ldr	r0, .L65+52
 2238 00a8 FFF7FEFF 		bl	_ZN7daisysp9SmartKnob10DeactivateEv
 2239              	.LVL184:
 260:takshaka.cpp  **** 	}
 2240              		.loc 16 260 3 is_stmt 1 view .LVU628
 260:takshaka.cpp  **** 	}
 2241              		.loc 16 260 30 is_stmt 0 view .LVU629
 2242 00ac 1048     		ldr	r0, .L65+56
 2243              		.loc 16 262 1 view .LVU630
 2244 00ae BDE80840 		pop	{r3, lr}
 2245              		.cfi_restore 14
 2246              		.cfi_restore 3
 2247              		.cfi_def_cfa_offset 0
 260:takshaka.cpp  **** 	}
 2248              		.loc 16 260 30 view .LVU631
 2249 00b2 FFF7FEBF 		b	_ZN7daisysp9SmartKnob8ActivateEv
 2250              	.LVL185:
 2251              	.L66:
 2252 00b6 00BF     		.align	2
 2253              	.L65:
 2254 00b8 00000000 		.word	.LANCHOR33
 2255 00bc 00000000 		.word	.LANCHOR6
 2256 00c0 00000000 		.word	.LANCHOR22
 2257 00c4 00000000 		.word	.LANCHOR10
 2258 00c8 00000000 		.word	.LANCHOR15
 2259 00cc 00000000 		.word	.LANCHOR23
 2260 00d0 00000000 		.word	.LANCHOR16
 2261 00d4 00000000 		.word	.LANCHOR24
 2262 00d8 00000000 		.word	.LANCHOR25
 2263 00dc 00000000 		.word	.LANCHOR26
 2264 00e0 00000000 		.word	.LANCHOR27
 2265 00e4 00000000 		.word	.LANCHOR28
 2266 00e8 00000000 		.word	.LANCHOR29
 2267 00ec 00000000 		.word	.LANCHOR19
 2268 00f0 00000000 		.word	.LANCHOR18
 2269              		.cfi_endproc
 2270              	.LFE4793:
ARM GAS  C:\Users\danst\AppData\Local\Temp\ccwBJjMd.s 			page 72


 2272              		.section	.text._Z14updateSuperSawv,"ax",%progbits
 2273              		.align	1
 2274              		.p2align 2,,3
 2275              		.global	_Z14updateSuperSawv
 2276              		.syntax unified
 2277              		.thumb
 2278              		.thumb_func
 2279              		.fpu fpv5-d16
 2281              	_Z14updateSuperSawv:
 2282              	.LFB4794:
 263:takshaka.cpp  **** void updateSuperSaw(){
 2283              		.loc 16 263 22 is_stmt 1 view -0
 2284              		.cfi_startproc
 2285              		@ args = 0, pretend = 0, frame = 0
 2286              		@ frame_needed = 0, uses_anonymous_args = 0
 264:takshaka.cpp  **** 	superSaw.SetFreq( midiFreq );
 2287              		.loc 16 264 2 view .LVU633
 263:takshaka.cpp  **** void updateSuperSaw(){
 2288              		.loc 16 263 22 is_stmt 0 view .LVU634
 2289 0000 08B5     		push	{r3, lr}
 2290              		.cfi_def_cfa_offset 8
 2291              		.cfi_offset 3, -8
 2292              		.cfi_offset 14, -4
 2293              		.loc 16 264 18 view .LVU635
 2294 0002 074B     		ldr	r3, .L69
 2295 0004 0748     		ldr	r0, .L69+4
 2296 0006 93ED000A 		vldr.32	s0, [r3]
 2297 000a FFF7FEFF 		bl	_ZN7daisysp11SuperSawOsc7SetFreqEf
 2298              	.LVL186:
 265:takshaka.cpp  **** 	superSaw.SetShift( shiftValue );
 2299              		.loc 16 265 2 is_stmt 1 view .LVU636
 2300              		.loc 16 265 19 is_stmt 0 view .LVU637
 2301 000e 064B     		ldr	r3, .L69+8
 2302 0010 0448     		ldr	r0, .L69+4
 2303 0012 93ED000A 		vldr.32	s0, [r3]
 266:takshaka.cpp  **** }
 2304              		.loc 16 266 1 view .LVU638
 2305 0016 BDE80840 		pop	{r3, lr}
 2306              		.cfi_restore 14
 2307              		.cfi_restore 3
 2308              		.cfi_def_cfa_offset 0
 265:takshaka.cpp  **** 	superSaw.SetShift( shiftValue );
 2309              		.loc 16 265 19 view .LVU639
 2310 001a FFF7FEBF 		b	_ZN7daisysp11SuperSawOsc8SetShiftEf
 2311              	.LVL187:
 2312              	.L70:
 2313 001e 00BF     		.align	2
 2314              	.L69:
 2315 0020 00000000 		.word	.LANCHOR11
 2316 0024 00000000 		.word	.LANCHOR3
 2317 0028 00000000 		.word	.LANCHOR5
 2318              		.cfi_endproc
 2319              	.LFE4794:
 2321              		.section	.text._Z12updateSubOscv,"ax",%progbits
 2322              		.align	1
 2323              		.p2align 2,,3
 2324              		.global	_Z12updateSubOscv
ARM GAS  C:\Users\danst\AppData\Local\Temp\ccwBJjMd.s 			page 73


 2325              		.syntax unified
 2326              		.thumb
 2327              		.thumb_func
 2328              		.fpu fpv5-d16
 2330              	_Z12updateSubOscv:
 2331              	.LFB4795:
 267:takshaka.cpp  **** void updateSubOsc(){
 2332              		.loc 16 267 20 is_stmt 1 view -0
 2333              		.cfi_startproc
 2334              		@ args = 0, pretend = 0, frame = 0
 2335              		@ frame_needed = 0, uses_anonymous_args = 0
 268:takshaka.cpp  **** 	subOsc.SetFreq( midiFreq / ( subOscOctave + 1 ) );
 2336              		.loc 16 268 2 view .LVU641
 2337              		.loc 16 268 44 is_stmt 0 view .LVU642
 2338 0000 0A4B     		ldr	r3, .L73
 2339              		.loc 16 268 16 view .LVU643
 2340 0002 0B4A     		ldr	r2, .L73+4
 2341              		.loc 16 268 44 view .LVU644
 2342 0004 1B68     		ldr	r3, [r3]
 2343              		.loc 16 268 16 view .LVU645
 2344 0006 92ED007A 		vldr.32	s14, [r2]
 2345              		.loc 16 268 44 view .LVU646
 2346 000a 0133     		adds	r3, r3, #1
 2347              		.loc 16 268 16 view .LVU647
 2348 000c 07EE903A 		vmov	s15, r3	@ int
 2349 0010 F8EEE77A 		vcvt.f32.s32	s15, s15
 267:takshaka.cpp  **** void updateSubOsc(){
 2350              		.loc 16 267 20 view .LVU648
 2351 0014 10B5     		push	{r4, lr}
 2352              		.cfi_def_cfa_offset 8
 2353              		.cfi_offset 4, -8
 2354              		.cfi_offset 14, -4
 2355              		.loc 16 268 16 view .LVU649
 2356 0016 87EE270A 		vdiv.f32	s0, s14, s15
 2357              	.LVL188:
 2358              	.LBB728:
 2359              	.LBI728:
  58:../../DaisySP//Source/Synthesis/oscillator.h ****     {
 2360              		.loc 8 58 17 is_stmt 1 view .LVU650
 2361              	.LBB729:
  60:../../DaisySP//Source/Synthesis/oscillator.h ****         phase_inc_ = CalcPhaseInc(f);
 2362              		.loc 8 60 9 view .LVU651
  60:../../DaisySP//Source/Synthesis/oscillator.h ****         phase_inc_ = CalcPhaseInc(f);
 2363              		.loc 8 60 20 is_stmt 0 view .LVU652
 2364 001a 064C     		ldr	r4, .L73+8
  61:../../DaisySP//Source/Synthesis/oscillator.h ****     }
 2365              		.loc 8 61 34 view .LVU653
 2366 001c 2046     		mov	r0, r4
  60:../../DaisySP//Source/Synthesis/oscillator.h ****         phase_inc_ = CalcPhaseInc(f);
 2367              		.loc 8 60 20 view .LVU654
 2368 001e 84ED020A 		vstr.32	s0, [r4, #8]
  61:../../DaisySP//Source/Synthesis/oscillator.h ****     }
 2369              		.loc 8 61 9 is_stmt 1 view .LVU655
  61:../../DaisySP//Source/Synthesis/oscillator.h ****     }
 2370              		.loc 8 61 34 is_stmt 0 view .LVU656
 2371 0022 FFF7FEFF 		bl	_ZN7daisysp10Oscillator12CalcPhaseIncEf
 2372              	.LVL189:
ARM GAS  C:\Users\danst\AppData\Local\Temp\ccwBJjMd.s 			page 74


  61:../../DaisySP//Source/Synthesis/oscillator.h ****     }
 2373              		.loc 8 61 20 view .LVU657
 2374 0026 84ED060A 		vstr.32	s0, [r4, #24]
 2375              	.LVL190:
  61:../../DaisySP//Source/Synthesis/oscillator.h ****     }
 2376              		.loc 8 61 20 view .LVU658
 2377              	.LBE729:
 2378              	.LBE728:
 269:takshaka.cpp  **** }
 2379              		.loc 16 269 1 view .LVU659
 2380 002a 10BD     		pop	{r4, pc}
 2381              	.L74:
 2382              		.align	2
 2383              	.L73:
 2384 002c 00000000 		.word	.LANCHOR32
 2385 0030 00000000 		.word	.LANCHOR11
 2386 0034 00000000 		.word	.LANCHOR7
 2387              		.cfi_endproc
 2388              	.LFE4795:
 2390              		.section	.text._Z16updateDistortionv,"ax",%progbits
 2391              		.align	1
 2392              		.p2align 2,,3
 2393              		.global	_Z16updateDistortionv
 2394              		.syntax unified
 2395              		.thumb
 2396              		.thumb_func
 2397              		.fpu fpv5-d16
 2399              	_Z16updateDistortionv:
 2400              	.LFB4796:
 270:takshaka.cpp  **** void updateDistortion(){
 2401              		.loc 16 270 24 is_stmt 1 view -0
 2402              		.cfi_startproc
 2403              		@ args = 0, pretend = 0, frame = 0
 2404              		@ frame_needed = 0, uses_anonymous_args = 0
 2405              		@ link register save eliminated.
 271:takshaka.cpp  **** 	distortion.SetDrive( fmap( driveValue, 0.25, 0.9 ) );
 2406              		.loc 16 271 2 view .LVU661
 2407              	.LVL191:
 2408              	.LBB737:
 2409              	.LBI737:
 161:../../DaisySP//Source/Utility/dsp.h **** {
 2410              		.loc 17 161 1 view .LVU662
 2411              	.LBE737:
 163:../../DaisySP//Source/Utility/dsp.h ****     {
 2412              		.loc 17 163 5 view .LVU663
 2413              	.LBB751:
 2414              	.LBB738:
 172:../../DaisySP//Source/Utility/dsp.h ****         default: return fclamp(min + in * (max - min), min, max);
 2415              		.loc 17 172 9 view .LVU664
 2416              		.loc 17 173 9 view .LVU665
 2417              		.loc 17 173 18 view .LVU666
 2418              		.loc 17 173 31 is_stmt 0 view .LVU667
 2419 0000 F5EE007A 		vmov.f32	s15, #2.5e-1
 2420              	.LBE738:
 2421              	.LBE751:
 2422              		.loc 16 271 21 view .LVU668
 2423 0004 084B     		ldr	r3, .L76
ARM GAS  C:\Users\danst\AppData\Local\Temp\ccwBJjMd.s 			page 75


 2424              	.LBB752:
 2425              	.LBB748:
 2426              		.loc 17 173 31 view .LVU669
 2427 0006 DFED096A 		vldr.32	s13, .L76+4
 2428 000a 93ED006A 		vldr.32	s12, [r3]
 2429 000e B0EE670A 		vmov.f32	s0, s15
 2430              	.LBB739:
 2431              	.LBB740:
 2432              	.LBB741:
  47:../../DaisySP//Source/Utility/dsp.h **** #else
 2433              		.loc 17 47 5 view .LVU670
 2434 0012 9FED077A 		vldr.32	s14, .L76+8
 2435              	.LBE741:
 2436              	.LBE740:
 2437              	.LBE739:
 2438              	.LBE748:
 2439              	.LBE752:
 2440              		.loc 16 271 21 view .LVU671
 2441 0016 0748     		ldr	r0, .L76+12
 2442              	.LBB753:
 2443              	.LBB749:
 2444              		.loc 17 173 31 view .LVU672
 2445 0018 A6EE260A 		vfma.f32	s0, s12, s13
 2446              	.LVL192:
 2447              	.LBB746:
 2448              	.LBI739:
  56:../../DaisySP//Source/Utility/dsp.h **** {
 2449              		.loc 17 56 14 is_stmt 1 view .LVU673
 2450              	.LBE746:
 2451              	.LBE749:
 2452              	.LBE753:
  58:../../DaisySP//Source/Utility/dsp.h **** }
 2453              		.loc 17 58 5 view .LVU674
 2454              	.LBB754:
 2455              	.LBB750:
 2456              	.LBB747:
 2457              	.LBB743:
 2458              	.LBI743:
  32:../../DaisySP//Source/Utility/dsp.h **** {
 2459              		.loc 17 32 14 view .LVU675
 2460              	.LBB744:
  34:../../DaisySP//Source/Utility/dsp.h **** #ifdef __arm__
 2461              		.loc 17 34 5 view .LVU676
  36:../../DaisySP//Source/Utility/dsp.h **** #else
 2462              		.loc 17 36 5 view .LVU677
 2463              		.syntax unified
 2464              	@ 36 "../../DaisySP//Source/Utility/dsp.h" 1
 2465 001c 80FE270A 		vmaxnm.f32 s0, s0, s15
 2466              	@ 0 "" 2
 2467              	.LVL193:
  40:../../DaisySP//Source/Utility/dsp.h **** }
 2468              		.loc 17 40 5 view .LVU678
  40:../../DaisySP//Source/Utility/dsp.h **** }
 2469              		.loc 17 40 5 is_stmt 0 view .LVU679
 2470              		.thumb
 2471              		.syntax unified
 2472              	.LBE744:
ARM GAS  C:\Users\danst\AppData\Local\Temp\ccwBJjMd.s 			page 76


 2473              	.LBE743:
 2474              	.LBB745:
 2475              	.LBI740:
  43:../../DaisySP//Source/Utility/dsp.h **** {
 2476              		.loc 17 43 14 is_stmt 1 view .LVU680
 2477              	.LBB742:
  45:../../DaisySP//Source/Utility/dsp.h **** #ifdef __arm__
 2478              		.loc 17 45 5 view .LVU681
  47:../../DaisySP//Source/Utility/dsp.h **** #else
 2479              		.loc 17 47 5 view .LVU682
 2480              		.syntax unified
 2481              	@ 47 "../../DaisySP//Source/Utility/dsp.h" 1
 2482 0020 80FE470A 		vminnm.f32 s0, s0, s14
 2483              	@ 0 "" 2
 2484              	.LVL194:
  51:../../DaisySP//Source/Utility/dsp.h **** }
 2485              		.loc 17 51 5 view .LVU683
  51:../../DaisySP//Source/Utility/dsp.h **** }
 2486              		.loc 17 51 5 is_stmt 0 view .LVU684
 2487              		.thumb
 2488              		.syntax unified
 2489              	.LBE742:
 2490              	.LBE745:
 2491              	.LBE747:
 2492              	.LBE750:
 2493              	.LBE754:
 2494              		.loc 16 271 21 view .LVU685
 2495 0024 FFF7FEBF 		b	_ZN7daisysp9Overdrive8SetDriveEf
 2496              	.LVL195:
 2497              	.L77:
 2498              		.align	2
 2499              	.L76:
 2500 0028 00000000 		.word	.LANCHOR30
 2501 002c 6666263F 		.word	1059481190
 2502 0030 6666663F 		.word	1063675494
 2503 0034 00000000 		.word	.LANCHOR9
 2504              		.cfi_endproc
 2505              	.LFE4796:
 2507              		.section	.text._Z13updateFiltersv,"ax",%progbits
 2508              		.align	1
 2509              		.p2align 2,,3
 2510              		.global	_Z13updateFiltersv
 2511              		.syntax unified
 2512              		.thumb
 2513              		.thumb_func
 2514              		.fpu fpv5-d16
 2516              	_Z13updateFiltersv:
 2517              	.LFB4797:
 272:takshaka.cpp  **** }
 273:takshaka.cpp  **** void updateFilters(){
 2518              		.loc 16 273 21 is_stmt 1 view -0
 2519              		.cfi_startproc
 2520              		@ args = 0, pretend = 0, frame = 8
 2521              		@ frame_needed = 0, uses_anonymous_args = 0
 274:takshaka.cpp  **** 	float resValue = fmap( filterResSmartKnob.GetValue(), 0.0, 0.85 );
 2522              		.loc 16 274 2 view .LVU687
 273:takshaka.cpp  **** 	float resValue = fmap( filterResSmartKnob.GetValue(), 0.0, 0.85 );
ARM GAS  C:\Users\danst\AppData\Local\Temp\ccwBJjMd.s 			page 77


 2523              		.loc 16 273 21 is_stmt 0 view .LVU688
 2524 0000 10B5     		push	{r4, lr}
 2525              		.cfi_def_cfa_offset 8
 2526              		.cfi_offset 4, -8
 2527              		.cfi_offset 14, -4
 2528              		.loc 16 274 23 view .LVU689
 2529 0002 174C     		ldr	r4, .L80
 273:takshaka.cpp  **** 	float resValue = fmap( filterResSmartKnob.GetValue(), 0.0, 0.85 );
 2530              		.loc 16 273 21 view .LVU690
 2531 0004 2DED028B 		vpush.64	{d8}
 2532              		.cfi_def_cfa_offset 16
 2533              		.cfi_offset 80, -16
 2534              		.cfi_offset 81, -12
 2535              	.LBB755:
 2536              	.LBB756:
 2537              		.loc 17 173 31 view .LVU691
 2538 0008 9FED168A 		vldr.32	s16, .L80+4
 2539              	.LBE756:
 2540              	.LBE755:
 273:takshaka.cpp  **** 	float resValue = fmap( filterResSmartKnob.GetValue(), 0.0, 0.85 );
 2541              		.loc 16 273 21 view .LVU692
 2542 000c 82B0     		sub	sp, sp, #8
 2543              		.cfi_def_cfa_offset 24
 2544              		.loc 16 274 23 view .LVU693
 2545 000e 2046     		mov	r0, r4
 2546 0010 FFF7FEFF 		bl	_ZN7daisysp9SmartKnob8GetValueEv
 2547              	.LVL196:
 2548              	.LBB766:
 2549              	.LBI755:
 161:../../DaisySP//Source/Utility/dsp.h **** {
 2550              		.loc 17 161 1 is_stmt 1 view .LVU694
 2551              	.LBE766:
 163:../../DaisySP//Source/Utility/dsp.h ****     {
 2552              		.loc 17 163 5 view .LVU695
 2553              	.LBB767:
 2554              	.LBB763:
 172:../../DaisySP//Source/Utility/dsp.h ****         default: return fclamp(min + in * (max - min), min, max);
 2555              		.loc 17 172 9 view .LVU696
 2556              		.loc 17 173 9 view .LVU697
 2557              		.loc 17 173 18 view .LVU698
 2558              		.loc 17 173 31 is_stmt 0 view .LVU699
 2559 0014 F0EE487A 		vmov.f32	s15, s16
 2560 0018 9FED137A 		vldr.32	s14, .L80+8
 2561              	.LBE763:
 2562              	.LBE767:
 275:takshaka.cpp  **** 	filter1.SetRes( resValue );
 2563              		.loc 16 275 16 view .LVU700
 2564 001c 1348     		ldr	r0, .L80+12
 2565              	.LBB768:
 2566              	.LBB764:
 2567              		.loc 17 173 31 view .LVU701
 2568 001e E0EE077A 		vfma.f32	s15, s0, s14
 2569              	.LVL197:
 2570              	.LBB757:
 2571              	.LBI757:
  56:../../DaisySP//Source/Utility/dsp.h **** {
 2572              		.loc 17 56 14 is_stmt 1 view .LVU702
ARM GAS  C:\Users\danst\AppData\Local\Temp\ccwBJjMd.s 			page 78


 2573              	.LBE757:
 2574              	.LBE764:
 2575              	.LBE768:
  58:../../DaisySP//Source/Utility/dsp.h **** }
 2576              		.loc 17 58 5 view .LVU703
 2577              	.LBB769:
 2578              	.LBB765:
 2579              	.LBB762:
 2580              	.LBB758:
 2581              	.LBI758:
  32:../../DaisySP//Source/Utility/dsp.h **** {
 2582              		.loc 17 32 14 view .LVU704
 2583              	.LBB759:
  34:../../DaisySP//Source/Utility/dsp.h **** #ifdef __arm__
 2584              		.loc 17 34 5 view .LVU705
  36:../../DaisySP//Source/Utility/dsp.h **** #else
 2585              		.loc 17 36 5 view .LVU706
 2586              		.syntax unified
 2587              	@ 36 "../../DaisySP//Source/Utility/dsp.h" 1
 2588 0022 87FE880A 		vmaxnm.f32 s0, s15, s16
 2589              	@ 0 "" 2
 2590              	.LVL198:
  40:../../DaisySP//Source/Utility/dsp.h **** }
 2591              		.loc 17 40 5 view .LVU707
  40:../../DaisySP//Source/Utility/dsp.h **** }
 2592              		.loc 17 40 5 is_stmt 0 view .LVU708
 2593              		.thumb
 2594              		.syntax unified
 2595              	.LBE759:
 2596              	.LBE758:
 2597              	.LBB760:
 2598              	.LBI760:
  43:../../DaisySP//Source/Utility/dsp.h **** {
 2599              		.loc 17 43 14 is_stmt 1 view .LVU709
 2600              	.LBB761:
  45:../../DaisySP//Source/Utility/dsp.h **** #ifdef __arm__
 2601              		.loc 17 45 5 view .LVU710
  47:../../DaisySP//Source/Utility/dsp.h **** #else
 2602              		.loc 17 47 5 view .LVU711
 2603              		.syntax unified
 2604              	@ 47 "../../DaisySP//Source/Utility/dsp.h" 1
 2605 0026 80FE470A 		vminnm.f32 s0, s0, s14
 2606              	@ 0 "" 2
 2607              	.LVL199:
  51:../../DaisySP//Source/Utility/dsp.h **** }
 2608              		.loc 17 51 5 view .LVU712
  51:../../DaisySP//Source/Utility/dsp.h **** }
 2609              		.loc 17 51 5 is_stmt 0 view .LVU713
 2610              		.thumb
 2611              		.syntax unified
 2612              	.LBE761:
 2613              	.LBE760:
 2614              	.LBE762:
 2615              	.LBE765:
 2616              	.LBE769:
 2617              		.loc 16 275 2 is_stmt 1 view .LVU714
 2618              		.loc 16 275 16 is_stmt 0 view .LVU715
ARM GAS  C:\Users\danst\AppData\Local\Temp\ccwBJjMd.s 			page 79


 2619 002a 8DED010A 		vstr.32	s0, [sp, #4]	@ int
 2620 002e FFF7FEFF 		bl	_ZN7daisysp3Svf6SetResEf
 2621              	.LVL200:
 276:takshaka.cpp  **** 	filter2.SetRes( resValue );	
 2622              		.loc 16 276 2 is_stmt 1 view .LVU716
 2623              		.loc 16 276 16 is_stmt 0 view .LVU717
 2624 0032 9DED010A 		vldr.32	s0, [sp, #4]	@ int
 2625 0036 0E48     		ldr	r0, .L80+16
 2626 0038 FFF7FEFF 		bl	_ZN7daisysp3Svf6SetResEf
 2627              	.LVL201:
 277:takshaka.cpp  **** 	combFilter.SetRevTime( fmap( filterResSmartKnob.GetValue(), 0.0, 1.0 ) );
 2628              		.loc 16 277 2 is_stmt 1 view .LVU718
 2629              		.loc 16 277 23 is_stmt 0 view .LVU719
 2630 003c 2046     		mov	r0, r4
 2631 003e FFF7FEFF 		bl	_ZN7daisysp9SmartKnob8GetValueEv
 2632              	.LVL202:
 2633              	.LBB770:
 2634              	.LBI770:
 161:../../DaisySP//Source/Utility/dsp.h **** {
 2635              		.loc 17 161 1 is_stmt 1 view .LVU720
 2636              	.LBE770:
 163:../../DaisySP//Source/Utility/dsp.h ****     {
 2637              		.loc 17 163 5 view .LVU721
 2638              	.LBB785:
 2639              	.LBB771:
 172:../../DaisySP//Source/Utility/dsp.h ****         default: return fclamp(min + in * (max - min), min, max);
 2640              		.loc 17 172 9 view .LVU722
 2641              		.loc 17 173 9 view .LVU723
 2642              		.loc 17 173 18 view .LVU724
 2643              	.LBB772:
 2644              	.LBI772:
  56:../../DaisySP//Source/Utility/dsp.h **** {
 2645              		.loc 17 56 14 view .LVU725
 2646              	.LBE772:
 2647              	.LBE771:
 2648              	.LBE785:
  58:../../DaisySP//Source/Utility/dsp.h **** }
 2649              		.loc 17 58 5 view .LVU726
 2650              	.LBB786:
 2651              	.LBB783:
 2652              	.LBB781:
 2653              	.LBB773:
 2654              	.LBI773:
  32:../../DaisySP//Source/Utility/dsp.h **** {
 2655              		.loc 17 32 14 view .LVU727
 2656              	.LBB774:
  34:../../DaisySP//Source/Utility/dsp.h **** #ifdef __arm__
 2657              		.loc 17 34 5 view .LVU728
  36:../../DaisySP//Source/Utility/dsp.h **** #else
 2658              		.loc 17 36 5 view .LVU729
 2659              	.LBE774:
 2660              	.LBE773:
 2661              	.LBB776:
 2662              	.LBB777:
  47:../../DaisySP//Source/Utility/dsp.h **** #else
 2663              		.loc 17 47 5 is_stmt 0 view .LVU730
 2664 0042 F7EE007A 		vmov.f32	s15, #1.0e+0
ARM GAS  C:\Users\danst\AppData\Local\Temp\ccwBJjMd.s 			page 80


 2665              	.LBE777:
 2666              	.LBE776:
 2667              	.LBE781:
 2668              	.LBE783:
 2669              	.LBE786:
 2670              	.LBB787:
 2671              	.LBB788:
  46:../../DaisySP//Source/Filters/comb.h ****         }
  47:../../DaisySP//Source/Filters/comb.h ****     }
  48:../../DaisySP//Source/Filters/comb.h **** 
  49:../../DaisySP//Source/Filters/comb.h ****     /** Sets the decay time of the comb filter
  50:../../DaisySP//Source/Filters/comb.h ****     */
  51:../../DaisySP//Source/Filters/comb.h ****     inline void SetRevTime(float revtime) { rev_time_ = revtime; }
 2672              		.loc 11 51 55 view .LVU731
 2673 0046 0B4B     		ldr	r3, .L80+20
 2674              	.LBE788:
 2675              	.LBE787:
 2676              	.LBB790:
 2677              	.LBB784:
 2678              		.loc 17 173 31 view .LVU732
 2679 0048 30EE080A 		vadd.f32	s0, s0, s16
 2680              	.LVL203:
 2681              	.LBB782:
 2682              	.LBB779:
 2683              	.LBB775:
  36:../../DaisySP//Source/Utility/dsp.h **** #else
 2684              		.loc 17 36 5 view .LVU733
 2685              		.syntax unified
 2686              	@ 36 "../../DaisySP//Source/Utility/dsp.h" 1
 2687 004c 80FE080A 		vmaxnm.f32 s0, s0, s16
 2688              	@ 0 "" 2
 2689              	.LVL204:
  40:../../DaisySP//Source/Utility/dsp.h **** }
 2690              		.loc 17 40 5 is_stmt 1 view .LVU734
  40:../../DaisySP//Source/Utility/dsp.h **** }
 2691              		.loc 17 40 5 is_stmt 0 view .LVU735
 2692              		.thumb
 2693              		.syntax unified
 2694              	.LBE775:
 2695              	.LBE779:
 2696              	.LBB780:
 2697              	.LBI776:
  43:../../DaisySP//Source/Utility/dsp.h **** {
 2698              		.loc 17 43 14 is_stmt 1 view .LVU736
 2699              	.LBB778:
  45:../../DaisySP//Source/Utility/dsp.h **** #ifdef __arm__
 2700              		.loc 17 45 5 view .LVU737
  47:../../DaisySP//Source/Utility/dsp.h **** #else
 2701              		.loc 17 47 5 view .LVU738
 2702              		.syntax unified
 2703              	@ 47 "../../DaisySP//Source/Utility/dsp.h" 1
 2704 0050 80FE670A 		vminnm.f32 s0, s0, s15
 2705              	@ 0 "" 2
 2706              	.LVL205:
  51:../../DaisySP//Source/Utility/dsp.h **** }
 2707              		.loc 17 51 5 view .LVU739
  51:../../DaisySP//Source/Utility/dsp.h **** }
ARM GAS  C:\Users\danst\AppData\Local\Temp\ccwBJjMd.s 			page 81


 2708              		.loc 17 51 5 is_stmt 0 view .LVU740
 2709              		.thumb
 2710              		.syntax unified
 2711              	.LBE778:
 2712              	.LBE780:
 2713              	.LBE782:
 2714              	.LBE784:
 2715              	.LBE790:
 2716              	.LBB791:
 2717              	.LBI787:
 2718              		.loc 11 51 17 is_stmt 1 view .LVU741
 2719              	.LBB789:
 2720              		.loc 11 51 45 view .LVU742
 2721              		.loc 11 51 55 is_stmt 0 view .LVU743
 2722 0054 83ED010A 		vstr.32	s0, [r3, #4]
 2723              	.LVL206:
 2724              		.loc 11 51 55 view .LVU744
 2725              	.LBE789:
 2726              	.LBE791:
 278:takshaka.cpp  **** }
 2727              		.loc 16 278 1 view .LVU745
 2728 0058 02B0     		add	sp, sp, #8
 2729              		.cfi_def_cfa_offset 16
 2730              		@ sp needed
 2731 005a BDEC028B 		vldm	sp!, {d8}
 2732              		.cfi_restore 80
 2733              		.cfi_restore 81
 2734              		.cfi_def_cfa_offset 8
 2735 005e 10BD     		pop	{r4, pc}
 2736              	.L81:
 2737              		.align	2
 2738              	.L80:
 2739 0060 00000000 		.word	.LANCHOR23
 2740 0064 00000000 		.word	0
 2741 0068 9A99593F 		.word	1062836634
 2742 006c 00000000 		.word	.LANCHOR12
 2743 0070 00000000 		.word	.LANCHOR13
 2744 0074 00000000 		.word	.LANCHOR14
 2745              		.cfi_endproc
 2746              	.LFE4797:
 2748              		.section	.text._Z12updatePouncev,"ax",%progbits
 2749              		.align	1
 2750              		.p2align 2,,3
 2751              		.global	_Z12updatePouncev
 2752              		.syntax unified
 2753              		.thumb
 2754              		.thumb_func
 2755              		.fpu fpv5-d16
 2757              	_Z12updatePouncev:
 2758              	.LFB4798:
 279:takshaka.cpp  **** void updatePounce(){
 2759              		.loc 16 279 20 is_stmt 1 view -0
 2760              		.cfi_startproc
 2761              		@ args = 0, pretend = 0, frame = 0
 2762              		@ frame_needed = 0, uses_anonymous_args = 0
 280:takshaka.cpp  **** 	pounce.SetAttackTime( fmap( pounceAttackSmartKnob.GetValue(), 0.005, 4.0 ) );
 2763              		.loc 16 280 2 view .LVU747
ARM GAS  C:\Users\danst\AppData\Local\Temp\ccwBJjMd.s 			page 82


 279:takshaka.cpp  **** void updatePounce(){
 2764              		.loc 16 279 20 is_stmt 0 view .LVU748
 2765 0000 10B5     		push	{r4, lr}
 2766              		.cfi_def_cfa_offset 8
 2767              		.cfi_offset 4, -8
 2768              		.cfi_offset 14, -4
 2769              		.loc 16 280 22 view .LVU749
 2770 0002 2A48     		ldr	r0, .L87
 279:takshaka.cpp  **** void updatePounce(){
 2771              		.loc 16 279 20 view .LVU750
 2772 0004 2DED048B 		vpush.64	{d8, d9}
 2773              		.cfi_def_cfa_offset 24
 2774              		.cfi_offset 80, -24
 2775              		.cfi_offset 81, -20
 2776              		.cfi_offset 82, -16
 2777              		.cfi_offset 83, -12
 2778              		.loc 16 280 22 view .LVU751
 2779 0008 FFF7FEFF 		bl	_ZN7daisysp9SmartKnob8GetValueEv
 2780              	.LVL207:
 2781              	.LBB792:
 2782              	.LBI792:
 161:../../DaisySP//Source/Utility/dsp.h **** {
 2783              		.loc 17 161 1 is_stmt 1 view .LVU752
 2784              	.LBE792:
 163:../../DaisySP//Source/Utility/dsp.h ****     {
 2785              		.loc 17 163 5 view .LVU753
 2786              	.LBB806:
 2787              	.LBB793:
 172:../../DaisySP//Source/Utility/dsp.h ****         default: return fclamp(min + in * (max - min), min, max);
 2788              		.loc 17 172 9 view .LVU754
 2789              		.loc 17 173 9 view .LVU755
 2790              		.loc 17 173 18 view .LVU756
 2791              		.loc 17 173 31 is_stmt 0 view .LVU757
 2792 000c 9FED287A 		vldr.32	s14, .L87+4
 2793 0010 DFED286A 		vldr.32	s13, .L87+8
 2794 0014 F0EE477A 		vmov.f32	s15, s14
 2795              	.LBE793:
 2796              	.LBE806:
 2797              		.loc 16 280 22 view .LVU758
 2798 0018 DFED270A 		vldr.32	s1, .L87+12
 2799 001c 2748     		ldr	r0, .L87+16
 2800              	.LBB807:
 2801              	.LBB804:
 2802              		.loc 17 173 31 view .LVU759
 2803 001e E0EE267A 		vfma.f32	s15, s0, s13
 2804              	.LVL208:
 2805              	.LBB794:
 2806              	.LBI794:
  56:../../DaisySP//Source/Utility/dsp.h **** {
 2807              		.loc 17 56 14 is_stmt 1 view .LVU760
 2808              	.LBE794:
 2809              	.LBE804:
 2810              	.LBE807:
  58:../../DaisySP//Source/Utility/dsp.h **** }
 2811              		.loc 17 58 5 view .LVU761
 2812              	.LBB808:
 2813              	.LBB805:
ARM GAS  C:\Users\danst\AppData\Local\Temp\ccwBJjMd.s 			page 83


 2814              	.LBB803:
 2815              	.LBB795:
 2816              	.LBI795:
  32:../../DaisySP//Source/Utility/dsp.h **** {
 2817              		.loc 17 32 14 view .LVU762
 2818              	.LBB796:
  34:../../DaisySP//Source/Utility/dsp.h **** #ifdef __arm__
 2819              		.loc 17 34 5 view .LVU763
  36:../../DaisySP//Source/Utility/dsp.h **** #else
 2820              		.loc 17 36 5 view .LVU764
 2821              	.LBE796:
 2822              	.LBE795:
 2823              	.LBB798:
 2824              	.LBB799:
  47:../../DaisySP//Source/Utility/dsp.h **** #else
 2825              		.loc 17 47 5 is_stmt 0 view .LVU765
 2826 0022 B1EE000A 		vmov.f32	s0, #4.0e+0
 2827              	.LVL209:
  47:../../DaisySP//Source/Utility/dsp.h **** #else
 2828              		.loc 17 47 5 view .LVU766
 2829              	.LBE799:
 2830              	.LBE798:
 2831              	.LBB801:
 2832              	.LBB797:
  36:../../DaisySP//Source/Utility/dsp.h **** #else
 2833              		.loc 17 36 5 view .LVU767
 2834              		.syntax unified
 2835              	@ 36 "../../DaisySP//Source/Utility/dsp.h" 1
 2836 0026 C7FE877A 		vmaxnm.f32 s15, s15, s14
 2837              	@ 0 "" 2
 2838              	.LVL210:
  40:../../DaisySP//Source/Utility/dsp.h **** }
 2839              		.loc 17 40 5 is_stmt 1 view .LVU768
  40:../../DaisySP//Source/Utility/dsp.h **** }
 2840              		.loc 17 40 5 is_stmt 0 view .LVU769
 2841              		.thumb
 2842              		.syntax unified
 2843              	.LBE797:
 2844              	.LBE801:
 2845              	.LBB802:
 2846              	.LBI798:
  43:../../DaisySP//Source/Utility/dsp.h **** {
 2847              		.loc 17 43 14 is_stmt 1 view .LVU770
 2848              	.LBB800:
  45:../../DaisySP//Source/Utility/dsp.h **** #ifdef __arm__
 2849              		.loc 17 45 5 view .LVU771
  47:../../DaisySP//Source/Utility/dsp.h **** #else
 2850              		.loc 17 47 5 view .LVU772
 2851              		.syntax unified
 2852              	@ 47 "../../DaisySP//Source/Utility/dsp.h" 1
 2853 002a 87FEC00A 		vminnm.f32 s0, s15, s0
 2854              	@ 0 "" 2
 2855              	.LVL211:
  51:../../DaisySP//Source/Utility/dsp.h **** }
 2856              		.loc 17 51 5 view .LVU773
  51:../../DaisySP//Source/Utility/dsp.h **** }
 2857              		.loc 17 51 5 is_stmt 0 view .LVU774
ARM GAS  C:\Users\danst\AppData\Local\Temp\ccwBJjMd.s 			page 84


 2858              		.thumb
 2859              		.syntax unified
 2860              	.LBE800:
 2861              	.LBE802:
 2862              	.LBE803:
 2863              	.LBE805:
 2864              	.LBE808:
 2865              		.loc 16 280 22 view .LVU775
 2866 002e FFF7FEFF 		bl	_ZN7daisysp4Adsr13SetAttackTimeEff
 2867              	.LVL212:
 281:takshaka.cpp  **** 	pounce.SetSustainLevel( pounceSustainSmartKnob.GetValue() );
 2868              		.loc 16 281 2 is_stmt 1 view .LVU776
 2869              		.loc 16 281 24 is_stmt 0 view .LVU777
 2870 0032 2348     		ldr	r0, .L87+20
 2871 0034 FFF7FEFF 		bl	_ZN7daisysp9SmartKnob8GetValueEv
 2872              	.LVL213:
 2873              	.LBB809:
 2874              	.LBI809:
  38:../../DaisySP//Source/Control/adsr.h ****     /** Initializes the Adsr module.
  39:../../DaisySP//Source/Control/adsr.h ****         \param sample_rate - The sample rate of the audio engine being run. 
  40:../../DaisySP//Source/Control/adsr.h ****     */
  41:../../DaisySP//Source/Control/adsr.h ****     void Init(float sample_rate, int blockSize = 1);
  42:../../DaisySP//Source/Control/adsr.h ****     /**
  43:../../DaisySP//Source/Control/adsr.h ****      \function Retrigger forces the envelope back to attack phase
  44:../../DaisySP//Source/Control/adsr.h ****      \param hard  resets the history to zero, results in a click.
  45:../../DaisySP//Source/Control/adsr.h ****      */
  46:../../DaisySP//Source/Control/adsr.h ****     void Retrigger(bool hard);
  47:../../DaisySP//Source/Control/adsr.h ****     /** Processes one sample through the filter and returns one sample.
  48:../../DaisySP//Source/Control/adsr.h ****         \param gate - trigger the envelope, hold it to sustain 
  49:../../DaisySP//Source/Control/adsr.h ****     */
  50:../../DaisySP//Source/Control/adsr.h ****     float Process(bool gate);
  51:../../DaisySP//Source/Control/adsr.h ****     /** Sets time
  52:../../DaisySP//Source/Control/adsr.h ****         Set time per segment in seconds
  53:../../DaisySP//Source/Control/adsr.h ****     */
  54:../../DaisySP//Source/Control/adsr.h ****     void SetTime(int seg, float time);
  55:../../DaisySP//Source/Control/adsr.h ****     void SetAttackTime(float timeInS, float shape = 0.0f);
  56:../../DaisySP//Source/Control/adsr.h ****     void SetDecayTime(float timeInS);
  57:../../DaisySP//Source/Control/adsr.h ****     void SetReleaseTime(float timeInS);
  58:../../DaisySP//Source/Control/adsr.h **** 
  59:../../DaisySP//Source/Control/adsr.h ****   private:
  60:../../DaisySP//Source/Control/adsr.h ****     void SetTimeConstant(float timeInS, float& time, float& coeff);
  61:../../DaisySP//Source/Control/adsr.h **** 
  62:../../DaisySP//Source/Control/adsr.h ****   public:
  63:../../DaisySP//Source/Control/adsr.h ****     /** Sustain level
  64:../../DaisySP//Source/Control/adsr.h ****         \param sus_level - sets sustain level, 0...1.0
  65:../../DaisySP//Source/Control/adsr.h ****     */
  66:../../DaisySP//Source/Control/adsr.h ****     inline void SetSustainLevel(float sus_level)
 2875              		.loc 7 66 17 is_stmt 1 view .LVU778
 2876              	.LBB810:
  67:../../DaisySP//Source/Control/adsr.h ****     {
  68:../../DaisySP//Source/Control/adsr.h ****         sus_level = (sus_level <= 0.f) ? -0.01f // forces envelope into idle
 2877              		.loc 7 68 9 view .LVU779
 2878              		.loc 7 68 40 is_stmt 0 view .LVU780
 2879 0038 B5EEC00A 		vcmpe.f32	s0, #0
 2880 003c F1EE10FA 		vmrs	APSR_nzcv, FPSCR
 2881 0040 30D9     		bls	.L84
  69:../../DaisySP//Source/Control/adsr.h ****                                        : (sus_level > 1.f) ? 1.f : sus_level;
ARM GAS  C:\Users\danst\AppData\Local\Temp\ccwBJjMd.s 			page 85


 2882              		.loc 7 69 60 view .LVU781
 2883 0042 F7EE007A 		vmov.f32	s15, #1.0e+0
 2884 0046 B4EE670A 		vcmp.f32	s0, s15
 2885 004a F1EE10FA 		vmrs	APSR_nzcv, FPSCR
 2886 004e 37FE800A 		vselgt.f32	s0, s15, s0
 2887              	.LVL214:
 2888              	.L83:
  70:../../DaisySP//Source/Control/adsr.h ****         sus_level_ = sus_level;
 2889              		.loc 7 70 9 is_stmt 1 view .LVU782
 2890              	.LBE810:
 2891              	.LBE809:
 2892              	.LBB814:
 2893              	.LBB815:
 2894              		.loc 17 173 31 is_stmt 0 view .LVU783
 2895 0052 9FED178A 		vldr.32	s16, .L87+4
 2896              	.LBB816:
 2897              	.LBB817:
 2898              	.LBB818:
  47:../../DaisySP//Source/Utility/dsp.h **** #else
 2899              		.loc 17 47 5 view .LVU784
 2900 0056 F1EE008A 		vmov.f32	s17, #4.0e+0
 2901              	.LBE818:
 2902              	.LBE817:
 2903              	.LBE816:
 2904              	.LBE815:
 2905              	.LBE814:
 2906              	.LBB828:
 2907              	.LBB811:
 2908              		.loc 7 70 20 view .LVU785
 2909 005a 184C     		ldr	r4, .L87+16
 2910              	.LBE811:
 2911              	.LBE828:
 282:takshaka.cpp  **** 	pounce.SetDecayTime( fmap( pounceDecaySmartKnob.GetValue(), 0.005, 4.0 ) );
 2912              		.loc 16 282 21 view .LVU786
 2913 005c 1948     		ldr	r0, .L87+24
 2914              	.LBB829:
 2915              	.LBB812:
 2916              		.loc 7 70 20 view .LVU787
 2917 005e 84ED000A 		vstr.32	s0, [r4]
 2918              	.LVL215:
 2919              		.loc 7 70 20 view .LVU788
 2920              	.LBE812:
 2921              	.LBE829:
 2922              		.loc 16 282 2 is_stmt 1 view .LVU789
 2923              		.loc 16 282 21 is_stmt 0 view .LVU790
 2924 0062 FFF7FEFF 		bl	_ZN7daisysp9SmartKnob8GetValueEv
 2925              	.LVL216:
 2926              	.LBB830:
 2927              	.LBI814:
 161:../../DaisySP//Source/Utility/dsp.h **** {
 2928              		.loc 17 161 1 is_stmt 1 view .LVU791
 2929              	.LBE830:
 163:../../DaisySP//Source/Utility/dsp.h ****     {
 2930              		.loc 17 163 5 view .LVU792
 2931              	.LBB831:
 2932              	.LBB825:
 172:../../DaisySP//Source/Utility/dsp.h ****         default: return fclamp(min + in * (max - min), min, max);
ARM GAS  C:\Users\danst\AppData\Local\Temp\ccwBJjMd.s 			page 86


 2933              		.loc 17 172 9 view .LVU793
 2934              		.loc 17 173 9 view .LVU794
 2935              		.loc 17 173 18 view .LVU795
 2936              		.loc 17 173 31 is_stmt 0 view .LVU796
 2937 0066 B0EE487A 		vmov.f32	s14, s16
 2938 006a 9FED129A 		vldr.32	s18, .L87+8
 2939              	.LBE825:
 2940              	.LBE831:
 2941              		.loc 16 282 21 view .LVU797
 2942 006e 2046     		mov	r0, r4
 2943              	.LBB832:
 2944              	.LBB826:
 2945              		.loc 17 173 31 view .LVU798
 2946 0070 A0EE097A 		vfma.f32	s14, s0, s18
 2947              	.LVL217:
 2948              	.LBB823:
 2949              	.LBI816:
  56:../../DaisySP//Source/Utility/dsp.h **** {
 2950              		.loc 17 56 14 is_stmt 1 view .LVU799
 2951              	.LBE823:
 2952              	.LBE826:
 2953              	.LBE832:
  58:../../DaisySP//Source/Utility/dsp.h **** }
 2954              		.loc 17 58 5 view .LVU800
 2955              	.LBB833:
 2956              	.LBB827:
 2957              	.LBB824:
 2958              	.LBB820:
 2959              	.LBI820:
  32:../../DaisySP//Source/Utility/dsp.h **** {
 2960              		.loc 17 32 14 view .LVU801
 2961              	.LBB821:
  34:../../DaisySP//Source/Utility/dsp.h **** #ifdef __arm__
 2962              		.loc 17 34 5 view .LVU802
  36:../../DaisySP//Source/Utility/dsp.h **** #else
 2963              		.loc 17 36 5 view .LVU803
 2964              		.syntax unified
 2965              	@ 36 "../../DaisySP//Source/Utility/dsp.h" 1
 2966 0074 87FE080A 		vmaxnm.f32 s0, s14, s16
 2967              	@ 0 "" 2
 2968              	.LVL218:
  40:../../DaisySP//Source/Utility/dsp.h **** }
 2969              		.loc 17 40 5 view .LVU804
  40:../../DaisySP//Source/Utility/dsp.h **** }
 2970              		.loc 17 40 5 is_stmt 0 view .LVU805
 2971              		.thumb
 2972              		.syntax unified
 2973              	.LBE821:
 2974              	.LBE820:
 2975              	.LBB822:
 2976              	.LBI817:
  43:../../DaisySP//Source/Utility/dsp.h **** {
 2977              		.loc 17 43 14 is_stmt 1 view .LVU806
 2978              	.LBB819:
  45:../../DaisySP//Source/Utility/dsp.h **** #ifdef __arm__
 2979              		.loc 17 45 5 view .LVU807
  47:../../DaisySP//Source/Utility/dsp.h **** #else
ARM GAS  C:\Users\danst\AppData\Local\Temp\ccwBJjMd.s 			page 87


 2980              		.loc 17 47 5 view .LVU808
 2981              		.syntax unified
 2982              	@ 47 "../../DaisySP//Source/Utility/dsp.h" 1
 2983 0078 80FE680A 		vminnm.f32 s0, s0, s17
 2984              	@ 0 "" 2
 2985              	.LVL219:
  51:../../DaisySP//Source/Utility/dsp.h **** }
 2986              		.loc 17 51 5 view .LVU809
  51:../../DaisySP//Source/Utility/dsp.h **** }
 2987              		.loc 17 51 5 is_stmt 0 view .LVU810
 2988              		.thumb
 2989              		.syntax unified
 2990              	.LBE819:
 2991              	.LBE822:
 2992              	.LBE824:
 2993              	.LBE827:
 2994              	.LBE833:
 2995              		.loc 16 282 21 view .LVU811
 2996 007c FFF7FEFF 		bl	_ZN7daisysp4Adsr12SetDecayTimeEf
 2997              	.LVL220:
 283:takshaka.cpp  **** 	pounce.SetReleaseTime( fmap( pounceDecaySmartKnob.GetValue(), 0.005, 4.0 ) );
 2998              		.loc 16 283 2 is_stmt 1 view .LVU812
 2999              		.loc 16 283 23 is_stmt 0 view .LVU813
 3000 0080 1048     		ldr	r0, .L87+24
 3001 0082 FFF7FEFF 		bl	_ZN7daisysp9SmartKnob8GetValueEv
 3002              	.LVL221:
 3003              	.LBB834:
 3004              	.LBI834:
 161:../../DaisySP//Source/Utility/dsp.h **** {
 3005              		.loc 17 161 1 is_stmt 1 view .LVU814
 3006              	.LBE834:
 163:../../DaisySP//Source/Utility/dsp.h ****     {
 3007              		.loc 17 163 5 view .LVU815
 3008              	.LBB844:
 3009              	.LBB835:
 172:../../DaisySP//Source/Utility/dsp.h ****         default: return fclamp(min + in * (max - min), min, max);
 3010              		.loc 17 172 9 view .LVU816
 3011              		.loc 17 173 9 view .LVU817
 3012              		.loc 17 173 18 view .LVU818
 3013              		.loc 17 173 31 is_stmt 0 view .LVU819
 3014 0086 F0EE487A 		vmov.f32	s15, s16
 3015              	.LBE835:
 3016              	.LBE844:
 3017              		.loc 16 283 23 view .LVU820
 3018 008a 2046     		mov	r0, r4
 3019              	.LBB845:
 3020              	.LBB842:
 3021              		.loc 17 173 31 view .LVU821
 3022 008c E0EE097A 		vfma.f32	s15, s0, s18
 3023              	.LVL222:
 3024              	.LBB836:
 3025              	.LBI836:
  56:../../DaisySP//Source/Utility/dsp.h **** {
 3026              		.loc 17 56 14 is_stmt 1 view .LVU822
 3027              	.LBE836:
 3028              	.LBE842:
 3029              	.LBE845:
ARM GAS  C:\Users\danst\AppData\Local\Temp\ccwBJjMd.s 			page 88


  58:../../DaisySP//Source/Utility/dsp.h **** }
 3030              		.loc 17 58 5 view .LVU823
 3031              	.LBB846:
 3032              	.LBB843:
 3033              	.LBB841:
 3034              	.LBB837:
 3035              	.LBI837:
  32:../../DaisySP//Source/Utility/dsp.h **** {
 3036              		.loc 17 32 14 view .LVU824
 3037              	.LBB838:
  34:../../DaisySP//Source/Utility/dsp.h **** #ifdef __arm__
 3038              		.loc 17 34 5 view .LVU825
  36:../../DaisySP//Source/Utility/dsp.h **** #else
 3039              		.loc 17 36 5 view .LVU826
 3040              		.syntax unified
 3041              	@ 36 "../../DaisySP//Source/Utility/dsp.h" 1
 3042 0090 87FE880A 		vmaxnm.f32 s0, s15, s16
 3043              	@ 0 "" 2
 3044              	.LVL223:
  40:../../DaisySP//Source/Utility/dsp.h **** }
 3045              		.loc 17 40 5 view .LVU827
  40:../../DaisySP//Source/Utility/dsp.h **** }
 3046              		.loc 17 40 5 is_stmt 0 view .LVU828
 3047              		.thumb
 3048              		.syntax unified
 3049              	.LBE838:
 3050              	.LBE837:
 3051              	.LBB839:
 3052              	.LBI839:
  43:../../DaisySP//Source/Utility/dsp.h **** {
 3053              		.loc 17 43 14 is_stmt 1 view .LVU829
 3054              	.LBB840:
  45:../../DaisySP//Source/Utility/dsp.h **** #ifdef __arm__
 3055              		.loc 17 45 5 view .LVU830
  47:../../DaisySP//Source/Utility/dsp.h **** #else
 3056              		.loc 17 47 5 view .LVU831
 3057              		.syntax unified
 3058              	@ 47 "../../DaisySP//Source/Utility/dsp.h" 1
 3059 0094 80FE680A 		vminnm.f32 s0, s0, s17
 3060              	@ 0 "" 2
 3061              	.LVL224:
  51:../../DaisySP//Source/Utility/dsp.h **** }
 3062              		.loc 17 51 5 view .LVU832
  51:../../DaisySP//Source/Utility/dsp.h **** }
 3063              		.loc 17 51 5 is_stmt 0 view .LVU833
 3064              		.thumb
 3065              		.syntax unified
 3066              	.LBE840:
 3067              	.LBE839:
 3068              	.LBE841:
 3069              	.LBE843:
 3070              	.LBE846:
 284:takshaka.cpp  **** }
 3071              		.loc 16 284 1 view .LVU834
 3072 0098 BDEC048B 		vldm	sp!, {d8-d9}
 3073              		.cfi_remember_state
 3074              		.cfi_restore 82
ARM GAS  C:\Users\danst\AppData\Local\Temp\ccwBJjMd.s 			page 89


 3075              		.cfi_restore 83
 3076              		.cfi_restore 80
 3077              		.cfi_restore 81
 3078              		.cfi_def_cfa_offset 8
 3079 009c BDE81040 		pop	{r4, lr}
 3080              		.cfi_restore 14
 3081              		.cfi_restore 4
 3082              		.cfi_def_cfa_offset 0
 283:takshaka.cpp  **** }
 3083              		.loc 16 283 23 view .LVU835
 3084 00a0 FFF7FEBF 		b	_ZN7daisysp4Adsr14SetReleaseTimeEf
 3085              	.LVL225:
 3086              	.L84:
 3087              		.cfi_restore_state
 3088              	.LBB847:
 3089              	.LBB813:
  68:../../DaisySP//Source/Control/adsr.h ****                                        : (sus_level > 1.f) ? 1.f : sus_level;
 3090              		.loc 7 68 40 view .LVU836
 3091 00a4 9FED080A 		vldr.32	s0, .L87+28
 3092              	.LVL226:
  68:../../DaisySP//Source/Control/adsr.h ****                                        : (sus_level > 1.f) ? 1.f : sus_level;
 3093              		.loc 7 68 40 view .LVU837
 3094 00a8 D3E7     		b	.L83
 3095              	.L88:
 3096 00aa 00BF     		.align	2
 3097              	.L87:
 3098 00ac 00000000 		.word	.LANCHOR24
 3099 00b0 0AD7A33B 		.word	1000593162
 3100 00b4 14AE7F40 		.word	1082109460
 3101 00b8 00000000 		.word	0
 3102 00bc 00000000 		.word	.LANCHOR1
 3103 00c0 00000000 		.word	.LANCHOR26
 3104 00c4 00000000 		.word	.LANCHOR28
 3105 00c8 0AD723BC 		.word	-1138501878
 3106              	.LBE813:
 3107              	.LBE847:
 3108              		.cfi_endproc
 3109              	.LFE4798:
 3111              		.section	.text._Z12updateAmpEnvv,"ax",%progbits
 3112              		.align	1
 3113              		.p2align 2,,3
 3114              		.global	_Z12updateAmpEnvv
 3115              		.syntax unified
 3116              		.thumb
 3117              		.thumb_func
 3118              		.fpu fpv5-d16
 3120              	_Z12updateAmpEnvv:
 3121              	.LFB4799:
 285:takshaka.cpp  **** void updateAmpEnv(){
 3122              		.loc 16 285 20 is_stmt 1 view -0
 3123              		.cfi_startproc
 3124              		@ args = 0, pretend = 0, frame = 0
 3125              		@ frame_needed = 0, uses_anonymous_args = 0
 286:takshaka.cpp  **** 	ampEnv.SetAttackTime( fmap( ampEnvAttackSmartKnob.GetValue(), 0.005, 4.0 ) );
 3126              		.loc 16 286 2 view .LVU839
 285:takshaka.cpp  **** void updateAmpEnv(){
 3127              		.loc 16 285 20 is_stmt 0 view .LVU840
ARM GAS  C:\Users\danst\AppData\Local\Temp\ccwBJjMd.s 			page 90


 3128 0000 10B5     		push	{r4, lr}
 3129              		.cfi_def_cfa_offset 8
 3130              		.cfi_offset 4, -8
 3131              		.cfi_offset 14, -4
 3132              		.loc 16 286 22 view .LVU841
 3133 0002 2A48     		ldr	r0, .L94
 285:takshaka.cpp  **** void updateAmpEnv(){
 3134              		.loc 16 285 20 view .LVU842
 3135 0004 2DED048B 		vpush.64	{d8, d9}
 3136              		.cfi_def_cfa_offset 24
 3137              		.cfi_offset 80, -24
 3138              		.cfi_offset 81, -20
 3139              		.cfi_offset 82, -16
 3140              		.cfi_offset 83, -12
 3141              		.loc 16 286 22 view .LVU843
 3142 0008 FFF7FEFF 		bl	_ZN7daisysp9SmartKnob8GetValueEv
 3143              	.LVL227:
 3144              	.LBB848:
 3145              	.LBI848:
 161:../../DaisySP//Source/Utility/dsp.h **** {
 3146              		.loc 17 161 1 is_stmt 1 view .LVU844
 3147              	.LBE848:
 163:../../DaisySP//Source/Utility/dsp.h ****     {
 3148              		.loc 17 163 5 view .LVU845
 3149              	.LBB862:
 3150              	.LBB849:
 172:../../DaisySP//Source/Utility/dsp.h ****         default: return fclamp(min + in * (max - min), min, max);
 3151              		.loc 17 172 9 view .LVU846
 3152              		.loc 17 173 9 view .LVU847
 3153              		.loc 17 173 18 view .LVU848
 3154              		.loc 17 173 31 is_stmt 0 view .LVU849
 3155 000c 9FED287A 		vldr.32	s14, .L94+4
 3156 0010 DFED286A 		vldr.32	s13, .L94+8
 3157 0014 F0EE477A 		vmov.f32	s15, s14
 3158              	.LBE849:
 3159              	.LBE862:
 3160              		.loc 16 286 22 view .LVU850
 3161 0018 DFED270A 		vldr.32	s1, .L94+12
 3162 001c 2748     		ldr	r0, .L94+16
 3163              	.LBB863:
 3164              	.LBB860:
 3165              		.loc 17 173 31 view .LVU851
 3166 001e E0EE267A 		vfma.f32	s15, s0, s13
 3167              	.LVL228:
 3168              	.LBB850:
 3169              	.LBI850:
  56:../../DaisySP//Source/Utility/dsp.h **** {
 3170              		.loc 17 56 14 is_stmt 1 view .LVU852
 3171              	.LBE850:
 3172              	.LBE860:
 3173              	.LBE863:
  58:../../DaisySP//Source/Utility/dsp.h **** }
 3174              		.loc 17 58 5 view .LVU853
 3175              	.LBB864:
 3176              	.LBB861:
 3177              	.LBB859:
 3178              	.LBB851:
ARM GAS  C:\Users\danst\AppData\Local\Temp\ccwBJjMd.s 			page 91


 3179              	.LBI851:
  32:../../DaisySP//Source/Utility/dsp.h **** {
 3180              		.loc 17 32 14 view .LVU854
 3181              	.LBB852:
  34:../../DaisySP//Source/Utility/dsp.h **** #ifdef __arm__
 3182              		.loc 17 34 5 view .LVU855
  36:../../DaisySP//Source/Utility/dsp.h **** #else
 3183              		.loc 17 36 5 view .LVU856
 3184              	.LBE852:
 3185              	.LBE851:
 3186              	.LBB854:
 3187              	.LBB855:
  47:../../DaisySP//Source/Utility/dsp.h **** #else
 3188              		.loc 17 47 5 is_stmt 0 view .LVU857
 3189 0022 B1EE000A 		vmov.f32	s0, #4.0e+0
 3190              	.LVL229:
  47:../../DaisySP//Source/Utility/dsp.h **** #else
 3191              		.loc 17 47 5 view .LVU858
 3192              	.LBE855:
 3193              	.LBE854:
 3194              	.LBB857:
 3195              	.LBB853:
  36:../../DaisySP//Source/Utility/dsp.h **** #else
 3196              		.loc 17 36 5 view .LVU859
 3197              		.syntax unified
 3198              	@ 36 "../../DaisySP//Source/Utility/dsp.h" 1
 3199 0026 C7FE877A 		vmaxnm.f32 s15, s15, s14
 3200              	@ 0 "" 2
 3201              	.LVL230:
  40:../../DaisySP//Source/Utility/dsp.h **** }
 3202              		.loc 17 40 5 is_stmt 1 view .LVU860
  40:../../DaisySP//Source/Utility/dsp.h **** }
 3203              		.loc 17 40 5 is_stmt 0 view .LVU861
 3204              		.thumb
 3205              		.syntax unified
 3206              	.LBE853:
 3207              	.LBE857:
 3208              	.LBB858:
 3209              	.LBI854:
  43:../../DaisySP//Source/Utility/dsp.h **** {
 3210              		.loc 17 43 14 is_stmt 1 view .LVU862
 3211              	.LBB856:
  45:../../DaisySP//Source/Utility/dsp.h **** #ifdef __arm__
 3212              		.loc 17 45 5 view .LVU863
  47:../../DaisySP//Source/Utility/dsp.h **** #else
 3213              		.loc 17 47 5 view .LVU864
 3214              		.syntax unified
 3215              	@ 47 "../../DaisySP//Source/Utility/dsp.h" 1
 3216 002a 87FEC00A 		vminnm.f32 s0, s15, s0
 3217              	@ 0 "" 2
 3218              	.LVL231:
  51:../../DaisySP//Source/Utility/dsp.h **** }
 3219              		.loc 17 51 5 view .LVU865
  51:../../DaisySP//Source/Utility/dsp.h **** }
 3220              		.loc 17 51 5 is_stmt 0 view .LVU866
 3221              		.thumb
 3222              		.syntax unified
ARM GAS  C:\Users\danst\AppData\Local\Temp\ccwBJjMd.s 			page 92


 3223              	.LBE856:
 3224              	.LBE858:
 3225              	.LBE859:
 3226              	.LBE861:
 3227              	.LBE864:
 3228              		.loc 16 286 22 view .LVU867
 3229 002e FFF7FEFF 		bl	_ZN7daisysp4Adsr13SetAttackTimeEff
 3230              	.LVL232:
 287:takshaka.cpp  **** 	ampEnv.SetSustainLevel( ampEnvSustainSmartKnob.GetValue() );
 3231              		.loc 16 287 2 is_stmt 1 view .LVU868
 3232              		.loc 16 287 24 is_stmt 0 view .LVU869
 3233 0032 2348     		ldr	r0, .L94+20
 3234 0034 FFF7FEFF 		bl	_ZN7daisysp9SmartKnob8GetValueEv
 3235              	.LVL233:
 3236              	.LBB865:
 3237              	.LBI865:
  66:../../DaisySP//Source/Control/adsr.h ****     {
 3238              		.loc 7 66 17 is_stmt 1 view .LVU870
 3239              	.LBB866:
  68:../../DaisySP//Source/Control/adsr.h ****                                        : (sus_level > 1.f) ? 1.f : sus_level;
 3240              		.loc 7 68 9 view .LVU871
  68:../../DaisySP//Source/Control/adsr.h ****                                        : (sus_level > 1.f) ? 1.f : sus_level;
 3241              		.loc 7 68 40 is_stmt 0 view .LVU872
 3242 0038 B5EEC00A 		vcmpe.f32	s0, #0
 3243 003c F1EE10FA 		vmrs	APSR_nzcv, FPSCR
 3244 0040 30D9     		bls	.L91
  69:../../DaisySP//Source/Control/adsr.h ****         sus_level_ = sus_level;
 3245              		.loc 7 69 60 view .LVU873
 3246 0042 F7EE007A 		vmov.f32	s15, #1.0e+0
 3247 0046 B4EE670A 		vcmp.f32	s0, s15
 3248 004a F1EE10FA 		vmrs	APSR_nzcv, FPSCR
 3249 004e 37FE800A 		vselgt.f32	s0, s15, s0
 3250              	.LVL234:
 3251              	.L90:
 3252              		.loc 7 70 9 is_stmt 1 view .LVU874
 3253              	.LBE866:
 3254              	.LBE865:
 3255              	.LBB870:
 3256              	.LBB871:
 3257              		.loc 17 173 31 is_stmt 0 view .LVU875
 3258 0052 9FED178A 		vldr.32	s16, .L94+4
 3259              	.LBB872:
 3260              	.LBB873:
 3261              	.LBB874:
  47:../../DaisySP//Source/Utility/dsp.h **** #else
 3262              		.loc 17 47 5 view .LVU876
 3263 0056 F1EE008A 		vmov.f32	s17, #4.0e+0
 3264              	.LBE874:
 3265              	.LBE873:
 3266              	.LBE872:
 3267              	.LBE871:
 3268              	.LBE870:
 3269              	.LBB884:
 3270              	.LBB867:
 3271              		.loc 7 70 20 view .LVU877
 3272 005a 184C     		ldr	r4, .L94+16
 3273              	.LBE867:
ARM GAS  C:\Users\danst\AppData\Local\Temp\ccwBJjMd.s 			page 93


 3274              	.LBE884:
 288:takshaka.cpp  **** 	ampEnv.SetDecayTime( fmap( ampEnvDecaySmartKnob.GetValue(), 0.005, 4.0 ) );
 3275              		.loc 16 288 21 view .LVU878
 3276 005c 1948     		ldr	r0, .L94+24
 3277              	.LBB885:
 3278              	.LBB868:
 3279              		.loc 7 70 20 view .LVU879
 3280 005e 84ED000A 		vstr.32	s0, [r4]
 3281              	.LVL235:
 3282              		.loc 7 70 20 view .LVU880
 3283              	.LBE868:
 3284              	.LBE885:
 3285              		.loc 16 288 2 is_stmt 1 view .LVU881
 3286              		.loc 16 288 21 is_stmt 0 view .LVU882
 3287 0062 FFF7FEFF 		bl	_ZN7daisysp9SmartKnob8GetValueEv
 3288              	.LVL236:
 3289              	.LBB886:
 3290              	.LBI870:
 161:../../DaisySP//Source/Utility/dsp.h **** {
 3291              		.loc 17 161 1 is_stmt 1 view .LVU883
 3292              	.LBE886:
 163:../../DaisySP//Source/Utility/dsp.h ****     {
 3293              		.loc 17 163 5 view .LVU884
 3294              	.LBB887:
 3295              	.LBB881:
 172:../../DaisySP//Source/Utility/dsp.h ****         default: return fclamp(min + in * (max - min), min, max);
 3296              		.loc 17 172 9 view .LVU885
 3297              		.loc 17 173 9 view .LVU886
 3298              		.loc 17 173 18 view .LVU887
 3299              		.loc 17 173 31 is_stmt 0 view .LVU888
 3300 0066 B0EE487A 		vmov.f32	s14, s16
 3301 006a 9FED129A 		vldr.32	s18, .L94+8
 3302              	.LBE881:
 3303              	.LBE887:
 3304              		.loc 16 288 21 view .LVU889
 3305 006e 2046     		mov	r0, r4
 3306              	.LBB888:
 3307              	.LBB882:
 3308              		.loc 17 173 31 view .LVU890
 3309 0070 A0EE097A 		vfma.f32	s14, s0, s18
 3310              	.LVL237:
 3311              	.LBB879:
 3312              	.LBI872:
  56:../../DaisySP//Source/Utility/dsp.h **** {
 3313              		.loc 17 56 14 is_stmt 1 view .LVU891
 3314              	.LBE879:
 3315              	.LBE882:
 3316              	.LBE888:
  58:../../DaisySP//Source/Utility/dsp.h **** }
 3317              		.loc 17 58 5 view .LVU892
 3318              	.LBB889:
 3319              	.LBB883:
 3320              	.LBB880:
 3321              	.LBB876:
 3322              	.LBI876:
  32:../../DaisySP//Source/Utility/dsp.h **** {
 3323              		.loc 17 32 14 view .LVU893
ARM GAS  C:\Users\danst\AppData\Local\Temp\ccwBJjMd.s 			page 94


 3324              	.LBB877:
  34:../../DaisySP//Source/Utility/dsp.h **** #ifdef __arm__
 3325              		.loc 17 34 5 view .LVU894
  36:../../DaisySP//Source/Utility/dsp.h **** #else
 3326              		.loc 17 36 5 view .LVU895
 3327              		.syntax unified
 3328              	@ 36 "../../DaisySP//Source/Utility/dsp.h" 1
 3329 0074 87FE080A 		vmaxnm.f32 s0, s14, s16
 3330              	@ 0 "" 2
 3331              	.LVL238:
  40:../../DaisySP//Source/Utility/dsp.h **** }
 3332              		.loc 17 40 5 view .LVU896
  40:../../DaisySP//Source/Utility/dsp.h **** }
 3333              		.loc 17 40 5 is_stmt 0 view .LVU897
 3334              		.thumb
 3335              		.syntax unified
 3336              	.LBE877:
 3337              	.LBE876:
 3338              	.LBB878:
 3339              	.LBI873:
  43:../../DaisySP//Source/Utility/dsp.h **** {
 3340              		.loc 17 43 14 is_stmt 1 view .LVU898
 3341              	.LBB875:
  45:../../DaisySP//Source/Utility/dsp.h **** #ifdef __arm__
 3342              		.loc 17 45 5 view .LVU899
  47:../../DaisySP//Source/Utility/dsp.h **** #else
 3343              		.loc 17 47 5 view .LVU900
 3344              		.syntax unified
 3345              	@ 47 "../../DaisySP//Source/Utility/dsp.h" 1
 3346 0078 80FE680A 		vminnm.f32 s0, s0, s17
 3347              	@ 0 "" 2
 3348              	.LVL239:
  51:../../DaisySP//Source/Utility/dsp.h **** }
 3349              		.loc 17 51 5 view .LVU901
  51:../../DaisySP//Source/Utility/dsp.h **** }
 3350              		.loc 17 51 5 is_stmt 0 view .LVU902
 3351              		.thumb
 3352              		.syntax unified
 3353              	.LBE875:
 3354              	.LBE878:
 3355              	.LBE880:
 3356              	.LBE883:
 3357              	.LBE889:
 3358              		.loc 16 288 21 view .LVU903
 3359 007c FFF7FEFF 		bl	_ZN7daisysp4Adsr12SetDecayTimeEf
 3360              	.LVL240:
 289:takshaka.cpp  **** 	ampEnv.SetReleaseTime( fmap( ampEnvDecaySmartKnob.GetValue(), 0.005, 4.0 ) );
 3361              		.loc 16 289 2 is_stmt 1 view .LVU904
 3362              		.loc 16 289 23 is_stmt 0 view .LVU905
 3363 0080 1048     		ldr	r0, .L94+24
 3364 0082 FFF7FEFF 		bl	_ZN7daisysp9SmartKnob8GetValueEv
 3365              	.LVL241:
 3366              	.LBB890:
 3367              	.LBI890:
 161:../../DaisySP//Source/Utility/dsp.h **** {
 3368              		.loc 17 161 1 is_stmt 1 view .LVU906
 3369              	.LBE890:
ARM GAS  C:\Users\danst\AppData\Local\Temp\ccwBJjMd.s 			page 95


 163:../../DaisySP//Source/Utility/dsp.h ****     {
 3370              		.loc 17 163 5 view .LVU907
 3371              	.LBB900:
 3372              	.LBB891:
 172:../../DaisySP//Source/Utility/dsp.h ****         default: return fclamp(min + in * (max - min), min, max);
 3373              		.loc 17 172 9 view .LVU908
 3374              		.loc 17 173 9 view .LVU909
 3375              		.loc 17 173 18 view .LVU910
 3376              		.loc 17 173 31 is_stmt 0 view .LVU911
 3377 0086 F0EE487A 		vmov.f32	s15, s16
 3378              	.LBE891:
 3379              	.LBE900:
 3380              		.loc 16 289 23 view .LVU912
 3381 008a 2046     		mov	r0, r4
 3382              	.LBB901:
 3383              	.LBB898:
 3384              		.loc 17 173 31 view .LVU913
 3385 008c E0EE097A 		vfma.f32	s15, s0, s18
 3386              	.LVL242:
 3387              	.LBB892:
 3388              	.LBI892:
  56:../../DaisySP//Source/Utility/dsp.h **** {
 3389              		.loc 17 56 14 is_stmt 1 view .LVU914
 3390              	.LBE892:
 3391              	.LBE898:
 3392              	.LBE901:
  58:../../DaisySP//Source/Utility/dsp.h **** }
 3393              		.loc 17 58 5 view .LVU915
 3394              	.LBB902:
 3395              	.LBB899:
 3396              	.LBB897:
 3397              	.LBB893:
 3398              	.LBI893:
  32:../../DaisySP//Source/Utility/dsp.h **** {
 3399              		.loc 17 32 14 view .LVU916
 3400              	.LBB894:
  34:../../DaisySP//Source/Utility/dsp.h **** #ifdef __arm__
 3401              		.loc 17 34 5 view .LVU917
  36:../../DaisySP//Source/Utility/dsp.h **** #else
 3402              		.loc 17 36 5 view .LVU918
 3403              		.syntax unified
 3404              	@ 36 "../../DaisySP//Source/Utility/dsp.h" 1
 3405 0090 87FE880A 		vmaxnm.f32 s0, s15, s16
 3406              	@ 0 "" 2
 3407              	.LVL243:
  40:../../DaisySP//Source/Utility/dsp.h **** }
 3408              		.loc 17 40 5 view .LVU919
  40:../../DaisySP//Source/Utility/dsp.h **** }
 3409              		.loc 17 40 5 is_stmt 0 view .LVU920
 3410              		.thumb
 3411              		.syntax unified
 3412              	.LBE894:
 3413              	.LBE893:
 3414              	.LBB895:
 3415              	.LBI895:
  43:../../DaisySP//Source/Utility/dsp.h **** {
 3416              		.loc 17 43 14 is_stmt 1 view .LVU921
ARM GAS  C:\Users\danst\AppData\Local\Temp\ccwBJjMd.s 			page 96


 3417              	.LBB896:
  45:../../DaisySP//Source/Utility/dsp.h **** #ifdef __arm__
 3418              		.loc 17 45 5 view .LVU922
  47:../../DaisySP//Source/Utility/dsp.h **** #else
 3419              		.loc 17 47 5 view .LVU923
 3420              		.syntax unified
 3421              	@ 47 "../../DaisySP//Source/Utility/dsp.h" 1
 3422 0094 80FE680A 		vminnm.f32 s0, s0, s17
 3423              	@ 0 "" 2
 3424              	.LVL244:
  51:../../DaisySP//Source/Utility/dsp.h **** }
 3425              		.loc 17 51 5 view .LVU924
  51:../../DaisySP//Source/Utility/dsp.h **** }
 3426              		.loc 17 51 5 is_stmt 0 view .LVU925
 3427              		.thumb
 3428              		.syntax unified
 3429              	.LBE896:
 3430              	.LBE895:
 3431              	.LBE897:
 3432              	.LBE899:
 3433              	.LBE902:
 290:takshaka.cpp  **** }
 3434              		.loc 16 290 1 view .LVU926
 3435 0098 BDEC048B 		vldm	sp!, {d8-d9}
 3436              		.cfi_remember_state
 3437              		.cfi_restore 82
 3438              		.cfi_restore 83
 3439              		.cfi_restore 80
 3440              		.cfi_restore 81
 3441              		.cfi_def_cfa_offset 8
 3442 009c BDE81040 		pop	{r4, lr}
 3443              		.cfi_restore 14
 3444              		.cfi_restore 4
 3445              		.cfi_def_cfa_offset 0
 289:takshaka.cpp  **** }
 3446              		.loc 16 289 23 view .LVU927
 3447 00a0 FFF7FEBF 		b	_ZN7daisysp4Adsr14SetReleaseTimeEf
 3448              	.LVL245:
 3449              	.L91:
 3450              		.cfi_restore_state
 3451              	.LBB903:
 3452              	.LBB869:
  68:../../DaisySP//Source/Control/adsr.h ****                                        : (sus_level > 1.f) ? 1.f : sus_level;
 3453              		.loc 7 68 40 view .LVU928
 3454 00a4 9FED080A 		vldr.32	s0, .L94+28
 3455              	.LVL246:
  68:../../DaisySP//Source/Control/adsr.h ****                                        : (sus_level > 1.f) ? 1.f : sus_level;
 3456              		.loc 7 68 40 view .LVU929
 3457 00a8 D3E7     		b	.L90
 3458              	.L95:
 3459 00aa 00BF     		.align	2
 3460              	.L94:
 3461 00ac 00000000 		.word	.LANCHOR25
 3462 00b0 0AD7A33B 		.word	1000593162
 3463 00b4 14AE7F40 		.word	1082109460
 3464 00b8 00000000 		.word	0
 3465 00bc 00000000 		.word	.LANCHOR17
ARM GAS  C:\Users\danst\AppData\Local\Temp\ccwBJjMd.s 			page 97


 3466 00c0 00000000 		.word	.LANCHOR27
 3467 00c4 00000000 		.word	.LANCHOR29
 3468 00c8 0AD723BC 		.word	-1138501878
 3469              	.LBE869:
 3470              	.LBE903:
 3471              		.cfi_endproc
 3472              	.LFE4799:
 3474              		.section	.text._ZN5daisy11MidiHandlerINS_16MidiUsbTransportEE5ParseEh,"axG",%progbits,_ZN5daisy11M
 3475              		.align	1
 3476              		.p2align 2,,3
 3477              		.weak	_ZN5daisy11MidiHandlerINS_16MidiUsbTransportEE5ParseEh
 3478              		.syntax unified
 3479              		.thumb
 3480              		.thumb_func
 3481              		.fpu fpv5-d16
 3483              	_ZN5daisy11MidiHandlerINS_16MidiUsbTransportEE5ParseEh:
 3484              	.LVL247:
 3485              	.LFB5235:
  86:../../libDaisy//src/hid/midi.h **** 
  87:../../libDaisy//src/hid/midi.h ****     struct Config
  88:../../libDaisy//src/hid/midi.h ****     {
  89:../../libDaisy//src/hid/midi.h ****         typename Transport::Config transport_config;
  90:../../libDaisy//src/hid/midi.h ****     };
  91:../../libDaisy//src/hid/midi.h **** 
  92:../../libDaisy//src/hid/midi.h ****     /** Initializes the MidiHandler 
  93:../../libDaisy//src/hid/midi.h ****      *  \param config Configuration structure used to define specifics to the MIDI Handler.
  94:../../libDaisy//src/hid/midi.h ****      */
  95:../../libDaisy//src/hid/midi.h ****     void Init(Config config)
  96:../../libDaisy//src/hid/midi.h ****     {
  97:../../libDaisy//src/hid/midi.h ****         config_ = config;
  98:../../libDaisy//src/hid/midi.h **** 
  99:../../libDaisy//src/hid/midi.h ****         transport_.Init(config_.transport_config);
 100:../../libDaisy//src/hid/midi.h **** 
 101:../../libDaisy//src/hid/midi.h ****         event_q_.Init();
 102:../../libDaisy//src/hid/midi.h ****         incoming_message_.type = MessageLast;
 103:../../libDaisy//src/hid/midi.h ****         pstate_                = ParserEmpty;
 104:../../libDaisy//src/hid/midi.h ****     }
 105:../../libDaisy//src/hid/midi.h **** 
 106:../../libDaisy//src/hid/midi.h ****     /** Starts listening on the selected input mode(s). MidiEvent Queue will begin to fill, and can
 107:../../libDaisy//src/hid/midi.h ****     void StartReceive() { transport_.StartRx(); }
 108:../../libDaisy//src/hid/midi.h **** 
 109:../../libDaisy//src/hid/midi.h ****     /** Start listening */
 110:../../libDaisy//src/hid/midi.h ****     void Listen()
 111:../../libDaisy//src/hid/midi.h ****     {
 112:../../libDaisy//src/hid/midi.h ****         uint32_t now;
 113:../../libDaisy//src/hid/midi.h ****         now = System::GetNow();
 114:../../libDaisy//src/hid/midi.h ****         while(transport_.Readable())
 115:../../libDaisy//src/hid/midi.h ****         {
 116:../../libDaisy//src/hid/midi.h ****             last_read_ = now;
 117:../../libDaisy//src/hid/midi.h ****             Parse(transport_.Rx());
 118:../../libDaisy//src/hid/midi.h ****         }
 119:../../libDaisy//src/hid/midi.h **** 
 120:../../libDaisy//src/hid/midi.h ****         // In case of UART Error, (particularly
 121:../../libDaisy//src/hid/midi.h ****         //  overrun error), UART disables itself.
 122:../../libDaisy//src/hid/midi.h ****         // Flush the buff, and restart.
 123:../../libDaisy//src/hid/midi.h ****         if(!transport_.RxActive())
 124:../../libDaisy//src/hid/midi.h ****         {
ARM GAS  C:\Users\danst\AppData\Local\Temp\ccwBJjMd.s 			page 98


 125:../../libDaisy//src/hid/midi.h ****             pstate_ = ParserEmpty;
 126:../../libDaisy//src/hid/midi.h ****             transport_.FlushRx();
 127:../../libDaisy//src/hid/midi.h ****             StartReceive();
 128:../../libDaisy//src/hid/midi.h ****         }
 129:../../libDaisy//src/hid/midi.h ****     }
 130:../../libDaisy//src/hid/midi.h **** 
 131:../../libDaisy//src/hid/midi.h ****     /** Checks if there are unhandled messages in the queue 
 132:../../libDaisy//src/hid/midi.h ****     \return True if there are events to be handled, else false.
 133:../../libDaisy//src/hid/midi.h ****      */
 134:../../libDaisy//src/hid/midi.h ****     bool HasEvents() const { return event_q_.readable(); }
 135:../../libDaisy//src/hid/midi.h **** 
 136:../../libDaisy//src/hid/midi.h **** 
 137:../../libDaisy//src/hid/midi.h ****     /** Pops the oldest unhandled MidiEvent from the internal queue
 138:../../libDaisy//src/hid/midi.h ****     \return The event to be handled
 139:../../libDaisy//src/hid/midi.h ****      */
 140:../../libDaisy//src/hid/midi.h ****     MidiEvent PopEvent() { return event_q_.Read(); }
 141:../../libDaisy//src/hid/midi.h **** 
 142:../../libDaisy//src/hid/midi.h ****     /** SendMessage
 143:../../libDaisy//src/hid/midi.h ****     Send raw bytes as message
 144:../../libDaisy//src/hid/midi.h ****     */
 145:../../libDaisy//src/hid/midi.h ****     void SendMessage(uint8_t* bytes, size_t size)
 146:../../libDaisy//src/hid/midi.h ****     {
 147:../../libDaisy//src/hid/midi.h ****         transport_.Tx(bytes, size);
 148:../../libDaisy//src/hid/midi.h ****     }
 149:../../libDaisy//src/hid/midi.h **** 
 150:../../libDaisy//src/hid/midi.h ****     /** Feed in bytes to state machine from a queue.
 151:../../libDaisy//src/hid/midi.h ****     Populates internal FIFO queue with MIDI Messages
 152:../../libDaisy//src/hid/midi.h ****     For example with uart:
 153:../../libDaisy//src/hid/midi.h ****     midi.Parse(uart.PopRx());
 154:../../libDaisy//src/hid/midi.h ****     \param byte &
 155:../../libDaisy//src/hid/midi.h ****     */
 156:../../libDaisy//src/hid/midi.h ****     void Parse(uint8_t byte)
 3486              		.loc 14 156 10 is_stmt 1 view -0
 3487              		.cfi_startproc
 3488              		@ args = 0, pretend = 0, frame = 288
 3489              		@ frame_needed = 0, uses_anonymous_args = 0
 3490              		.loc 14 156 10 is_stmt 0 view .LVU931
 3491 0000 2DE9F041 		push	{r4, r5, r6, r7, r8, lr}
 3492              		.cfi_def_cfa_offset 24
 3493              		.cfi_offset 4, -24
 3494              		.cfi_offset 5, -20
 3495              		.cfi_offset 6, -16
 3496              		.cfi_offset 7, -12
 3497              		.cfi_offset 8, -8
 3498              		.cfi_offset 14, -4
 157:../../libDaisy//src/hid/midi.h ****     {
 158:../../libDaisy//src/hid/midi.h ****         // reset parser when status byte is received
 159:../../libDaisy//src/hid/midi.h ****         if((byte & kStatusByteMask) && pstate_ != ParserSysEx)
 3499              		.loc 14 159 20 view .LVU932
 3500 0004 00F51044 		add	r4, r0, #36864
 156:../../libDaisy//src/hid/midi.h ****     {
 3501              		.loc 14 156 10 view .LVU933
 3502 0008 C8B0     		sub	sp, sp, #288
 3503              		.cfi_def_cfa_offset 312
 156:../../libDaisy//src/hid/midi.h ****     {
 3504              		.loc 14 156 10 view .LVU934
 3505 000a 0546     		mov	r5, r0
ARM GAS  C:\Users\danst\AppData\Local\Temp\ccwBJjMd.s 			page 99


 3506              		.loc 14 159 18 view .LVU935
 3507 000c 94F8AC30 		ldrb	r3, [r4, #172]	@ zero_extendqisi2
 3508              		.loc 14 159 9 view .LVU936
 3509 0010 1942     		tst	r1, r3
 3510              		.loc 14 159 37 view .LVU937
 3511 0012 0379     		ldrb	r3, [r0, #4]	@ zero_extendqisi2
 3512              		.loc 14 159 9 view .LVU938
 3513 0014 18D0     		beq	.L97
 3514              		.loc 14 159 37 discriminator 1 view .LVU939
 3515 0016 032B     		cmp	r3, #3
 3516 0018 1CD0     		beq	.L98
 160:../../libDaisy//src/hid/midi.h ****         {
 161:../../libDaisy//src/hid/midi.h ****             pstate_ = ParserEmpty;
 3517              		.loc 14 161 21 view .LVU940
 3518 001a 0022     		movs	r2, #0
 3519 001c 0271     		strb	r2, [r0, #4]
 162:../../libDaisy//src/hid/midi.h ****         }
 163:../../libDaisy//src/hid/midi.h ****         switch(pstate_)
 164:../../libDaisy//src/hid/midi.h ****         {
 165:../../libDaisy//src/hid/midi.h ****             case ParserEmpty:
 166:../../libDaisy//src/hid/midi.h ****                 // check byte for valid Status Byte
 167:../../libDaisy//src/hid/midi.h ****                 if(byte & kStatusByteMask)
 168:../../libDaisy//src/hid/midi.h ****                 {
 169:../../libDaisy//src/hid/midi.h ****                     // Get MessageType, and Channel
 170:../../libDaisy//src/hid/midi.h ****                     incoming_message_.channel = byte & kChannelMask;
 3520              		.loc 14 170 54 view .LVU941
 3521 001e 94F8B030 		ldrb	r3, [r4, #176]	@ zero_extendqisi2
 3522 0022 0B40     		ands	r3, r3, r1
 3523 0024 C360     		str	r3, [r0, #12]
 171:../../libDaisy//src/hid/midi.h ****                     incoming_message_.type    = static_cast<MidiMessageType>(
 172:../../libDaisy//src/hid/midi.h ****                         (byte & kMessageMask) >> 4);
 3524              		.loc 14 172 31 view .LVU942
 3525 0026 94F8AD30 		ldrb	r3, [r4, #173]	@ zero_extendqisi2
 3526              		.loc 14 172 47 view .LVU943
 3527 002a 0B40     		ands	r3, r3, r1
 3528 002c 1B09     		lsrs	r3, r3, #4
 173:../../libDaisy//src/hid/midi.h **** 
 174:../../libDaisy//src/hid/midi.h ****                     // Validate, and move on.
 175:../../libDaisy//src/hid/midi.h ****                     if(incoming_message_.type < MessageLast)
 3529              		.loc 14 175 21 view .LVU944
 3530 002e 092B     		cmp	r3, #9
 171:../../libDaisy//src/hid/midi.h ****                     incoming_message_.type    = static_cast<MidiMessageType>(
 3531              		.loc 14 171 47 view .LVU945
 3532 0030 0372     		strb	r3, [r0, #8]
 3533              		.loc 14 175 21 view .LVU946
 3534 0032 06D8     		bhi	.L96
 176:../../libDaisy//src/hid/midi.h ****                     {
 177:../../libDaisy//src/hid/midi.h ****                         pstate_ = ParserHasStatus;
 3535              		.loc 14 177 33 view .LVU947
 3536 0034 0120     		movs	r0, #1
 3537              	.LVL248:
 178:../../libDaisy//src/hid/midi.h ****                         // Mark this status byte as running_status
 179:../../libDaisy//src/hid/midi.h ****                         running_status_ = incoming_message_.type;
 180:../../libDaisy//src/hid/midi.h **** 
 181:../../libDaisy//src/hid/midi.h ****                         if(running_status_ == SystemCommon)
 3538              		.loc 14 181 25 view .LVU948
 3539 0036 072B     		cmp	r3, #7
ARM GAS  C:\Users\danst\AppData\Local\Temp\ccwBJjMd.s 			page 100


 177:../../libDaisy//src/hid/midi.h ****                         // Mark this status byte as running_status
 3540              		.loc 14 177 33 view .LVU949
 3541 0038 2871     		strb	r0, [r5, #4]
 179:../../libDaisy//src/hid/midi.h **** 
 3542              		.loc 14 179 41 view .LVU950
 3543 003a 84F8A430 		strb	r3, [r4, #164]
 3544              		.loc 14 181 25 view .LVU951
 3545 003e 00F0E880 		beq	.L154
 3546              	.LVL249:
 3547              	.L96:
 182:../../libDaisy//src/hid/midi.h ****                         {
 183:../../libDaisy//src/hid/midi.h ****                             incoming_message_.channel = 0;
 184:../../libDaisy//src/hid/midi.h ****                             //system real time = 1111 1xxx
 185:../../libDaisy//src/hid/midi.h ****                             if(byte & 0x08)
 186:../../libDaisy//src/hid/midi.h ****                             {
 187:../../libDaisy//src/hid/midi.h ****                                 incoming_message_.type = SystemRealTime;
 188:../../libDaisy//src/hid/midi.h ****                                 running_status_        = SystemRealTime;
 189:../../libDaisy//src/hid/midi.h ****                                 incoming_message_.srt_type
 190:../../libDaisy//src/hid/midi.h ****                                     = static_cast<SystemRealTimeType>(
 191:../../libDaisy//src/hid/midi.h ****                                         byte & kSystemRealTimeMask);
 192:../../libDaisy//src/hid/midi.h **** 
 193:../../libDaisy//src/hid/midi.h ****                                 //short circuit to start
 194:../../libDaisy//src/hid/midi.h ****                                 pstate_ = ParserEmpty;
 195:../../libDaisy//src/hid/midi.h ****                                 event_q_.Write(incoming_message_);
 196:../../libDaisy//src/hid/midi.h ****                             }
 197:../../libDaisy//src/hid/midi.h ****                             //system common
 198:../../libDaisy//src/hid/midi.h ****                             else
 199:../../libDaisy//src/hid/midi.h ****                             {
 200:../../libDaisy//src/hid/midi.h ****                                 incoming_message_.sc_type
 201:../../libDaisy//src/hid/midi.h ****                                     = static_cast<SystemCommonType>(byte
 202:../../libDaisy//src/hid/midi.h ****                                                                     & 0x07);
 203:../../libDaisy//src/hid/midi.h ****                                 //sysex
 204:../../libDaisy//src/hid/midi.h ****                                 if(incoming_message_.sc_type == SystemExclusive)
 205:../../libDaisy//src/hid/midi.h ****                                 {
 206:../../libDaisy//src/hid/midi.h ****                                     pstate_ = ParserSysEx;
 207:../../libDaisy//src/hid/midi.h ****                                     incoming_message_.sysex_message_len = 0;
 208:../../libDaisy//src/hid/midi.h ****                                 }
 209:../../libDaisy//src/hid/midi.h ****                                 //short circuit
 210:../../libDaisy//src/hid/midi.h ****                                 else if(incoming_message_.sc_type > SongSelect)
 211:../../libDaisy//src/hid/midi.h ****                                 {
 212:../../libDaisy//src/hid/midi.h ****                                     pstate_ = ParserEmpty;
 213:../../libDaisy//src/hid/midi.h ****                                     event_q_.Write(incoming_message_);
 214:../../libDaisy//src/hid/midi.h ****                                 }
 215:../../libDaisy//src/hid/midi.h ****                             }
 216:../../libDaisy//src/hid/midi.h ****                         }
 217:../../libDaisy//src/hid/midi.h ****                     }
 218:../../libDaisy//src/hid/midi.h ****                     // Else we'll keep waiting for a valid incoming status byte
 219:../../libDaisy//src/hid/midi.h ****                 }
 220:../../libDaisy//src/hid/midi.h ****                 else
 221:../../libDaisy//src/hid/midi.h ****                 {
 222:../../libDaisy//src/hid/midi.h ****                     // Handle as running status
 223:../../libDaisy//src/hid/midi.h ****                     incoming_message_.type    = running_status_;
 224:../../libDaisy//src/hid/midi.h ****                     incoming_message_.data[0] = byte & kDataByteMask;
 225:../../libDaisy//src/hid/midi.h ****                     //check for single byte running status, really this only applies to channel pre
 226:../../libDaisy//src/hid/midi.h ****                     if(running_status_ == ChannelPressure
 227:../../libDaisy//src/hid/midi.h ****                        || running_status_ == ProgramChange
 228:../../libDaisy//src/hid/midi.h ****                        || incoming_message_.sc_type == MTCQuarterFrame
ARM GAS  C:\Users\danst\AppData\Local\Temp\ccwBJjMd.s 			page 101


 229:../../libDaisy//src/hid/midi.h ****                        || incoming_message_.sc_type == SongSelect)
 230:../../libDaisy//src/hid/midi.h ****                     {
 231:../../libDaisy//src/hid/midi.h ****                         //Send the single byte update
 232:../../libDaisy//src/hid/midi.h ****                         pstate_ = ParserEmpty;
 233:../../libDaisy//src/hid/midi.h ****                         event_q_.Write(incoming_message_);
 234:../../libDaisy//src/hid/midi.h ****                     }
 235:../../libDaisy//src/hid/midi.h ****                     else
 236:../../libDaisy//src/hid/midi.h ****                     {
 237:../../libDaisy//src/hid/midi.h ****                         pstate_
 238:../../libDaisy//src/hid/midi.h ****                             = ParserHasData0; //we need to get the 2nd byte yet.
 239:../../libDaisy//src/hid/midi.h ****                     }
 240:../../libDaisy//src/hid/midi.h ****                 }
 241:../../libDaisy//src/hid/midi.h ****                 break;
 242:../../libDaisy//src/hid/midi.h ****             case ParserHasStatus:
 243:../../libDaisy//src/hid/midi.h ****                 if((byte & kStatusByteMask) == 0)
 244:../../libDaisy//src/hid/midi.h ****                 {
 245:../../libDaisy//src/hid/midi.h ****                     incoming_message_.data[0] = byte & kDataByteMask;
 246:../../libDaisy//src/hid/midi.h ****                     if(running_status_ == ChannelPressure
 247:../../libDaisy//src/hid/midi.h ****                        || running_status_ == ProgramChange
 248:../../libDaisy//src/hid/midi.h ****                        || incoming_message_.sc_type == MTCQuarterFrame
 249:../../libDaisy//src/hid/midi.h ****                        || incoming_message_.sc_type == SongSelect)
 250:../../libDaisy//src/hid/midi.h ****                     {
 251:../../libDaisy//src/hid/midi.h ****                         //these are just one data byte, so we short circuit back to start
 252:../../libDaisy//src/hid/midi.h ****                         pstate_ = ParserEmpty;
 253:../../libDaisy//src/hid/midi.h ****                         event_q_.Write(incoming_message_);
 254:../../libDaisy//src/hid/midi.h ****                     }
 255:../../libDaisy//src/hid/midi.h ****                     else
 256:../../libDaisy//src/hid/midi.h ****                     {
 257:../../libDaisy//src/hid/midi.h ****                         pstate_ = ParserHasData0;
 258:../../libDaisy//src/hid/midi.h ****                     }
 259:../../libDaisy//src/hid/midi.h **** 
 260:../../libDaisy//src/hid/midi.h ****                     //ChannelModeMessages (reserved Control Changes)
 261:../../libDaisy//src/hid/midi.h ****                     if(running_status_ == ControlChange
 262:../../libDaisy//src/hid/midi.h ****                        && incoming_message_.data[0] > 119)
 263:../../libDaisy//src/hid/midi.h ****                     {
 264:../../libDaisy//src/hid/midi.h ****                         incoming_message_.type = ChannelMode;
 265:../../libDaisy//src/hid/midi.h ****                         running_status_        = ChannelMode;
 266:../../libDaisy//src/hid/midi.h ****                         incoming_message_.cm_type
 267:../../libDaisy//src/hid/midi.h ****                             = static_cast<ChannelModeType>(
 268:../../libDaisy//src/hid/midi.h ****                                 incoming_message_.data[0] - 120);
 269:../../libDaisy//src/hid/midi.h ****                     }
 270:../../libDaisy//src/hid/midi.h ****                 }
 271:../../libDaisy//src/hid/midi.h ****                 else
 272:../../libDaisy//src/hid/midi.h ****                 {
 273:../../libDaisy//src/hid/midi.h ****                     // invalid message go back to start ;p
 274:../../libDaisy//src/hid/midi.h ****                     pstate_ = ParserEmpty;
 275:../../libDaisy//src/hid/midi.h ****                 }
 276:../../libDaisy//src/hid/midi.h ****                 break;
 277:../../libDaisy//src/hid/midi.h ****             case ParserHasData0:
 278:../../libDaisy//src/hid/midi.h ****                 if((byte & kStatusByteMask) == 0)
 279:../../libDaisy//src/hid/midi.h ****                 {
 280:../../libDaisy//src/hid/midi.h ****                     incoming_message_.data[1] = byte & kDataByteMask;
 281:../../libDaisy//src/hid/midi.h **** 
 282:../../libDaisy//src/hid/midi.h ****                     //velocity 0 NoteOns are NoteOffs
 283:../../libDaisy//src/hid/midi.h ****                     if(running_status_ == NoteOn
 284:../../libDaisy//src/hid/midi.h ****                        && incoming_message_.data[1] == 0)
 285:../../libDaisy//src/hid/midi.h ****                     {
ARM GAS  C:\Users\danst\AppData\Local\Temp\ccwBJjMd.s 			page 102


 286:../../libDaisy//src/hid/midi.h ****                         incoming_message_.type = NoteOff;
 287:../../libDaisy//src/hid/midi.h ****                     }
 288:../../libDaisy//src/hid/midi.h **** 
 289:../../libDaisy//src/hid/midi.h ****                     // At this point the message is valid, and we can add this MidiEvent to the que
 290:../../libDaisy//src/hid/midi.h ****                     event_q_.Write(incoming_message_);
 291:../../libDaisy//src/hid/midi.h ****                 }
 292:../../libDaisy//src/hid/midi.h ****                 else
 293:../../libDaisy//src/hid/midi.h ****                 {
 294:../../libDaisy//src/hid/midi.h ****                     // invalid message go back to start ;p
 295:../../libDaisy//src/hid/midi.h ****                     pstate_ = ParserEmpty;
 296:../../libDaisy//src/hid/midi.h ****                 }
 297:../../libDaisy//src/hid/midi.h ****                 // Regardless, of whether the data was valid or not we go back to empty
 298:../../libDaisy//src/hid/midi.h ****                 // because either the message is queued for handling or its not.
 299:../../libDaisy//src/hid/midi.h ****                 pstate_ = ParserEmpty;
 300:../../libDaisy//src/hid/midi.h ****                 break;
 301:../../libDaisy//src/hid/midi.h ****             case ParserSysEx:
 302:../../libDaisy//src/hid/midi.h ****                 // end of sysex
 303:../../libDaisy//src/hid/midi.h ****                 if(byte == 0xf7)
 304:../../libDaisy//src/hid/midi.h ****                 {
 305:../../libDaisy//src/hid/midi.h ****                     pstate_ = ParserEmpty;
 306:../../libDaisy//src/hid/midi.h ****                     event_q_.Write(incoming_message_);
 307:../../libDaisy//src/hid/midi.h ****                 }
 308:../../libDaisy//src/hid/midi.h ****                 else if(incoming_message_.sysex_message_len < SYSEX_BUFFER_LEN)
 309:../../libDaisy//src/hid/midi.h ****                 {
 310:../../libDaisy//src/hid/midi.h ****                     incoming_message_
 311:../../libDaisy//src/hid/midi.h ****                         .sysex_data[incoming_message_.sysex_message_len]
 312:../../libDaisy//src/hid/midi.h ****                         = byte;
 313:../../libDaisy//src/hid/midi.h ****                     incoming_message_.sysex_message_len++;
 314:../../libDaisy//src/hid/midi.h ****                 }
 315:../../libDaisy//src/hid/midi.h ****                 break;
 316:../../libDaisy//src/hid/midi.h ****             default: break;
 317:../../libDaisy//src/hid/midi.h ****         }
 318:../../libDaisy//src/hid/midi.h ****     }
 3548              		.loc 14 318 5 view .LVU952
 3549 0042 48B0     		add	sp, sp, #288
 3550              		.cfi_remember_state
 3551              		.cfi_def_cfa_offset 24
 3552              		@ sp needed
 3553 0044 BDE8F081 		pop	{r4, r5, r6, r7, r8, pc}
 3554              	.LVL250:
 3555              	.L97:
 3556              		.cfi_restore_state
 3557              		.loc 14 318 5 view .LVU953
 3558 0048 032B     		cmp	r3, #3
 3559 004a FAD8     		bhi	.L96
 3560 004c DFE803F0 		tbb	[pc, r3]
 3561              	.L120:
 3562 0050 8D       		.byte	(.L106-.L120)/2
 3563 0051 11       		.byte	(.L110-.L120)/2
 3564 0052 58       		.byte	(.L115-.L120)/2
 3565 0053 02       		.byte	(.L98-.L120)/2
 3566              		.p2align 1
 3567              	.L98:
 303:../../libDaisy//src/hid/midi.h ****                 {
 3568              		.loc 14 303 17 view .LVU954
 3569 0054 F729     		cmp	r1, #247
 3570 0056 00F0C380 		beq	.L155
ARM GAS  C:\Users\danst\AppData\Local\Temp\ccwBJjMd.s 			page 103


 308:../../libDaisy//src/hid/midi.h ****                 {
 3571              		.loc 14 308 22 view .LVU955
 3572 005a 95F99220 		ldrsb	r2, [r5, #146]
 308:../../libDaisy//src/hid/midi.h ****                 {
 3573              		.loc 14 308 43 view .LVU956
 3574 005e 95F89230 		ldrb	r3, [r5, #146]	@ zero_extendqisi2
 308:../../libDaisy//src/hid/midi.h ****                 {
 3575              		.loc 14 308 22 view .LVU957
 3576 0062 002A     		cmp	r2, #0
 3577 0064 EDDB     		blt	.L96
 312:../../libDaisy//src/hid/midi.h ****                     incoming_message_.sysex_message_len++;
 3578              		.loc 14 312 25 view .LVU958
 3579 0066 EA18     		adds	r2, r5, r3
 313:../../libDaisy//src/hid/midi.h ****                 }
 3580              		.loc 14 313 21 view .LVU959
 3581 0068 0133     		adds	r3, r3, #1
 312:../../libDaisy//src/hid/midi.h ****                     incoming_message_.sysex_message_len++;
 3582              		.loc 14 312 25 view .LVU960
 3583 006a 9174     		strb	r1, [r2, #18]
 313:../../libDaisy//src/hid/midi.h ****                 }
 3584              		.loc 14 313 21 view .LVU961
 3585 006c 85F89230 		strb	r3, [r5, #146]
 3586              		.loc 14 318 5 view .LVU962
 3587 0070 E7E7     		b	.L96
 3588              	.L110:
 245:../../libDaisy//src/hid/midi.h ****                     if(running_status_ == ChannelPressure
 3589              		.loc 14 245 54 view .LVU963
 3590 0072 94F8AE80 		ldrb	r8, [r4, #174]	@ zero_extendqisi2
 3591 0076 01EA0808 		and	r8, r1, r8
 245:../../libDaisy//src/hid/midi.h ****                     if(running_status_ == ChannelPressure
 3592              		.loc 14 245 47 view .LVU964
 3593 007a 85F81080 		strb	r8, [r5, #16]
 246:../../libDaisy//src/hid/midi.h ****                        || running_status_ == ProgramChange
 3594              		.loc 14 246 24 view .LVU965
 3595 007e 94F8A470 		ldrb	r7, [r4, #164]	@ zero_extendqisi2
 246:../../libDaisy//src/hid/midi.h ****                        || running_status_ == ProgramChange
 3596              		.loc 14 246 21 view .LVU966
 3597 0082 3B1F     		subs	r3, r7, #4
 3598 0084 012B     		cmp	r3, #1
 3599 0086 06D9     		bls	.L111
 248:../../libDaisy//src/hid/midi.h ****                        || incoming_message_.sc_type == SongSelect)
 3600              		.loc 14 248 24 view .LVU967
 3601 0088 95F89330 		ldrb	r3, [r5, #147]	@ zero_extendqisi2
 249:../../libDaisy//src/hid/midi.h ****                     {
 3602              		.loc 14 249 24 view .LVU968
 3603 008c 03F0FD03 		and	r3, r3, #253
 3604 0090 012B     		cmp	r3, #1
 3605 0092 40F0BB80 		bne	.L112
 3606              	.L111:
 252:../../libDaisy//src/hid/midi.h ****                         event_q_.Write(incoming_message_);
 3607              		.loc 14 252 33 view .LVU969
 3608 0096 0023     		movs	r3, #0
 3609 0098 6E46     		mov	r6, sp
 3610 009a 9022     		movs	r2, #144
 3611 009c 05F10801 		add	r1, r5, #8
 3612              	.LVL251:
 252:../../libDaisy//src/hid/midi.h ****                         event_q_.Write(incoming_message_);
ARM GAS  C:\Users\danst\AppData\Local\Temp\ccwBJjMd.s 			page 104


 3613              		.loc 14 252 33 view .LVU970
 3614 00a0 3046     		mov	r0, r6
 3615              	.LVL252:
 252:../../libDaisy//src/hid/midi.h ****                         event_q_.Write(incoming_message_);
 3616              		.loc 14 252 33 view .LVU971
 3617 00a2 2B71     		strb	r3, [r5, #4]
 3618              	.LVL253:
 252:../../libDaisy//src/hid/midi.h ****                         event_q_.Write(incoming_message_);
 3619              		.loc 14 252 33 view .LVU972
 3620 00a4 FFF7FEFF 		bl	memcpy
 3621              	.LVL254:
 3622              	.LBB940:
 3623              	.LBI940:
 3624              		.file 19 "../../libDaisy//src/util/ringbuffer.h"
   1:../../libDaisy//src/util/ringbuffer.h **** #pragma once
   2:../../libDaisy//src/util/ringbuffer.h **** #ifndef DSY_RINGBUFFER_H
   3:../../libDaisy//src/util/ringbuffer.h **** #define DSY_RINGBUFFER_H
   4:../../libDaisy//src/util/ringbuffer.h **** 
   5:../../libDaisy//src/util/ringbuffer.h **** #include <algorithm>
   6:../../libDaisy//src/util/ringbuffer.h **** 
   7:../../libDaisy//src/util/ringbuffer.h **** namespace daisy
   8:../../libDaisy//src/util/ringbuffer.h **** {
   9:../../libDaisy//src/util/ringbuffer.h **** /** @addtogroup utility
  10:../../libDaisy//src/util/ringbuffer.h ****     @{
  11:../../libDaisy//src/util/ringbuffer.h **** */
  12:../../libDaisy//src/util/ringbuffer.h **** 
  13:../../libDaisy//src/util/ringbuffer.h **** /**
  14:../../libDaisy//src/util/ringbuffer.h **** Utility Ring Buffer \n 
  15:../../libDaisy//src/util/ringbuffer.h **** imported from pichenettes/stmlib
  16:../../libDaisy//src/util/ringbuffer.h **** */
  17:../../libDaisy//src/util/ringbuffer.h **** template <typename T, size_t size>
  18:../../libDaisy//src/util/ringbuffer.h **** class RingBuffer
  19:../../libDaisy//src/util/ringbuffer.h **** {
  20:../../libDaisy//src/util/ringbuffer.h ****   public:
  21:../../libDaisy//src/util/ringbuffer.h ****     RingBuffer() {}
  22:../../libDaisy//src/util/ringbuffer.h **** 
  23:../../libDaisy//src/util/ringbuffer.h ****     /** Initializes the Ring Buffer */
  24:../../libDaisy//src/util/ringbuffer.h ****     inline void Init() { read_ptr_ = write_ptr_ = 0; }
  25:../../libDaisy//src/util/ringbuffer.h **** 
  26:../../libDaisy//src/util/ringbuffer.h ****     /** \return The total size of the ring buffer */
  27:../../libDaisy//src/util/ringbuffer.h ****     inline size_t capacity() const { return size; }
  28:../../libDaisy//src/util/ringbuffer.h **** 
  29:../../libDaisy//src/util/ringbuffer.h ****     /** \return the number of samples that can be written to ring buffer without overwriting unread
  30:../../libDaisy//src/util/ringbuffer.h ****     inline size_t writable() const
  31:../../libDaisy//src/util/ringbuffer.h ****     {
  32:../../libDaisy//src/util/ringbuffer.h ****         return (read_ptr_ - write_ptr_ - 1) % size;
  33:../../libDaisy//src/util/ringbuffer.h ****     }
  34:../../libDaisy//src/util/ringbuffer.h **** 
  35:../../libDaisy//src/util/ringbuffer.h ****     /** \return number of unread elements in ring buffer */
  36:../../libDaisy//src/util/ringbuffer.h ****     inline size_t readable() const { return (write_ptr_ - read_ptr_) % size; }
  37:../../libDaisy//src/util/ringbuffer.h **** 
  38:../../libDaisy//src/util/ringbuffer.h ****     /** \returns True, if the buffer is empty. */
  39:../../libDaisy//src/util/ringbuffer.h ****     inline bool isEmpty() const { return write_ptr_ == read_ptr_; }
  40:../../libDaisy//src/util/ringbuffer.h **** 
  41:../../libDaisy//src/util/ringbuffer.h ****     /** Writes the value to the next available position in the ring buffer
  42:../../libDaisy//src/util/ringbuffer.h ****     \param v Value to write
  43:../../libDaisy//src/util/ringbuffer.h ****     */
ARM GAS  C:\Users\danst\AppData\Local\Temp\ccwBJjMd.s 			page 105


  44:../../libDaisy//src/util/ringbuffer.h ****     inline void Write(T v)
 3625              		.loc 19 44 17 is_stmt 1 view .LVU973
 3626              	.L113:
 3627              	.LBB941:
  45:../../libDaisy//src/util/ringbuffer.h ****     {
  46:../../libDaisy//src/util/ringbuffer.h ****         while(!writable())
 3628              		.loc 19 46 24 view .LVU974
 3629              	.LBB942:
 3630              	.LBI942:
  30:../../libDaisy//src/util/ringbuffer.h ****     {
 3631              		.loc 19 30 19 view .LVU975
 3632              	.LBB943:
  32:../../libDaisy//src/util/ringbuffer.h ****     }
 3633              		.loc 19 32 17 is_stmt 0 view .LVU976
 3634 00a8 D4F89830 		ldr	r3, [r4, #152]
  32:../../libDaisy//src/util/ringbuffer.h ****     }
 3635              		.loc 19 32 29 view .LVU977
 3636 00ac D4F89C20 		ldr	r2, [r4, #156]
 3637              	.LVL255:
  32:../../libDaisy//src/util/ringbuffer.h ****     }
 3638              		.loc 19 32 40 view .LVU978
 3639 00b0 013B     		subs	r3, r3, #1
 3640 00b2 9B1A     		subs	r3, r3, r2
  32:../../libDaisy//src/util/ringbuffer.h ****     }
 3641              		.loc 19 32 47 view .LVU979
 3642 00b4 DBB2     		uxtb	r3, r3
 3643              	.LBE943:
 3644              	.LBE942:
 3645              		.loc 19 46 24 view .LVU980
 3646 00b6 002B     		cmp	r3, #0
 3647 00b8 F6D0     		beq	.L113
 3648              	.LVL256:
 3649              		.loc 19 46 24 view .LVU981
 3650 00ba 9022     		movs	r2, #144
 3651 00bc 3146     		mov	r1, r6
 3652 00be 0DEB0200 		add	r0, sp, r2
 3653 00c2 FFF7FEFF 		bl	memcpy
 3654              	.LVL257:
 3655              	.LBB944:
 3656              	.LBI944:
  47:../../libDaisy//src/util/ringbuffer.h ****             ;
  48:../../libDaisy//src/util/ringbuffer.h ****         Overwrite(v);
  49:../../libDaisy//src/util/ringbuffer.h ****     }
  50:../../libDaisy//src/util/ringbuffer.h **** 
  51:../../libDaisy//src/util/ringbuffer.h ****     /** Writes the new element to the ring buffer, overwriting unread data if necessary. 
  52:../../libDaisy//src/util/ringbuffer.h ****     \param v Value to overwrite
  53:../../libDaisy//src/util/ringbuffer.h ****      */
  54:../../libDaisy//src/util/ringbuffer.h ****     inline void Overwrite(T v)
 3657              		.loc 19 54 17 is_stmt 1 view .LVU982
 3658              	.LBB945:
  55:../../libDaisy//src/util/ringbuffer.h ****     {
  56:../../libDaisy//src/util/ringbuffer.h ****         size_t w   = write_ptr_;
 3659              		.loc 19 56 16 is_stmt 0 view .LVU983
 3660 00c6 D4F89C60 		ldr	r6, [r4, #156]
 3661              	.LVL258:
  57:../../libDaisy//src/util/ringbuffer.h ****         buffer_[w] = v;
 3662              		.loc 19 57 9 view .LVU984
ARM GAS  C:\Users\danst\AppData\Local\Temp\ccwBJjMd.s 			page 106


 3663 00ca 24A9     		add	r1, sp, #144
 3664 00cc 9022     		movs	r2, #144
 3665 00ce 06EBC600 		add	r0, r6, r6, lsl #3
  58:../../libDaisy//src/util/ringbuffer.h ****         write_ptr_ = (w + 1) % size;
 3666              		.loc 19 58 25 view .LVU985
 3667 00d2 0136     		adds	r6, r6, #1
 3668              	.LVL259:
  57:../../libDaisy//src/util/ringbuffer.h ****         buffer_[w] = v;
 3669              		.loc 19 57 9 view .LVU986
 3670 00d4 05EB0010 		add	r0, r5, r0, lsl #4
 3671              		.loc 19 58 30 view .LVU987
 3672 00d8 F6B2     		uxtb	r6, r6
 3673              	.LVL260:
  57:../../libDaisy//src/util/ringbuffer.h ****         buffer_[w] = v;
 3674              		.loc 19 57 9 view .LVU988
 3675 00da 9830     		adds	r0, r0, #152
 3676 00dc FFF7FEFF 		bl	memcpy
 3677              	.LVL261:
 3678              		.loc 19 58 20 view .LVU989
 3679 00e0 C4F89C60 		str	r6, [r4, #156]
 3680              	.LVL262:
 3681              	.L114:
 3682              		.loc 19 58 20 view .LVU990
 3683              	.LBE945:
 3684              	.LBE944:
 3685              	.LBE941:
 3686              	.LBE940:
 262:../../libDaisy//src/hid/midi.h ****                     {
 3687              		.loc 14 262 24 view .LVU991
 3688 00e4 B8F1770F 		cmp	r8, #119
 3689 00e8 ABD9     		bls	.L96
 3690 00ea 032F     		cmp	r7, #3
 3691 00ec A9D1     		bne	.L96
 264:../../libDaisy//src/hid/midi.h ****                         running_status_        = ChannelMode;
 3692              		.loc 14 264 48 view .LVU992
 3693 00ee 0923     		movs	r3, #9
 268:../../libDaisy//src/hid/midi.h ****                     }
 3694              		.loc 14 268 59 view .LVU993
 3695 00f0 A8F17801 		sub	r1, r8, #120
 264:../../libDaisy//src/hid/midi.h ****                         running_status_        = ChannelMode;
 3696              		.loc 14 264 48 view .LVU994
 3697 00f4 2B72     		strb	r3, [r5, #8]
 265:../../libDaisy//src/hid/midi.h ****                         incoming_message_.cm_type
 3698              		.loc 14 265 48 view .LVU995
 3699 00f6 84F8A430 		strb	r3, [r4, #164]
 267:../../libDaisy//src/hid/midi.h ****                                 incoming_message_.data[0] - 120);
 3700              		.loc 14 267 29 view .LVU996
 3701 00fa 85F89510 		strb	r1, [r5, #149]
 3702 00fe A0E7     		b	.L96
 3703              	.LVL263:
 3704              	.L115:
 280:../../libDaisy//src/hid/midi.h **** 
 3705              		.loc 14 280 54 view .LVU997
 3706 0100 94F8AE30 		ldrb	r3, [r4, #174]	@ zero_extendqisi2
 3707 0104 1940     		ands	r1, r1, r3
 3708              	.LVL264:
 280:../../libDaisy//src/hid/midi.h **** 
ARM GAS  C:\Users\danst\AppData\Local\Temp\ccwBJjMd.s 			page 107


 3709              		.loc 14 280 47 view .LVU998
 3710 0106 6974     		strb	r1, [r5, #17]
 283:../../libDaisy//src/hid/midi.h ****                        && incoming_message_.data[1] == 0)
 3711              		.loc 14 283 21 view .LVU999
 3712 0108 94F8A430 		ldrb	r3, [r4, #164]	@ zero_extendqisi2
 284:../../libDaisy//src/hid/midi.h ****                     {
 3713              		.loc 14 284 24 view .LVU1000
 3714 010c 012B     		cmp	r3, #1
 3715 010e 02D1     		bne	.L116
 3716 0110 0029     		cmp	r1, #0
 3717 0112 00F08C80 		beq	.L156
 3718              	.L116:
 3719              	.LVL265:
 284:../../libDaisy//src/hid/midi.h ****                     {
 3720              		.loc 14 284 24 view .LVU1001
 3721 0116 6E46     		mov	r6, sp
 3722 0118 9022     		movs	r2, #144
 3723 011a 05F10801 		add	r1, r5, #8
 3724 011e 3046     		mov	r0, r6
 3725              	.LVL266:
 284:../../libDaisy//src/hid/midi.h ****                     {
 3726              		.loc 14 284 24 view .LVU1002
 3727 0120 FFF7FEFF 		bl	memcpy
 3728              	.LVL267:
 3729              	.LBB946:
 3730              	.LBI946:
  44:../../libDaisy//src/util/ringbuffer.h ****     {
 3731              		.loc 19 44 17 is_stmt 1 view .LVU1003
 3732              	.L117:
 3733              	.LBB947:
  46:../../libDaisy//src/util/ringbuffer.h ****             ;
 3734              		.loc 19 46 24 view .LVU1004
 3735              	.LBB948:
 3736              	.LBI948:
  30:../../libDaisy//src/util/ringbuffer.h ****     {
 3737              		.loc 19 30 19 view .LVU1005
 3738              	.LBB949:
  32:../../libDaisy//src/util/ringbuffer.h ****     }
 3739              		.loc 19 32 17 is_stmt 0 view .LVU1006
 3740 0124 D4F89830 		ldr	r3, [r4, #152]
  32:../../libDaisy//src/util/ringbuffer.h ****     }
 3741              		.loc 19 32 29 view .LVU1007
 3742 0128 D4F89C20 		ldr	r2, [r4, #156]
 3743              	.LVL268:
  32:../../libDaisy//src/util/ringbuffer.h ****     }
 3744              		.loc 19 32 40 view .LVU1008
 3745 012c 013B     		subs	r3, r3, #1
 3746 012e 9B1A     		subs	r3, r3, r2
  32:../../libDaisy//src/util/ringbuffer.h ****     }
 3747              		.loc 19 32 47 view .LVU1009
 3748 0130 DBB2     		uxtb	r3, r3
 3749              	.LBE949:
 3750              	.LBE948:
  46:../../libDaisy//src/util/ringbuffer.h ****             ;
 3751              		.loc 19 46 24 view .LVU1010
 3752 0132 002B     		cmp	r3, #0
 3753 0134 F6D0     		beq	.L117
ARM GAS  C:\Users\danst\AppData\Local\Temp\ccwBJjMd.s 			page 108


 3754              	.LVL269:
  46:../../libDaisy//src/util/ringbuffer.h ****             ;
 3755              		.loc 19 46 24 view .LVU1011
 3756 0136 9022     		movs	r2, #144
 3757 0138 3146     		mov	r1, r6
 3758 013a 0DEB0200 		add	r0, sp, r2
 3759 013e FFF7FEFF 		bl	memcpy
 3760              	.LVL270:
 3761              	.LBB950:
 3762              	.LBI950:
  54:../../libDaisy//src/util/ringbuffer.h ****     {
 3763              		.loc 19 54 17 is_stmt 1 view .LVU1012
 3764              	.LBB951:
  56:../../libDaisy//src/util/ringbuffer.h ****         buffer_[w] = v;
 3765              		.loc 19 56 16 is_stmt 0 view .LVU1013
 3766 0142 D4F89C60 		ldr	r6, [r4, #156]
 3767              	.LVL271:
  57:../../libDaisy//src/util/ringbuffer.h ****         write_ptr_ = (w + 1) % size;
 3768              		.loc 19 57 9 view .LVU1014
 3769 0146 24A9     		add	r1, sp, #144
 3770 0148 9022     		movs	r2, #144
 3771 014a 06EBC600 		add	r0, r6, r6, lsl #3
 3772              		.loc 19 58 25 view .LVU1015
 3773 014e 0136     		adds	r6, r6, #1
 3774              	.LVL272:
  57:../../libDaisy//src/util/ringbuffer.h ****         write_ptr_ = (w + 1) % size;
 3775              		.loc 19 57 9 view .LVU1016
 3776 0150 05EB0010 		add	r0, r5, r0, lsl #4
 3777              		.loc 19 58 30 view .LVU1017
 3778 0154 F6B2     		uxtb	r6, r6
 3779              	.LVL273:
  57:../../libDaisy//src/util/ringbuffer.h ****         write_ptr_ = (w + 1) % size;
 3780              		.loc 19 57 9 view .LVU1018
 3781 0156 9830     		adds	r0, r0, #152
 3782 0158 FFF7FEFF 		bl	memcpy
 3783              	.LVL274:
 3784              	.LBE951:
 3785              	.LBE950:
 3786              	.LBE947:
 3787              	.LBE946:
 299:../../libDaisy//src/hid/midi.h ****                 break;
 3788              		.loc 14 299 25 view .LVU1019
 3789 015c 0023     		movs	r3, #0
 3790              	.LBB955:
 3791              	.LBB954:
 3792              	.LBB953:
 3793              	.LBB952:
 3794              		.loc 19 58 20 view .LVU1020
 3795 015e C4F89C60 		str	r6, [r4, #156]
 3796              	.LVL275:
 3797              		.loc 19 58 20 view .LVU1021
 3798              	.LBE952:
 3799              	.LBE953:
 3800              	.LBE954:
 3801              	.LBE955:
 299:../../libDaisy//src/hid/midi.h ****                 break;
 3802              		.loc 14 299 25 view .LVU1022
ARM GAS  C:\Users\danst\AppData\Local\Temp\ccwBJjMd.s 			page 109


 3803 0162 2B71     		strb	r3, [r5, #4]
 3804              		.loc 14 318 5 view .LVU1023
 3805 0164 48B0     		add	sp, sp, #288
 3806              		.cfi_remember_state
 3807              		.cfi_def_cfa_offset 24
 3808              		@ sp needed
 3809 0166 BDE8F081 		pop	{r4, r5, r6, r7, r8, pc}
 3810              	.LVL276:
 3811              	.L106:
 3812              		.cfi_restore_state
 223:../../libDaisy//src/hid/midi.h ****                     incoming_message_.data[0] = byte & kDataByteMask;
 3813              		.loc 14 223 49 view .LVU1024
 3814 016a 94F8A430 		ldrb	r3, [r4, #164]	@ zero_extendqisi2
 223:../../libDaisy//src/hid/midi.h ****                     incoming_message_.data[0] = byte & kDataByteMask;
 3815              		.loc 14 223 47 view .LVU1025
 3816 016e 2B72     		strb	r3, [r5, #8]
 226:../../libDaisy//src/hid/midi.h ****                        || running_status_ == ProgramChange
 3817              		.loc 14 226 21 view .LVU1026
 3818 0170 043B     		subs	r3, r3, #4
 224:../../libDaisy//src/hid/midi.h ****                     //check for single byte running status, really this only applies to channel pre
 3819              		.loc 14 224 54 view .LVU1027
 3820 0172 94F8AE20 		ldrb	r2, [r4, #174]	@ zero_extendqisi2
 226:../../libDaisy//src/hid/midi.h ****                        || running_status_ == ProgramChange
 3821              		.loc 14 226 21 view .LVU1028
 3822 0176 012B     		cmp	r3, #1
 224:../../libDaisy//src/hid/midi.h ****                     //check for single byte running status, really this only applies to channel pre
 3823              		.loc 14 224 54 view .LVU1029
 3824 0178 01EA0201 		and	r1, r1, r2
 3825              	.LVL277:
 224:../../libDaisy//src/hid/midi.h ****                     //check for single byte running status, really this only applies to channel pre
 3826              		.loc 14 224 47 view .LVU1030
 3827 017c 2974     		strb	r1, [r5, #16]
 226:../../libDaisy//src/hid/midi.h ****                        || running_status_ == ProgramChange
 3828              		.loc 14 226 21 view .LVU1031
 3829 017e 05D9     		bls	.L107
 228:../../libDaisy//src/hid/midi.h ****                        || incoming_message_.sc_type == SongSelect)
 3830              		.loc 14 228 24 view .LVU1032
 3831 0180 95F89330 		ldrb	r3, [r5, #147]	@ zero_extendqisi2
 229:../../libDaisy//src/hid/midi.h ****                     {
 3832              		.loc 14 229 24 view .LVU1033
 3833 0184 03F0FD03 		and	r3, r3, #253
 3834 0188 012B     		cmp	r3, #1
 3835 018a 3CD1     		bne	.L108
 3836              	.L107:
 232:../../libDaisy//src/hid/midi.h ****                         event_q_.Write(incoming_message_);
 3837              		.loc 14 232 33 view .LVU1034
 3838 018c 0023     		movs	r3, #0
 3839 018e 6E46     		mov	r6, sp
 3840 0190 9022     		movs	r2, #144
 3841 0192 05F10801 		add	r1, r5, #8
 3842 0196 3046     		mov	r0, r6
 3843              	.LVL278:
 232:../../libDaisy//src/hid/midi.h ****                         event_q_.Write(incoming_message_);
 3844              		.loc 14 232 33 view .LVU1035
 3845 0198 2B71     		strb	r3, [r5, #4]
 3846              	.LVL279:
 232:../../libDaisy//src/hid/midi.h ****                         event_q_.Write(incoming_message_);
ARM GAS  C:\Users\danst\AppData\Local\Temp\ccwBJjMd.s 			page 110


 3847              		.loc 14 232 33 view .LVU1036
 3848 019a FFF7FEFF 		bl	memcpy
 3849              	.LVL280:
 3850              	.LBB956:
 3851              	.LBI956:
  44:../../libDaisy//src/util/ringbuffer.h ****     {
 3852              		.loc 19 44 17 is_stmt 1 view .LVU1037
 3853              	.L109:
 3854              	.LBB957:
  46:../../libDaisy//src/util/ringbuffer.h ****             ;
 3855              		.loc 19 46 24 view .LVU1038
 3856              	.LBB958:
 3857              	.LBI958:
  30:../../libDaisy//src/util/ringbuffer.h ****     {
 3858              		.loc 19 30 19 view .LVU1039
 3859              	.LBB959:
  32:../../libDaisy//src/util/ringbuffer.h ****     }
 3860              		.loc 19 32 17 is_stmt 0 view .LVU1040
 3861 019e D4F89830 		ldr	r3, [r4, #152]
  32:../../libDaisy//src/util/ringbuffer.h ****     }
 3862              		.loc 19 32 29 view .LVU1041
 3863 01a2 D4F89C20 		ldr	r2, [r4, #156]
 3864              	.LVL281:
  32:../../libDaisy//src/util/ringbuffer.h ****     }
 3865              		.loc 19 32 40 view .LVU1042
 3866 01a6 013B     		subs	r3, r3, #1
 3867 01a8 9B1A     		subs	r3, r3, r2
  32:../../libDaisy//src/util/ringbuffer.h ****     }
 3868              		.loc 19 32 47 view .LVU1043
 3869 01aa DBB2     		uxtb	r3, r3
 3870              	.LBE959:
 3871              	.LBE958:
  46:../../libDaisy//src/util/ringbuffer.h ****             ;
 3872              		.loc 19 46 24 view .LVU1044
 3873 01ac 002B     		cmp	r3, #0
 3874 01ae F6D0     		beq	.L109
 3875              	.LVL282:
 3876              	.L153:
  46:../../libDaisy//src/util/ringbuffer.h ****             ;
 3877              		.loc 19 46 24 view .LVU1045
 3878 01b0 9022     		movs	r2, #144
 3879 01b2 3146     		mov	r1, r6
 3880 01b4 0DEB0200 		add	r0, sp, r2
 3881 01b8 FFF7FEFF 		bl	memcpy
 3882              	.LVL283:
 3883              	.LBE957:
 3884              	.LBE956:
 3885              	.LBB960:
 3886              	.LBB961:
 3887              	.LBB962:
 3888              	.LBI962:
  54:../../libDaisy//src/util/ringbuffer.h ****     {
 3889              		.loc 19 54 17 is_stmt 1 view .LVU1046
 3890              	.LBB963:
  56:../../libDaisy//src/util/ringbuffer.h ****         buffer_[w] = v;
 3891              		.loc 19 56 16 is_stmt 0 view .LVU1047
 3892 01bc D4F89C60 		ldr	r6, [r4, #156]
ARM GAS  C:\Users\danst\AppData\Local\Temp\ccwBJjMd.s 			page 111


 3893              	.LVL284:
  57:../../libDaisy//src/util/ringbuffer.h ****         write_ptr_ = (w + 1) % size;
 3894              		.loc 19 57 9 view .LVU1048
 3895 01c0 24A9     		add	r1, sp, #144
 3896 01c2 9022     		movs	r2, #144
 3897 01c4 06EBC600 		add	r0, r6, r6, lsl #3
 3898              		.loc 19 58 25 view .LVU1049
 3899 01c8 0136     		adds	r6, r6, #1
 3900              	.LVL285:
  57:../../libDaisy//src/util/ringbuffer.h ****         write_ptr_ = (w + 1) % size;
 3901              		.loc 19 57 9 view .LVU1050
 3902 01ca 05EB0010 		add	r0, r5, r0, lsl #4
 3903              		.loc 19 58 30 view .LVU1051
 3904 01ce F6B2     		uxtb	r6, r6
 3905              	.LVL286:
  57:../../libDaisy//src/util/ringbuffer.h ****         write_ptr_ = (w + 1) % size;
 3906              		.loc 19 57 9 view .LVU1052
 3907 01d0 9830     		adds	r0, r0, #152
 3908 01d2 FFF7FEFF 		bl	memcpy
 3909              	.LVL287:
 3910              		.loc 19 58 20 view .LVU1053
 3911 01d6 C4F89C60 		str	r6, [r4, #156]
 3912              		.loc 19 58 20 view .LVU1054
 3913              	.LBE963:
 3914              	.LBE962:
 3915              	.LBE961:
 3916              	.LBE960:
 3917              		.loc 14 318 5 view .LVU1055
 3918 01da 48B0     		add	sp, sp, #288
 3919              		.cfi_remember_state
 3920              		.cfi_def_cfa_offset 24
 3921              		@ sp needed
 3922 01dc BDE8F081 		pop	{r4, r5, r6, r7, r8, pc}
 3923              	.LVL288:
 3924              	.L155:
 3925              		.cfi_restore_state
 305:../../libDaisy//src/hid/midi.h ****                     event_q_.Write(incoming_message_);
 3926              		.loc 14 305 29 view .LVU1056
 3927 01e0 0023     		movs	r3, #0
 3928 01e2 6E46     		mov	r6, sp
 3929 01e4 9022     		movs	r2, #144
 3930 01e6 05F10801 		add	r1, r5, #8
 3931              	.LVL289:
 305:../../libDaisy//src/hid/midi.h ****                     event_q_.Write(incoming_message_);
 3932              		.loc 14 305 29 view .LVU1057
 3933 01ea 3046     		mov	r0, r6
 3934              	.LVL290:
 305:../../libDaisy//src/hid/midi.h ****                     event_q_.Write(incoming_message_);
 3935              		.loc 14 305 29 view .LVU1058
 3936 01ec 2B71     		strb	r3, [r5, #4]
 3937              	.LVL291:
 305:../../libDaisy//src/hid/midi.h ****                     event_q_.Write(incoming_message_);
 3938              		.loc 14 305 29 view .LVU1059
 3939 01ee FFF7FEFF 		bl	memcpy
 3940              	.LVL292:
 3941              	.LBB967:
 3942              	.LBI960:
ARM GAS  C:\Users\danst\AppData\Local\Temp\ccwBJjMd.s 			page 112


  44:../../libDaisy//src/util/ringbuffer.h ****     {
 3943              		.loc 19 44 17 is_stmt 1 view .LVU1060
 3944              	.L119:
 3945              	.LBB966:
  46:../../libDaisy//src/util/ringbuffer.h ****             ;
 3946              		.loc 19 46 24 view .LVU1061
 3947              	.LBB964:
 3948              	.LBI964:
  30:../../libDaisy//src/util/ringbuffer.h ****     {
 3949              		.loc 19 30 19 view .LVU1062
 3950              	.LBB965:
  32:../../libDaisy//src/util/ringbuffer.h ****     }
 3951              		.loc 19 32 17 is_stmt 0 view .LVU1063
 3952 01f2 D4F89830 		ldr	r3, [r4, #152]
  32:../../libDaisy//src/util/ringbuffer.h ****     }
 3953              		.loc 19 32 29 view .LVU1064
 3954 01f6 D4F89C20 		ldr	r2, [r4, #156]
 3955              	.LVL293:
  32:../../libDaisy//src/util/ringbuffer.h ****     }
 3956              		.loc 19 32 40 view .LVU1065
 3957 01fa 013B     		subs	r3, r3, #1
 3958 01fc 9B1A     		subs	r3, r3, r2
  32:../../libDaisy//src/util/ringbuffer.h ****     }
 3959              		.loc 19 32 47 view .LVU1066
 3960 01fe DBB2     		uxtb	r3, r3
 3961              	.LBE965:
 3962              	.LBE964:
  46:../../libDaisy//src/util/ringbuffer.h ****             ;
 3963              		.loc 19 46 24 view .LVU1067
 3964 0200 002B     		cmp	r3, #0
 3965 0202 F6D0     		beq	.L119
 3966 0204 D4E7     		b	.L153
 3967              	.LVL294:
 3968              	.L108:
  46:../../libDaisy//src/util/ringbuffer.h ****             ;
 3969              		.loc 19 46 24 view .LVU1068
 3970              	.LBE966:
 3971              	.LBE967:
 238:../../libDaisy//src/hid/midi.h ****                     }
 3972              		.loc 14 238 29 view .LVU1069
 3973 0206 0223     		movs	r3, #2
 3974 0208 2B71     		strb	r3, [r5, #4]
 3975 020a 1AE7     		b	.L96
 3976              	.LVL295:
 3977              	.L112:
 257:../../libDaisy//src/hid/midi.h ****                     }
 3978              		.loc 14 257 33 view .LVU1070
 3979 020c 0223     		movs	r3, #2
 3980 020e 2B71     		strb	r3, [r5, #4]
 3981 0210 68E7     		b	.L114
 3982              	.LVL296:
 3983              	.L154:
 185:../../libDaisy//src/hid/midi.h ****                             {
 3984              		.loc 14 185 29 view .LVU1071
 3985 0212 11F00800 		ands	r0, r1, #8
 183:../../libDaisy//src/hid/midi.h ****                             //system real time = 1111 1xxx
 3986              		.loc 14 183 55 view .LVU1072
ARM GAS  C:\Users\danst\AppData\Local\Temp\ccwBJjMd.s 			page 113


 3987 0216 EA60     		str	r2, [r5, #12]
 185:../../libDaisy//src/hid/midi.h ****                             {
 3988              		.loc 14 185 29 view .LVU1073
 3989 0218 36D1     		bne	.L157
 202:../../libDaisy//src/hid/midi.h ****                                 //sysex
 3990              		.loc 14 202 69 view .LVU1074
 3991 021a 01F00703 		and	r3, r1, #7
 201:../../libDaisy//src/hid/midi.h ****                                                                     & 0x07);
 3992              		.loc 14 201 37 view .LVU1075
 3993 021e 85F89330 		strb	r3, [r5, #147]
 204:../../libDaisy//src/hid/midi.h ****                                 {
 3994              		.loc 14 204 33 view .LVU1076
 3995 0222 3BB9     		cbnz	r3, .L104
 206:../../libDaisy//src/hid/midi.h ****                                     incoming_message_.sysex_message_len = 0;
 3996              		.loc 14 206 45 view .LVU1077
 3997 0224 0322     		movs	r2, #3
 207:../../libDaisy//src/hid/midi.h ****                                 }
 3998              		.loc 14 207 73 view .LVU1078
 3999 0226 85F89230 		strb	r3, [r5, #146]
 206:../../libDaisy//src/hid/midi.h ****                                     incoming_message_.sysex_message_len = 0;
 4000              		.loc 14 206 45 view .LVU1079
 4001 022a 2A71     		strb	r2, [r5, #4]
 4002 022c 09E7     		b	.L96
 4003              	.LVL297:
 4004              	.L156:
 286:../../libDaisy//src/hid/midi.h ****                     }
 4005              		.loc 14 286 48 view .LVU1080
 4006 022e 0023     		movs	r3, #0
 4007 0230 2B72     		strb	r3, [r5, #8]
 4008 0232 70E7     		b	.L116
 4009              	.LVL298:
 4010              	.L104:
 210:../../libDaisy//src/hid/midi.h ****                                 {
 4011              		.loc 14 210 38 view .LVU1081
 4012 0234 4B07     		lsls	r3, r1, #29
 4013 0236 7FF504AF 		bpl	.L96
 4014 023a 6E46     		mov	r6, sp
 212:../../libDaisy//src/hid/midi.h ****                                     event_q_.Write(incoming_message_);
 4015              		.loc 14 212 45 view .LVU1082
 4016 023c 2871     		strb	r0, [r5, #4]
 4017              	.LVL299:
 212:../../libDaisy//src/hid/midi.h ****                                     event_q_.Write(incoming_message_);
 4018              		.loc 14 212 45 view .LVU1083
 4019 023e 9022     		movs	r2, #144
 4020 0240 05F10801 		add	r1, r5, #8
 4021              	.LVL300:
 212:../../libDaisy//src/hid/midi.h ****                                     event_q_.Write(incoming_message_);
 4022              		.loc 14 212 45 view .LVU1084
 4023 0244 3046     		mov	r0, r6
 4024 0246 FFF7FEFF 		bl	memcpy
 4025              	.LVL301:
 4026              	.LBB968:
 4027              	.LBI968:
  44:../../libDaisy//src/util/ringbuffer.h ****     {
 4028              		.loc 19 44 17 is_stmt 1 view .LVU1085
 4029              	.L105:
 4030              	.LBB969:
ARM GAS  C:\Users\danst\AppData\Local\Temp\ccwBJjMd.s 			page 114


  46:../../libDaisy//src/util/ringbuffer.h ****             ;
 4031              		.loc 19 46 24 view .LVU1086
 4032              	.LBB970:
 4033              	.LBI970:
  30:../../libDaisy//src/util/ringbuffer.h ****     {
 4034              		.loc 19 30 19 view .LVU1087
 4035              	.LBB971:
  32:../../libDaisy//src/util/ringbuffer.h ****     }
 4036              		.loc 19 32 17 is_stmt 0 view .LVU1088
 4037 024a D4F89830 		ldr	r3, [r4, #152]
  32:../../libDaisy//src/util/ringbuffer.h ****     }
 4038              		.loc 19 32 29 view .LVU1089
 4039 024e D4F89C20 		ldr	r2, [r4, #156]
 4040              	.LVL302:
  32:../../libDaisy//src/util/ringbuffer.h ****     }
 4041              		.loc 19 32 40 view .LVU1090
 4042 0252 013B     		subs	r3, r3, #1
 4043 0254 9B1A     		subs	r3, r3, r2
  32:../../libDaisy//src/util/ringbuffer.h ****     }
 4044              		.loc 19 32 47 view .LVU1091
 4045 0256 DBB2     		uxtb	r3, r3
 4046              	.LBE971:
 4047              	.LBE970:
  46:../../libDaisy//src/util/ringbuffer.h ****             ;
 4048              		.loc 19 46 24 view .LVU1092
 4049 0258 002B     		cmp	r3, #0
 4050 025a F6D0     		beq	.L105
 4051              	.LVL303:
 4052              	.L152:
  46:../../libDaisy//src/util/ringbuffer.h ****             ;
 4053              		.loc 19 46 24 view .LVU1093
 4054 025c 9022     		movs	r2, #144
 4055 025e 3146     		mov	r1, r6
 4056 0260 0DEB0200 		add	r0, sp, r2
 4057 0264 FFF7FEFF 		bl	memcpy
 4058              	.LVL304:
 4059              	.LBB972:
 4060              	.LBI972:
  54:../../libDaisy//src/util/ringbuffer.h ****     {
 4061              		.loc 19 54 17 is_stmt 1 view .LVU1094
 4062              	.LBB973:
  56:../../libDaisy//src/util/ringbuffer.h ****         buffer_[w] = v;
 4063              		.loc 19 56 16 is_stmt 0 view .LVU1095
 4064 0268 D4F89C60 		ldr	r6, [r4, #156]
 4065              	.LVL305:
  57:../../libDaisy//src/util/ringbuffer.h ****         write_ptr_ = (w + 1) % size;
 4066              		.loc 19 57 9 view .LVU1096
 4067 026c 24A9     		add	r1, sp, #144
 4068 026e 9022     		movs	r2, #144
 4069 0270 06EBC600 		add	r0, r6, r6, lsl #3
 4070 0274 05EB0010 		add	r0, r5, r0, lsl #4
 4071 0278 9830     		adds	r0, r0, #152
 4072 027a FFF7FEFF 		bl	memcpy
 4073              	.LVL306:
 4074              		.loc 19 58 25 view .LVU1097
 4075 027e 731C     		adds	r3, r6, #1
 4076              		.loc 19 58 30 view .LVU1098
ARM GAS  C:\Users\danst\AppData\Local\Temp\ccwBJjMd.s 			page 115


 4077 0280 DBB2     		uxtb	r3, r3
 4078              		.loc 19 58 20 view .LVU1099
 4079 0282 C4F89C30 		str	r3, [r4, #156]
 4080              	.LVL307:
 4081              		.loc 19 58 20 view .LVU1100
 4082              	.LBE973:
 4083              	.LBE972:
 4084              	.LBE969:
 4085              	.LBE968:
 4086 0286 DCE6     		b	.L96
 4087              	.LVL308:
 4088              	.L157:
 187:../../libDaisy//src/hid/midi.h ****                                 running_status_        = SystemRealTime;
 4089              		.loc 14 187 56 view .LVU1101
 4090 0288 0823     		movs	r3, #8
 4091 028a 6E46     		mov	r6, sp
 4092 028c 2B72     		strb	r3, [r5, #8]
 4093 028e 3046     		mov	r0, r6
 188:../../libDaisy//src/hid/midi.h ****                                 incoming_message_.srt_type
 4094              		.loc 14 188 56 view .LVU1102
 4095 0290 84F8A430 		strb	r3, [r4, #164]
 191:../../libDaisy//src/hid/midi.h **** 
 4096              		.loc 14 191 46 view .LVU1103
 4097 0294 94F8B230 		ldrb	r3, [r4, #178]	@ zero_extendqisi2
 194:../../libDaisy//src/hid/midi.h ****                                 event_q_.Write(incoming_message_);
 4098              		.loc 14 194 41 view .LVU1104
 4099 0298 2A71     		strb	r2, [r5, #4]
 4100              	.LVL309:
 194:../../libDaisy//src/hid/midi.h ****                                 event_q_.Write(incoming_message_);
 4101              		.loc 14 194 41 view .LVU1105
 4102 029a 9022     		movs	r2, #144
 191:../../libDaisy//src/hid/midi.h **** 
 4103              		.loc 14 191 46 view .LVU1106
 4104 029c 1940     		ands	r1, r1, r3
 4105              	.LVL310:
 190:../../libDaisy//src/hid/midi.h ****                                         byte & kSystemRealTimeMask);
 4106              		.loc 14 190 37 view .LVU1107
 4107 029e 85F89410 		strb	r1, [r5, #148]
 4108 02a2 05F10801 		add	r1, r5, #8
 4109 02a6 FFF7FEFF 		bl	memcpy
 4110              	.LVL311:
 4111              	.LBB974:
 4112              	.LBI974:
  44:../../libDaisy//src/util/ringbuffer.h ****     {
 4113              		.loc 19 44 17 is_stmt 1 view .LVU1108
 4114              	.L103:
 4115              	.LBB975:
  46:../../libDaisy//src/util/ringbuffer.h ****             ;
 4116              		.loc 19 46 24 view .LVU1109
 4117              	.LBB976:
 4118              	.LBI976:
  30:../../libDaisy//src/util/ringbuffer.h ****     {
 4119              		.loc 19 30 19 view .LVU1110
 4120              	.LBB977:
  32:../../libDaisy//src/util/ringbuffer.h ****     }
 4121              		.loc 19 32 17 is_stmt 0 view .LVU1111
 4122 02aa D4F89830 		ldr	r3, [r4, #152]
ARM GAS  C:\Users\danst\AppData\Local\Temp\ccwBJjMd.s 			page 116


  32:../../libDaisy//src/util/ringbuffer.h ****     }
 4123              		.loc 19 32 29 view .LVU1112
 4124 02ae D4F89C20 		ldr	r2, [r4, #156]
 4125              	.LVL312:
  32:../../libDaisy//src/util/ringbuffer.h ****     }
 4126              		.loc 19 32 40 view .LVU1113
 4127 02b2 013B     		subs	r3, r3, #1
 4128 02b4 9B1A     		subs	r3, r3, r2
  32:../../libDaisy//src/util/ringbuffer.h ****     }
 4129              		.loc 19 32 47 view .LVU1114
 4130 02b6 DBB2     		uxtb	r3, r3
 4131              	.LBE977:
 4132              	.LBE976:
  46:../../libDaisy//src/util/ringbuffer.h ****             ;
 4133              		.loc 19 46 24 view .LVU1115
 4134 02b8 002B     		cmp	r3, #0
 4135 02ba F6D0     		beq	.L103
 4136 02bc CEE7     		b	.L152
 4137              	.LBE975:
 4138              	.LBE974:
 4139              		.cfi_endproc
 4140              	.LFE5235:
 4142 02be 00BF     		.section	.text._Z10handleMidiv,"ax",%progbits
 4143              		.align	1
 4144              		.p2align 2,,3
 4145              		.global	_Z10handleMidiv
 4146              		.syntax unified
 4147              		.thumb
 4148              		.thumb_func
 4149              		.fpu fpv5-d16
 4151              	_Z10handleMidiv:
 4152              	.LFB4789:
 144:takshaka.cpp  **** 	midi.Listen();
 4153              		.loc 16 144 18 is_stmt 1 view -0
 4154              		.cfi_startproc
 4155              		@ args = 0, pretend = 0, frame = 0
 4156              		@ frame_needed = 0, uses_anonymous_args = 0
 145:takshaka.cpp  **** 	while( midi.HasEvents() ){
 4157              		.loc 16 145 2 view .LVU1117
 4158              	.LVL313:
 4159              	.LBB998:
 4160              	.LBI998:
 110:../../libDaisy//src/hid/midi.h ****     {
 4161              		.loc 14 110 10 view .LVU1118
 4162              	.LBE998:
 144:takshaka.cpp  **** 	midi.Listen();
 4163              		.loc 16 144 18 is_stmt 0 view .LVU1119
 4164 0000 F8B5     		push	{r3, r4, r5, r6, r7, lr}
 4165              		.cfi_def_cfa_offset 24
 4166              		.cfi_offset 3, -24
 4167              		.cfi_offset 4, -20
 4168              		.cfi_offset 5, -16
 4169              		.cfi_offset 6, -12
 4170              		.cfi_offset 7, -8
 4171              		.cfi_offset 14, -4
 4172              	.LBB1003:
 4173              	.LBB999:
ARM GAS  C:\Users\danst\AppData\Local\Temp\ccwBJjMd.s 			page 117


 113:../../libDaisy//src/hid/midi.h ****         while(transport_.Readable())
 4174              		.loc 14 113 29 view .LVU1120
 4175 0002 FFF7FEFF 		bl	_ZN5daisy6System6GetNowEv
 4176              	.LVL314:
 4177 0006 2D4C     		ldr	r4, .L184
 4178 0008 0546     		mov	r5, r0
 4179              	.LVL315:
 113:../../libDaisy//src/hid/midi.h ****         while(transport_.Readable())
 4180              		.loc 14 113 29 view .LVU1121
 4181 000a 07E0     		b	.L160
 4182              	.LVL316:
 4183              	.L181:
 116:../../libDaisy//src/hid/midi.h ****             Parse(transport_.Rx());
 4184              		.loc 14 116 24 view .LVU1122
 4185 000c C4F8A050 		str	r5, [r4, #160]
 117:../../libDaisy//src/hid/midi.h ****         }
 4186              		.loc 14 117 18 view .LVU1123
 4187 0010 FFF7FEFF 		bl	_ZN5daisy16MidiUsbTransport2RxEv
 4188              	.LVL317:
 4189 0014 0146     		mov	r1, r0
 4190 0016 2A48     		ldr	r0, .L184+4
 4191 0018 FFF7FEFF 		bl	_ZN5daisy11MidiHandlerINS_16MidiUsbTransportEE5ParseEh
 4192              	.LVL318:
 4193              	.L160:
 114:../../libDaisy//src/hid/midi.h ****         {
 4194              		.loc 14 114 34 is_stmt 1 view .LVU1124
 4195 001c 2948     		ldr	r0, .L184+8
 4196 001e FFF7FEFF 		bl	_ZN5daisy16MidiUsbTransport8ReadableEv
 4197              	.LVL319:
 4198 0022 0346     		mov	r3, r0
 117:../../libDaisy//src/hid/midi.h ****         }
 4199              		.loc 14 117 18 is_stmt 0 view .LVU1125
 4200 0024 2748     		ldr	r0, .L184+8
 114:../../libDaisy//src/hid/midi.h ****         {
 4201              		.loc 14 114 34 view .LVU1126
 4202 0026 002B     		cmp	r3, #0
 4203 0028 F0D1     		bne	.L181
 123:../../libDaisy//src/hid/midi.h ****         {
 4204              		.loc 14 123 32 view .LVU1127
 4205 002a 2648     		ldr	r0, .L184+8
 4206 002c FFF7FEFF 		bl	_ZN5daisy16MidiUsbTransport8RxActiveEv
 4207              	.LVL320:
 123:../../libDaisy//src/hid/midi.h ****         {
 4208              		.loc 14 123 9 view .LVU1128
 4209 0030 0346     		mov	r3, r0
 4210 0032 0028     		cmp	r0, #0
 4211 0034 38D0     		beq	.L182
 4212              	.L161:
 4213              	.LVL321:
 123:../../libDaisy//src/hid/midi.h ****         {
 4214              		.loc 14 123 9 view .LVU1129
 4215              	.LBE999:
 4216              	.LBE1003:
 146:takshaka.cpp  **** 		auto midiEvent = midi.PopEvent();
 4217              		.loc 16 146 2 is_stmt 1 view .LVU1130
 146:takshaka.cpp  **** 		auto midiEvent = midi.PopEvent();
 4218              		.loc 16 146 23 view .LVU1131
ARM GAS  C:\Users\danst\AppData\Local\Temp\ccwBJjMd.s 			page 118


 4219              	.LBB1004:
 4220              	.LBI1004:
 134:../../libDaisy//src/hid/midi.h **** 
 4221              		.loc 14 134 10 view .LVU1132
 4222              	.LBB1005:
 4223              	.LBI1005:
  36:../../libDaisy//src/util/ringbuffer.h **** 
 4224              		.loc 19 36 19 view .LVU1133
 4225              	.LBB1006:
  36:../../libDaisy//src/util/ringbuffer.h **** 
 4226              		.loc 19 36 46 is_stmt 0 view .LVU1134
 4227 0036 D4F89C30 		ldr	r3, [r4, #156]
  36:../../libDaisy//src/util/ringbuffer.h **** 
 4228              		.loc 19 36 59 view .LVU1135
 4229 003a D4F89820 		ldr	r2, [r4, #152]
 4230              	.LVL322:
  36:../../libDaisy//src/util/ringbuffer.h **** 
 4231              		.loc 19 36 57 view .LVU1136
 4232 003e 9B1A     		subs	r3, r3, r2
  36:../../libDaisy//src/util/ringbuffer.h **** 
 4233              		.loc 19 36 72 view .LVU1137
 4234 0040 DBB2     		uxtb	r3, r3
 4235              	.LBE1006:
 4236              	.LBE1005:
 4237              	.LBE1004:
 146:takshaka.cpp  **** 		auto midiEvent = midi.PopEvent();
 4238              		.loc 16 146 23 view .LVU1138
 4239 0042 4BB3     		cbz	r3, .L158
 4240 0044 1E49     		ldr	r1, .L184+4
 4241 0046 01F19800 		add	r0, r1, #152
 4242              	.L163:
 4243              	.LBB1009:
 4244              	.LBB1010:
 4245              	.LBB1011:
 4246              	.LBB1012:
  59:../../libDaisy//src/util/ringbuffer.h ****     }
  60:../../libDaisy//src/util/ringbuffer.h **** 
  61:../../libDaisy//src/util/ringbuffer.h ****     /** Reads the first available element from the ring buffer
  62:../../libDaisy//src/util/ringbuffer.h ****     \return read value
  63:../../libDaisy//src/util/ringbuffer.h ****      */
  64:../../libDaisy//src/util/ringbuffer.h ****     inline T Read()
  65:../../libDaisy//src/util/ringbuffer.h ****     {
  66:../../libDaisy//src/util/ringbuffer.h ****         while(!readable())
 4247              		.loc 19 66 24 is_stmt 1 view .LVU1139
 4248              	.LVL323:
 4249              	.LBB1013:
 4250              	.LBI1013:
  36:../../libDaisy//src/util/ringbuffer.h **** 
 4251              		.loc 19 36 19 view .LVU1140
 4252              	.LBB1014:
  36:../../libDaisy//src/util/ringbuffer.h **** 
 4253              		.loc 19 36 46 is_stmt 0 view .LVU1141
 4254 004a D4F89C30 		ldr	r3, [r4, #156]
  36:../../libDaisy//src/util/ringbuffer.h **** 
 4255              		.loc 19 36 59 view .LVU1142
 4256 004e D4F89820 		ldr	r2, [r4, #152]
 4257              	.LVL324:
ARM GAS  C:\Users\danst\AppData\Local\Temp\ccwBJjMd.s 			page 119


  36:../../libDaisy//src/util/ringbuffer.h **** 
 4258              		.loc 19 36 57 view .LVU1143
 4259 0052 9B1A     		subs	r3, r3, r2
  36:../../libDaisy//src/util/ringbuffer.h **** 
 4260              		.loc 19 36 72 view .LVU1144
 4261 0054 DBB2     		uxtb	r3, r3
 4262              	.LBE1014:
 4263              	.LBE1013:
 4264              		.loc 19 66 24 view .LVU1145
 4265 0056 002B     		cmp	r3, #0
 4266 0058 F7D0     		beq	.L163
 4267              	.LVL325:
 4268              	.LBB1015:
 4269              	.LBI1015:
  67:../../libDaisy//src/util/ringbuffer.h ****             ;
  68:../../libDaisy//src/util/ringbuffer.h ****         return ImmediateRead();
  69:../../libDaisy//src/util/ringbuffer.h ****     }
  70:../../libDaisy//src/util/ringbuffer.h **** 
  71:../../libDaisy//src/util/ringbuffer.h ****     /** Reads next element from ring buffer immediately
  72:../../libDaisy//src/util/ringbuffer.h ****     \return read value
  73:../../libDaisy//src/util/ringbuffer.h ****      */
  74:../../libDaisy//src/util/ringbuffer.h ****     inline T ImmediateRead()
 4270              		.loc 19 74 14 is_stmt 1 view .LVU1146
 4271              	.LBE1015:
 4272              	.LBE1012:
 4273              	.LBE1011:
 4274              	.LBE1010:
 4275              	.LBB1028:
 4276              	.LBB1029:
 153:takshaka.cpp  **** 		} else if( midiEvent.type == NoteOff ) envGate = false;
 4277              		.loc 16 153 11 view .LVU1147
 4278              	.LBE1029:
 154:takshaka.cpp  **** 	}
 4279              		.loc 16 154 10 view .LVU1148
 4280              	.LBE1028:
 4281              	.LBB1035:
 4282              	.LBB1025:
 4283              	.LBB1022:
 4284              	.LBB1019:
 4285              	.LBB1016:
  75:../../libDaisy//src/util/ringbuffer.h ****     {
  76:../../libDaisy//src/util/ringbuffer.h ****         size_t r      = read_ptr_;
 4286              		.loc 19 76 16 is_stmt 0 view .LVU1149
 4287 005a D4F89820 		ldr	r2, [r4, #152]
 4288              	.LVL326:
 4289              		.loc 19 76 16 view .LVU1150
 4290              	.LBE1016:
 4291              	.LBE1019:
 4292              	.LBE1022:
 4293              	.LBE1025:
 4294              	.LBE1035:
 4295              	.LBB1036:
 4296              	.LBB1032:
 153:takshaka.cpp  **** 		} else if( midiEvent.type == NoteOff ) envGate = false;
 4297              		.loc 16 153 19 view .LVU1151
 4298 005e 4FF0000C 		mov	ip, #0
 4299 0062 194E     		ldr	r6, .L184+12
ARM GAS  C:\Users\danst\AppData\Local\Temp\ccwBJjMd.s 			page 120


 4300              	.LBE1032:
 4301              	.LBE1036:
 4302              	.LBB1037:
 4303              	.LBB1026:
 4304              	.LBB1023:
 4305              	.LBB1020:
 4306              	.LBB1017:
  77:../../libDaisy//src/util/ringbuffer.h ****         T      result = buffer_[r];
 4307              		.loc 19 77 16 view .LVU1152
 4308 0064 02EBC203 		add	r3, r2, r2, lsl #3
  78:../../libDaisy//src/util/ringbuffer.h ****         read_ptr_     = (r + 1) % size;
 4309              		.loc 19 78 28 view .LVU1153
 4310 0068 0132     		adds	r2, r2, #1
 4311              	.LVL327:
  77:../../libDaisy//src/util/ringbuffer.h ****         T      result = buffer_[r];
 4312              		.loc 19 77 16 view .LVU1154
 4313 006a 1B01     		lsls	r3, r3, #4
 4314              		.loc 19 78 33 view .LVU1155
 4315 006c D2B2     		uxtb	r2, r2
  77:../../libDaisy//src/util/ringbuffer.h ****         T      result = buffer_[r];
 4316              		.loc 19 77 16 view .LVU1156
 4317 006e C55C     		ldrb	r5, [r0, r3]	@ zero_extendqisi2
 4318              	.LVL328:
  77:../../libDaisy//src/util/ringbuffer.h ****         T      result = buffer_[r];
 4319              		.loc 19 77 16 view .LVU1157
 4320 0070 0B44     		add	r3, r3, r1
 4321              		.loc 19 78 23 view .LVU1158
 4322 0072 C4F89820 		str	r2, [r4, #152]
 4323              	.LVL329:
 4324              		.loc 19 78 23 view .LVU1159
 4325              	.LBE1017:
 4326              	.LBE1020:
 4327              	.LBE1023:
 4328              	.LBE1026:
 4329              	.LBE1037:
 4330              	.LBB1038:
 148:takshaka.cpp  **** 			auto noteMessage = midiEvent.AsNoteOn();
 4331              		.loc 16 148 3 view .LVU1160
 4332 0076 012D     		cmp	r5, #1
 4333              	.LBE1038:
 4334              	.LBB1039:
 4335              	.LBB1027:
 4336              	.LBB1024:
 4337              	.LBB1021:
 4338              	.LBB1018:
  77:../../libDaisy//src/util/ringbuffer.h ****         T      result = buffer_[r];
 4339              		.loc 19 77 16 view .LVU1161
 4340 0078 93F8A020 		ldrb	r2, [r3, #160]	@ zero_extendqisi2
 4341              	.LVL330:
  77:../../libDaisy//src/util/ringbuffer.h ****         T      result = buffer_[r];
 4342              		.loc 19 77 16 view .LVU1162
 4343 007c 93F8A130 		ldrb	r3, [r3, #161]	@ zero_extendqisi2
 4344              	.LVL331:
  77:../../libDaisy//src/util/ringbuffer.h ****         T      result = buffer_[r];
 4345              		.loc 19 77 16 view .LVU1163
 4346              	.LBE1018:
 4347              	.LBE1021:
ARM GAS  C:\Users\danst\AppData\Local\Temp\ccwBJjMd.s 			page 121


 4348              	.LBE1024:
 4349              	.LBE1027:
 4350              	.LBE1039:
 148:takshaka.cpp  **** 			auto noteMessage = midiEvent.AsNoteOn();
 4351              		.loc 16 148 3 is_stmt 1 view .LVU1164
 4352              	.LBB1040:
 4353 0080 0BD0     		beq	.L183
 154:takshaka.cpp  **** 	}
 4354              		.loc 16 154 10 is_stmt 0 view .LVU1165
 4355 0082 0DB9     		cbnz	r5, .L166
 4356              	.L165:
 4357              	.LBB1033:
 153:takshaka.cpp  **** 		} else if( midiEvent.type == NoteOff ) envGate = false;
 4358              		.loc 16 153 19 view .LVU1166
 4359 0084 86F800C0 		strb	ip, [r6]
 4360              	.L166:
 4361              	.LVL332:
 153:takshaka.cpp  **** 		} else if( midiEvent.type == NoteOff ) envGate = false;
 4362              		.loc 16 153 19 view .LVU1167
 4363              	.LBE1033:
 4364              	.LBE1040:
 4365              	.LBE1009:
 146:takshaka.cpp  **** 		auto midiEvent = midi.PopEvent();
 4366              		.loc 16 146 2 is_stmt 1 discriminator 1 view .LVU1168
 146:takshaka.cpp  **** 		auto midiEvent = midi.PopEvent();
 4367              		.loc 16 146 23 discriminator 1 view .LVU1169
 4368              	.LBB1042:
 134:../../libDaisy//src/hid/midi.h **** 
 4369              		.loc 14 134 10 discriminator 1 view .LVU1170
 4370              	.LBB1008:
  36:../../libDaisy//src/util/ringbuffer.h **** 
 4371              		.loc 19 36 19 discriminator 1 view .LVU1171
 4372              	.LBB1007:
  36:../../libDaisy//src/util/ringbuffer.h **** 
 4373              		.loc 19 36 46 is_stmt 0 discriminator 1 view .LVU1172
 4374 0088 D4F89C30 		ldr	r3, [r4, #156]
  36:../../libDaisy//src/util/ringbuffer.h **** 
 4375              		.loc 19 36 59 discriminator 1 view .LVU1173
 4376 008c D4F89820 		ldr	r2, [r4, #152]
 4377              	.LVL333:
  36:../../libDaisy//src/util/ringbuffer.h **** 
 4378              		.loc 19 36 57 discriminator 1 view .LVU1174
 4379 0090 9B1A     		subs	r3, r3, r2
  36:../../libDaisy//src/util/ringbuffer.h **** 
 4380              		.loc 19 36 72 discriminator 1 view .LVU1175
 4381 0092 DBB2     		uxtb	r3, r3
 4382              	.LBE1007:
 4383              	.LBE1008:
 4384              	.LBE1042:
 146:takshaka.cpp  **** 		auto midiEvent = midi.PopEvent();
 4385              		.loc 16 146 23 discriminator 1 view .LVU1176
 4386 0094 002B     		cmp	r3, #0
 4387 0096 D8D1     		bne	.L163
 4388              	.L158:
 156:takshaka.cpp  **** void handleKnobs(){		
 4389              		.loc 16 156 1 view .LVU1177
 4390 0098 F8BD     		pop	{r3, r4, r5, r6, r7, pc}
ARM GAS  C:\Users\danst\AppData\Local\Temp\ccwBJjMd.s 			page 122


 4391              	.LVL334:
 4392              	.L183:
 4393              	.LBB1043:
 4394              	.LBB1041:
 4395              	.LBB1034:
 149:takshaka.cpp  **** 			if( noteMessage.velocity != 0 ){
 4396              		.loc 16 149 4 is_stmt 1 view .LVU1178
 4397              	.LBB1030:
 4398              	.LBI1030:
 4399              		.file 20 "../../libDaisy//src/hid/MidiEvent.h"
   1:../../libDaisy//src/hid/MidiEvent.h **** namespace daisy
   2:../../libDaisy//src/hid/MidiEvent.h **** {
   3:../../libDaisy//src/hid/MidiEvent.h **** /** @addtogroup midi MIDI
   4:../../libDaisy//src/hid/MidiEvent.h ****  *  @ingroup human_interface
   5:../../libDaisy//src/hid/MidiEvent.h ****  *  @ingroup libdaisy
   6:../../libDaisy//src/hid/MidiEvent.h ****  *  @brief MIDI handlers, transports, and message types
   7:../../libDaisy//src/hid/MidiEvent.h ****  *  @{
   8:../../libDaisy//src/hid/MidiEvent.h ****  */
   9:../../libDaisy//src/hid/MidiEvent.h **** 
  10:../../libDaisy//src/hid/MidiEvent.h **** /** @defgroup midi_events MIDI_EVENTS 
  11:../../libDaisy//src/hid/MidiEvent.h ****  *  @{
  12:../../libDaisy//src/hid/MidiEvent.h **** */
  13:../../libDaisy//src/hid/MidiEvent.h **** 
  14:../../libDaisy//src/hid/MidiEvent.h **** /** Parsed from the Status Byte, these are the common Midi Messages that can be handled. \n
  15:../../libDaisy//src/hid/MidiEvent.h **** At this time only 3-byte messages are correctly parsed into MidiEvents.
  16:../../libDaisy//src/hid/MidiEvent.h **** */
  17:../../libDaisy//src/hid/MidiEvent.h **** enum MidiMessageType
  18:../../libDaisy//src/hid/MidiEvent.h **** {
  19:../../libDaisy//src/hid/MidiEvent.h ****     NoteOff,               /**< & */
  20:../../libDaisy//src/hid/MidiEvent.h ****     NoteOn,                /**< & */
  21:../../libDaisy//src/hid/MidiEvent.h ****     PolyphonicKeyPressure, /**< & */
  22:../../libDaisy//src/hid/MidiEvent.h ****     ControlChange,         /**< & */
  23:../../libDaisy//src/hid/MidiEvent.h ****     ProgramChange,         /**< & */
  24:../../libDaisy//src/hid/MidiEvent.h ****     ChannelPressure,       /**< & */
  25:../../libDaisy//src/hid/MidiEvent.h ****     PitchBend,             /**< & */
  26:../../libDaisy//src/hid/MidiEvent.h ****     SystemCommon,          /**< & */
  27:../../libDaisy//src/hid/MidiEvent.h ****     SystemRealTime,        /**< & */
  28:../../libDaisy//src/hid/MidiEvent.h ****     ChannelMode,           /**< & */
  29:../../libDaisy//src/hid/MidiEvent.h ****     MessageLast,           /**< & */
  30:../../libDaisy//src/hid/MidiEvent.h **** };
  31:../../libDaisy//src/hid/MidiEvent.h **** 
  32:../../libDaisy//src/hid/MidiEvent.h **** enum SystemCommonType
  33:../../libDaisy//src/hid/MidiEvent.h **** {
  34:../../libDaisy//src/hid/MidiEvent.h ****     SystemExclusive,     /**< & */
  35:../../libDaisy//src/hid/MidiEvent.h ****     MTCQuarterFrame,     /**< & */
  36:../../libDaisy//src/hid/MidiEvent.h ****     SongPositionPointer, /**< & */
  37:../../libDaisy//src/hid/MidiEvent.h ****     SongSelect,          /**< & */
  38:../../libDaisy//src/hid/MidiEvent.h ****     SCUndefined0,        /**< & */
  39:../../libDaisy//src/hid/MidiEvent.h ****     SCUndefined1,        /**< & */
  40:../../libDaisy//src/hid/MidiEvent.h ****     TuneRequest,         /**< & */
  41:../../libDaisy//src/hid/MidiEvent.h ****     SysExEnd,            /**< & */
  42:../../libDaisy//src/hid/MidiEvent.h ****     SystemCommonLast,    /**< & */
  43:../../libDaisy//src/hid/MidiEvent.h **** };
  44:../../libDaisy//src/hid/MidiEvent.h **** 
  45:../../libDaisy//src/hid/MidiEvent.h **** enum SystemRealTimeType
  46:../../libDaisy//src/hid/MidiEvent.h **** {
  47:../../libDaisy//src/hid/MidiEvent.h ****     TimingClock,        /**< & */
ARM GAS  C:\Users\danst\AppData\Local\Temp\ccwBJjMd.s 			page 123


  48:../../libDaisy//src/hid/MidiEvent.h ****     SRTUndefined0,      /**< & */
  49:../../libDaisy//src/hid/MidiEvent.h ****     Start,              /**< & */
  50:../../libDaisy//src/hid/MidiEvent.h ****     Continue,           /**< & */
  51:../../libDaisy//src/hid/MidiEvent.h ****     Stop,               /**< & */
  52:../../libDaisy//src/hid/MidiEvent.h ****     SRTUndefined1,      /**< & */
  53:../../libDaisy//src/hid/MidiEvent.h ****     ActiveSensing,      /**< & */
  54:../../libDaisy//src/hid/MidiEvent.h ****     Reset,              /**< & */
  55:../../libDaisy//src/hid/MidiEvent.h ****     SystemRealTimeLast, /**< & */
  56:../../libDaisy//src/hid/MidiEvent.h **** };
  57:../../libDaisy//src/hid/MidiEvent.h **** 
  58:../../libDaisy//src/hid/MidiEvent.h **** enum ChannelModeType
  59:../../libDaisy//src/hid/MidiEvent.h **** {
  60:../../libDaisy//src/hid/MidiEvent.h ****     AllSoundOff,         /**< & */
  61:../../libDaisy//src/hid/MidiEvent.h ****     ResetAllControllers, /**< & */
  62:../../libDaisy//src/hid/MidiEvent.h ****     LocalControl,        /**< & */
  63:../../libDaisy//src/hid/MidiEvent.h ****     AllNotesOff,         /**< & */
  64:../../libDaisy//src/hid/MidiEvent.h ****     OmniModeOff,         /**< & */
  65:../../libDaisy//src/hid/MidiEvent.h ****     OmniModeOn,          /**< & */
  66:../../libDaisy//src/hid/MidiEvent.h ****     MonoModeOn,          /**< & */
  67:../../libDaisy//src/hid/MidiEvent.h ****     PolyModeOn,          /**< & */
  68:../../libDaisy//src/hid/MidiEvent.h ****     ChannelModeLast,     /**< & */
  69:../../libDaisy//src/hid/MidiEvent.h **** };
  70:../../libDaisy//src/hid/MidiEvent.h **** 
  71:../../libDaisy//src/hid/MidiEvent.h **** /** Struct containing note, and velocity data for a given channel.
  72:../../libDaisy//src/hid/MidiEvent.h **** Can be made from MidiEvent
  73:../../libDaisy//src/hid/MidiEvent.h **** */
  74:../../libDaisy//src/hid/MidiEvent.h **** struct NoteOffEvent
  75:../../libDaisy//src/hid/MidiEvent.h **** {
  76:../../libDaisy//src/hid/MidiEvent.h ****     int     channel;  /**< & */
  77:../../libDaisy//src/hid/MidiEvent.h ****     uint8_t note;     /**< & */
  78:../../libDaisy//src/hid/MidiEvent.h ****     uint8_t velocity; /**< & */
  79:../../libDaisy//src/hid/MidiEvent.h **** };
  80:../../libDaisy//src/hid/MidiEvent.h **** 
  81:../../libDaisy//src/hid/MidiEvent.h **** 
  82:../../libDaisy//src/hid/MidiEvent.h **** /** Struct containing note, and velocity data for a given channel.
  83:../../libDaisy//src/hid/MidiEvent.h **** Can be made from MidiEvent
  84:../../libDaisy//src/hid/MidiEvent.h **** */
  85:../../libDaisy//src/hid/MidiEvent.h **** struct NoteOnEvent
  86:../../libDaisy//src/hid/MidiEvent.h **** {
  87:../../libDaisy//src/hid/MidiEvent.h ****     int     channel;  /**< & */
  88:../../libDaisy//src/hid/MidiEvent.h ****     uint8_t note;     /**< & */
  89:../../libDaisy//src/hid/MidiEvent.h ****     uint8_t velocity; /**< & */
  90:../../libDaisy//src/hid/MidiEvent.h **** };
  91:../../libDaisy//src/hid/MidiEvent.h **** /** Struct containing note, and pressure data for a given channel.
  92:../../libDaisy//src/hid/MidiEvent.h **** Can be made from MidiEvent
  93:../../libDaisy//src/hid/MidiEvent.h **** */
  94:../../libDaisy//src/hid/MidiEvent.h **** struct PolyphonicKeyPressureEvent
  95:../../libDaisy//src/hid/MidiEvent.h **** {
  96:../../libDaisy//src/hid/MidiEvent.h ****     int     channel;
  97:../../libDaisy//src/hid/MidiEvent.h ****     uint8_t note;
  98:../../libDaisy//src/hid/MidiEvent.h ****     uint8_t pressure;
  99:../../libDaisy//src/hid/MidiEvent.h **** };
 100:../../libDaisy//src/hid/MidiEvent.h **** /** Struct containing control number, and value for a given channel.
 101:../../libDaisy//src/hid/MidiEvent.h **** Can be made from MidiEvent
 102:../../libDaisy//src/hid/MidiEvent.h **** */
 103:../../libDaisy//src/hid/MidiEvent.h **** struct ControlChangeEvent
 104:../../libDaisy//src/hid/MidiEvent.h **** {
ARM GAS  C:\Users\danst\AppData\Local\Temp\ccwBJjMd.s 			page 124


 105:../../libDaisy//src/hid/MidiEvent.h ****     int     channel;        /**< & */
 106:../../libDaisy//src/hid/MidiEvent.h ****     uint8_t control_number; /**< & */
 107:../../libDaisy//src/hid/MidiEvent.h ****     uint8_t value;          /**< & */
 108:../../libDaisy//src/hid/MidiEvent.h **** };
 109:../../libDaisy//src/hid/MidiEvent.h **** /** Struct containing new program number, for a given channel.
 110:../../libDaisy//src/hid/MidiEvent.h **** Can be made from MidiEvent
 111:../../libDaisy//src/hid/MidiEvent.h **** */
 112:../../libDaisy//src/hid/MidiEvent.h **** struct ProgramChangeEvent
 113:../../libDaisy//src/hid/MidiEvent.h **** {
 114:../../libDaisy//src/hid/MidiEvent.h ****     int     channel; /**< & */
 115:../../libDaisy//src/hid/MidiEvent.h ****     uint8_t program; /**< & */
 116:../../libDaisy//src/hid/MidiEvent.h **** };
 117:../../libDaisy//src/hid/MidiEvent.h **** /** Struct containing pressure (aftertouch), for a given channel.
 118:../../libDaisy//src/hid/MidiEvent.h **** Can be made from MidiEvent
 119:../../libDaisy//src/hid/MidiEvent.h **** */
 120:../../libDaisy//src/hid/MidiEvent.h **** struct ChannelPressureEvent
 121:../../libDaisy//src/hid/MidiEvent.h **** {
 122:../../libDaisy//src/hid/MidiEvent.h ****     int     channel;  /**< & */
 123:../../libDaisy//src/hid/MidiEvent.h ****     uint8_t pressure; /**< & */
 124:../../libDaisy//src/hid/MidiEvent.h **** };
 125:../../libDaisy//src/hid/MidiEvent.h **** /** Struct containing pitch bend value for a given channel.
 126:../../libDaisy//src/hid/MidiEvent.h **** Can be made from MidiEvent
 127:../../libDaisy//src/hid/MidiEvent.h **** */
 128:../../libDaisy//src/hid/MidiEvent.h **** struct PitchBendEvent
 129:../../libDaisy//src/hid/MidiEvent.h **** {
 130:../../libDaisy//src/hid/MidiEvent.h ****     int     channel; /**< & */
 131:../../libDaisy//src/hid/MidiEvent.h ****     int16_t value;   /**< & */
 132:../../libDaisy//src/hid/MidiEvent.h **** };
 133:../../libDaisy//src/hid/MidiEvent.h **** /** Struct containing channel mode event for a given channel.
 134:../../libDaisy//src/hid/MidiEvent.h **** Can be made from MidiEvent
 135:../../libDaisy//src/hid/MidiEvent.h **** */
 136:../../libDaisy//src/hid/MidiEvent.h **** struct ChannelModeEvent
 137:../../libDaisy//src/hid/MidiEvent.h **** {
 138:../../libDaisy//src/hid/MidiEvent.h ****     int             channel;    /**< & */
 139:../../libDaisy//src/hid/MidiEvent.h ****     ChannelModeType event_type; /**< & */
 140:../../libDaisy//src/hid/MidiEvent.h ****     int16_t         value;      /**< & */
 141:../../libDaisy//src/hid/MidiEvent.h **** };
 142:../../libDaisy//src/hid/MidiEvent.h **** /** Struct containing sysex data.
 143:../../libDaisy//src/hid/MidiEvent.h **** Can be made from MidiEvent
 144:../../libDaisy//src/hid/MidiEvent.h **** */
 145:../../libDaisy//src/hid/MidiEvent.h **** struct SystemExclusiveEvent
 146:../../libDaisy//src/hid/MidiEvent.h **** {
 147:../../libDaisy//src/hid/MidiEvent.h ****     int     length;
 148:../../libDaisy//src/hid/MidiEvent.h ****     uint8_t data[SYSEX_BUFFER_LEN]; /**< & */
 149:../../libDaisy//src/hid/MidiEvent.h **** };
 150:../../libDaisy//src/hid/MidiEvent.h **** /** Struct containing QuarterFrame data.
 151:../../libDaisy//src/hid/MidiEvent.h **** Can be made from MidiEvent
 152:../../libDaisy//src/hid/MidiEvent.h **** */
 153:../../libDaisy//src/hid/MidiEvent.h **** struct MTCQuarterFrameEvent
 154:../../libDaisy//src/hid/MidiEvent.h **** {
 155:../../libDaisy//src/hid/MidiEvent.h ****     uint8_t message_type; /**< & */
 156:../../libDaisy//src/hid/MidiEvent.h ****     uint8_t value;        /**< & */
 157:../../libDaisy//src/hid/MidiEvent.h **** };
 158:../../libDaisy//src/hid/MidiEvent.h **** /** Struct containing song position data.
 159:../../libDaisy//src/hid/MidiEvent.h **** Can be made from MidiEvent
 160:../../libDaisy//src/hid/MidiEvent.h **** */
 161:../../libDaisy//src/hid/MidiEvent.h **** struct SongPositionPointerEvent
ARM GAS  C:\Users\danst\AppData\Local\Temp\ccwBJjMd.s 			page 125


 162:../../libDaisy//src/hid/MidiEvent.h **** {
 163:../../libDaisy//src/hid/MidiEvent.h ****     uint16_t position; /**< & */
 164:../../libDaisy//src/hid/MidiEvent.h **** };
 165:../../libDaisy//src/hid/MidiEvent.h **** /** Struct containing song select data.
 166:../../libDaisy//src/hid/MidiEvent.h **** Can be made from MidiEvent
 167:../../libDaisy//src/hid/MidiEvent.h **** */
 168:../../libDaisy//src/hid/MidiEvent.h **** struct SongSelectEvent
 169:../../libDaisy//src/hid/MidiEvent.h **** {
 170:../../libDaisy//src/hid/MidiEvent.h ****     uint8_t song; /**< & */
 171:../../libDaisy//src/hid/MidiEvent.h **** };
 172:../../libDaisy//src/hid/MidiEvent.h **** /** Struct containing sound off data.
 173:../../libDaisy//src/hid/MidiEvent.h **** Can be made from MidiEvent
 174:../../libDaisy//src/hid/MidiEvent.h **** */
 175:../../libDaisy//src/hid/MidiEvent.h **** struct AllSoundOffEvent
 176:../../libDaisy//src/hid/MidiEvent.h **** {
 177:../../libDaisy//src/hid/MidiEvent.h ****     int channel; /**< & */
 178:../../libDaisy//src/hid/MidiEvent.h **** };
 179:../../libDaisy//src/hid/MidiEvent.h **** /** Struct containing ResetAllControllersEvent data.
 180:../../libDaisy//src/hid/MidiEvent.h **** Can be made from MidiEvent
 181:../../libDaisy//src/hid/MidiEvent.h **** */
 182:../../libDaisy//src/hid/MidiEvent.h **** struct ResetAllControllersEvent
 183:../../libDaisy//src/hid/MidiEvent.h **** {
 184:../../libDaisy//src/hid/MidiEvent.h ****     int     channel; /**< & */
 185:../../libDaisy//src/hid/MidiEvent.h ****     uint8_t value;   /**< & */
 186:../../libDaisy//src/hid/MidiEvent.h **** };
 187:../../libDaisy//src/hid/MidiEvent.h **** /** Struct containing LocalControlEvent data.
 188:../../libDaisy//src/hid/MidiEvent.h **** Can be made from MidiEvent
 189:../../libDaisy//src/hid/MidiEvent.h **** */
 190:../../libDaisy//src/hid/MidiEvent.h **** struct LocalControlEvent
 191:../../libDaisy//src/hid/MidiEvent.h **** {
 192:../../libDaisy//src/hid/MidiEvent.h ****     int  channel;           /**< & */
 193:../../libDaisy//src/hid/MidiEvent.h ****     bool local_control_off; /**< & */
 194:../../libDaisy//src/hid/MidiEvent.h ****     bool local_control_on;  /**< & */
 195:../../libDaisy//src/hid/MidiEvent.h **** };
 196:../../libDaisy//src/hid/MidiEvent.h **** /** Struct containing AllNotesOffEvent data.
 197:../../libDaisy//src/hid/MidiEvent.h **** Can be made from MidiEvent
 198:../../libDaisy//src/hid/MidiEvent.h **** */
 199:../../libDaisy//src/hid/MidiEvent.h **** struct AllNotesOffEvent
 200:../../libDaisy//src/hid/MidiEvent.h **** {
 201:../../libDaisy//src/hid/MidiEvent.h ****     int channel; /**< & */
 202:../../libDaisy//src/hid/MidiEvent.h **** };
 203:../../libDaisy//src/hid/MidiEvent.h **** /** Struct containing OmniModeOffEvent data. 
 204:../../libDaisy//src/hid/MidiEvent.h ****  * Can be made from MidiEvent
 205:../../libDaisy//src/hid/MidiEvent.h **** */
 206:../../libDaisy//src/hid/MidiEvent.h **** struct OmniModeOffEvent
 207:../../libDaisy//src/hid/MidiEvent.h **** {
 208:../../libDaisy//src/hid/MidiEvent.h ****     int channel; /**< & */
 209:../../libDaisy//src/hid/MidiEvent.h **** };
 210:../../libDaisy//src/hid/MidiEvent.h **** /** Struct containing OmniModeOnEvent data.
 211:../../libDaisy//src/hid/MidiEvent.h **** Can be made from MidiEvent
 212:../../libDaisy//src/hid/MidiEvent.h **** */
 213:../../libDaisy//src/hid/MidiEvent.h **** struct OmniModeOnEvent
 214:../../libDaisy//src/hid/MidiEvent.h **** {
 215:../../libDaisy//src/hid/MidiEvent.h ****     int channel; /**< & */
 216:../../libDaisy//src/hid/MidiEvent.h **** };
 217:../../libDaisy//src/hid/MidiEvent.h **** /** Struct containing MonoModeOnEvent data.
 218:../../libDaisy//src/hid/MidiEvent.h **** Can be made from MidiEvent
ARM GAS  C:\Users\danst\AppData\Local\Temp\ccwBJjMd.s 			page 126


 219:../../libDaisy//src/hid/MidiEvent.h **** */
 220:../../libDaisy//src/hid/MidiEvent.h **** struct MonoModeOnEvent
 221:../../libDaisy//src/hid/MidiEvent.h **** {
 222:../../libDaisy//src/hid/MidiEvent.h ****     int     channel;      /**< & */
 223:../../libDaisy//src/hid/MidiEvent.h ****     uint8_t num_channels; /**< & */
 224:../../libDaisy//src/hid/MidiEvent.h **** };
 225:../../libDaisy//src/hid/MidiEvent.h **** /** Struct containing PolyModeOnEvent data.
 226:../../libDaisy//src/hid/MidiEvent.h **** Can be made from MidiEvent
 227:../../libDaisy//src/hid/MidiEvent.h **** */
 228:../../libDaisy//src/hid/MidiEvent.h **** struct PolyModeOnEvent
 229:../../libDaisy//src/hid/MidiEvent.h **** {
 230:../../libDaisy//src/hid/MidiEvent.h ****     int channel; /**< & */
 231:../../libDaisy//src/hid/MidiEvent.h **** };
 232:../../libDaisy//src/hid/MidiEvent.h **** 
 233:../../libDaisy//src/hid/MidiEvent.h **** 
 234:../../libDaisy//src/hid/MidiEvent.h **** /** Simple MidiEvent with message type, channel, and data[2] members.
 235:../../libDaisy//src/hid/MidiEvent.h **** */
 236:../../libDaisy//src/hid/MidiEvent.h **** struct MidiEvent
 237:../../libDaisy//src/hid/MidiEvent.h **** {
 238:../../libDaisy//src/hid/MidiEvent.h ****     // Newer ish.
 239:../../libDaisy//src/hid/MidiEvent.h ****     MidiMessageType    type;                         /**< & */
 240:../../libDaisy//src/hid/MidiEvent.h ****     int                channel;                      /**< & */
 241:../../libDaisy//src/hid/MidiEvent.h ****     uint8_t            data[2];                      /**< & */
 242:../../libDaisy//src/hid/MidiEvent.h ****     uint8_t            sysex_data[SYSEX_BUFFER_LEN]; /**< & */
 243:../../libDaisy//src/hid/MidiEvent.h ****     uint8_t            sysex_message_len;
 244:../../libDaisy//src/hid/MidiEvent.h ****     SystemCommonType   sc_type;
 245:../../libDaisy//src/hid/MidiEvent.h ****     SystemRealTimeType srt_type;
 246:../../libDaisy//src/hid/MidiEvent.h ****     ChannelModeType    cm_type;
 247:../../libDaisy//src/hid/MidiEvent.h **** 
 248:../../libDaisy//src/hid/MidiEvent.h ****     /** Returns the data within the MidiEvent as a NoteOffEvent struct */
 249:../../libDaisy//src/hid/MidiEvent.h ****     NoteOffEvent AsNoteOff()
 250:../../libDaisy//src/hid/MidiEvent.h ****     {
 251:../../libDaisy//src/hid/MidiEvent.h ****         NoteOffEvent m;
 252:../../libDaisy//src/hid/MidiEvent.h ****         m.channel  = channel;
 253:../../libDaisy//src/hid/MidiEvent.h ****         m.note     = data[0];
 254:../../libDaisy//src/hid/MidiEvent.h ****         m.velocity = data[1];
 255:../../libDaisy//src/hid/MidiEvent.h ****         return m;
 256:../../libDaisy//src/hid/MidiEvent.h ****     }
 257:../../libDaisy//src/hid/MidiEvent.h **** 
 258:../../libDaisy//src/hid/MidiEvent.h ****     /** Returns the data within the MidiEvent as a NoteOnEvent struct */
 259:../../libDaisy//src/hid/MidiEvent.h ****     NoteOnEvent AsNoteOn()
 4400              		.loc 20 259 17 view .LVU1179
 4401              	.LBB1031:
 260:../../libDaisy//src/hid/MidiEvent.h ****     {
 261:../../libDaisy//src/hid/MidiEvent.h ****         NoteOnEvent m;
 4402              		.loc 20 261 9 view .LVU1180
 262:../../libDaisy//src/hid/MidiEvent.h ****         m.channel  = channel;
 4403              		.loc 20 262 9 view .LVU1181
 263:../../libDaisy//src/hid/MidiEvent.h ****         m.note     = data[0];
 4404              		.loc 20 263 9 view .LVU1182
 264:../../libDaisy//src/hid/MidiEvent.h ****         m.velocity = data[1];
 4405              		.loc 20 264 9 view .LVU1183
 265:../../libDaisy//src/hid/MidiEvent.h ****         return m;
 4406              		.loc 20 265 9 view .LVU1184
 4407              		.loc 20 265 9 is_stmt 0 view .LVU1185
 4408              	.LBE1031:
 4409              	.LBE1030:
ARM GAS  C:\Users\danst\AppData\Local\Temp\ccwBJjMd.s 			page 127


 150:takshaka.cpp  **** 				midiNote = noteMessage.note;
 4410              		.loc 16 150 4 is_stmt 1 view .LVU1186
 151:takshaka.cpp  **** 				envGate = true;
 4411              		.loc 16 151 5 view .LVU1187
 151:takshaka.cpp  **** 				envGate = true;
 4412              		.loc 16 151 14 is_stmt 0 view .LVU1188
 4413 009a 0C4F     		ldr	r7, .L184+16
 152:takshaka.cpp  **** 			} else envGate = false;
 4414              		.loc 16 152 13 view .LVU1189
 4415 009c B646     		mov	lr, r6
 150:takshaka.cpp  **** 				midiNote = noteMessage.note;
 4416              		.loc 16 150 4 view .LVU1190
 4417 009e 002B     		cmp	r3, #0
 4418 00a0 F0D0     		beq	.L165
 152:takshaka.cpp  **** 			} else envGate = false;
 4419              		.loc 16 152 13 view .LVU1191
 4420 00a2 3570     		strb	r5, [r6]
 151:takshaka.cpp  **** 				envGate = true;
 4421              		.loc 16 151 28 view .LVU1192
 4422 00a4 3A60     		str	r2, [r7]
 152:takshaka.cpp  **** 			} else envGate = false;
 4423              		.loc 16 152 5 is_stmt 1 view .LVU1193
 4424 00a6 EFE7     		b	.L166
 4425              	.LVL335:
 4426              	.L182:
 152:takshaka.cpp  **** 			} else envGate = false;
 4427              		.loc 16 152 5 is_stmt 0 view .LVU1194
 4428              	.LBE1034:
 4429              	.LBE1041:
 4430              	.LBE1043:
 4431              	.LBB1044:
 4432              	.LBB1002:
 125:../../libDaisy//src/hid/midi.h ****             transport_.FlushRx();
 4433              		.loc 14 125 21 view .LVU1195
 4434 00a8 0549     		ldr	r1, .L184+4
 126:../../libDaisy//src/hid/midi.h ****             StartReceive();
 4435              		.loc 14 126 31 view .LVU1196
 4436 00aa 0648     		ldr	r0, .L184+8
 125:../../libDaisy//src/hid/midi.h ****             transport_.FlushRx();
 4437              		.loc 14 125 21 view .LVU1197
 4438 00ac 0B71     		strb	r3, [r1, #4]
 126:../../libDaisy//src/hid/midi.h ****             StartReceive();
 4439              		.loc 14 126 31 view .LVU1198
 4440 00ae FFF7FEFF 		bl	_ZN5daisy16MidiUsbTransport7FlushRxEv
 4441              	.LVL336:
 4442              	.LBB1000:
 4443              	.LBI1000:
 107:../../libDaisy//src/hid/midi.h **** 
 4444              		.loc 14 107 10 is_stmt 1 view .LVU1199
 4445              	.LBB1001:
 107:../../libDaisy//src/hid/midi.h **** 
 4446              		.loc 14 107 45 is_stmt 0 view .LVU1200
 4447 00b2 0448     		ldr	r0, .L184+8
 4448 00b4 FFF7FEFF 		bl	_ZN5daisy16MidiUsbTransport7StartRxEv
 4449              	.LVL337:
 107:../../libDaisy//src/hid/midi.h **** 
 4450              		.loc 14 107 49 view .LVU1201
ARM GAS  C:\Users\danst\AppData\Local\Temp\ccwBJjMd.s 			page 128


 4451 00b8 BDE7     		b	.L161
 4452              	.L185:
 4453 00ba 00BF     		.align	2
 4454              	.L184:
 4455 00bc 00900000 		.word	midi+36864
 4456 00c0 00000000 		.word	midi
 4457 00c4 A8900000 		.word	midi+37032
 4458 00c8 00000000 		.word	.LANCHOR0
 4459 00cc 00000000 		.word	.LANCHOR34
 4460              	.LBE1001:
 4461              	.LBE1000:
 4462              	.LBE1002:
 4463              	.LBE1044:
 4464              		.cfi_endproc
 4465              	.LFE4789:
 4467              		.section	.rodata.main.str1.4,"aMS",%progbits,1
 4468              		.align	2
 4469              	.LC4:
 4470 0000 25632564 		.ascii	"%c%d.%03d\000"
 4470      2E253033 
 4470      6400
 4471 000a 0000     		.align	2
 4472              	.LC5:
 4473 000c 207C2000 		.ascii	" | \000"
 4474              		.section	.text.startup.main,"ax",%progbits
 4475              		.align	1
 4476              		.p2align 2,,3
 4477              		.global	main
 4478              		.syntax unified
 4479              		.thumb
 4480              		.thumb_func
 4481              		.fpu fpv5-d16
 4483              	main:
 4484              	.LFB4800:
 291:takshaka.cpp  **** int main(){
 4485              		.loc 16 291 11 is_stmt 1 view -0
 4486              		.cfi_startproc
 4487              		@ args = 0, pretend = 0, frame = 16
 4488              		@ frame_needed = 0, uses_anonymous_args = 0
 292:takshaka.cpp  **** 	hw.Init();
 4489              		.loc 16 292 2 view .LVU1203
 291:takshaka.cpp  **** int main(){
 4490              		.loc 16 291 11 is_stmt 0 view .LVU1204
 4491 0000 2DE9F04F 		push	{r4, r5, r6, r7, r8, r9, r10, fp, lr}
 4492              		.cfi_def_cfa_offset 36
 4493              		.cfi_offset 4, -36
 4494              		.cfi_offset 5, -32
 4495              		.cfi_offset 6, -28
 4496              		.cfi_offset 7, -24
 4497              		.cfi_offset 8, -20
 4498              		.cfi_offset 9, -16
 4499              		.cfi_offset 10, -12
 4500              		.cfi_offset 11, -8
 4501              		.cfi_offset 14, -4
 4502              	.LBB1085:
 293:takshaka.cpp  **** 	if( !debugMode ){		
 4503              		.loc 16 293 6 view .LVU1205
ARM GAS  C:\Users\danst\AppData\Local\Temp\ccwBJjMd.s 			page 129


 4504 0004 DFF85C82 		ldr	r8, .L202+140
 4505              	.LBE1085:
 292:takshaka.cpp  **** 	hw.Init();
 4506              		.loc 16 292 9 view .LVU1206
 4507 0008 0021     		movs	r1, #0
 4508 000a 7348     		ldr	r0, .L202
 291:takshaka.cpp  **** int main(){
 4509              		.loc 16 291 11 view .LVU1207
 4510 000c 2DED048B 		vpush.64	{d8, d9}
 4511              		.cfi_def_cfa_offset 52
 4512              		.cfi_offset 80, -52
 4513              		.cfi_offset 81, -48
 4514              		.cfi_offset 82, -44
 4515              		.cfi_offset 83, -40
 4516 0010 85B0     		sub	sp, sp, #20
 4517              		.cfi_def_cfa_offset 72
 292:takshaka.cpp  **** 	hw.Init();
 4518              		.loc 16 292 9 view .LVU1208
 4519 0012 FFF7FEFF 		bl	_ZN5daisy9DaisySeed4InitEb
 4520              	.LVL338:
 4521              		.loc 16 293 2 is_stmt 1 view .LVU1209
 4522              	.LBB1096:
 4523 0016 98F80040 		ldrb	r4, [r8]	@ zero_extendqisi2
 4524 001a 002C     		cmp	r4, #0
 4525 001c 40F0F181 		bne	.L187
 4526              	.LBB1086:
 294:takshaka.cpp  **** 		MidiUsbHandler::Config midiConfig;
 4527              		.loc 16 294 3 view .LVU1210
 295:takshaka.cpp  **** 		midiConfig.transport_config.periph = MidiUsbTransport::Config::INTERNAL;
 4528              		.loc 16 295 3 view .LVU1211
 4529              	.LVL339:
 296:takshaka.cpp  **** 		midi.Init( midiConfig );
 4530              		.loc 16 296 3 view .LVU1212
 4531              	.LBB1087:
 4532              	.LBI1087:
  95:../../libDaisy//src/hid/midi.h ****     {
 4533              		.loc 14 95 10 view .LVU1213
 4534              	.LBB1088:
  97:../../libDaisy//src/hid/midi.h **** 
 4535              		.loc 14 97 9 is_stmt 0 view .LVU1214
 4536 0020 6E4D     		ldr	r5, .L202+4
  99:../../libDaisy//src/hid/midi.h **** 
 4537              		.loc 14 99 24 view .LVU1215
 4538 0022 2146     		mov	r1, r4
 4539 0024 6E48     		ldr	r0, .L202+8
  97:../../libDaisy//src/hid/midi.h **** 
 4540              		.loc 14 97 9 view .LVU1216
 4541 0026 05F51046 		add	r6, r5, #36864
 4542 002a 86F8A540 		strb	r4, [r6, #165]
  99:../../libDaisy//src/hid/midi.h **** 
 4543              		.loc 14 99 24 view .LVU1217
 4544 002e FFF7FEFF 		bl	_ZN5daisy16MidiUsbTransport4InitENS0_6ConfigE
 4545              	.LVL340:
 4546              	.LBB1089:
 4547              	.LBI1089:
  24:../../libDaisy//src/util/ringbuffer.h **** 
 4548              		.loc 19 24 17 is_stmt 1 view .LVU1218
ARM GAS  C:\Users\danst\AppData\Local\Temp\ccwBJjMd.s 			page 130


 4549              	.LBE1089:
 102:../../libDaisy//src/hid/midi.h ****         pstate_                = ParserEmpty;
 4550              		.loc 14 102 32 is_stmt 0 view .LVU1219
 4551 0032 0A23     		movs	r3, #10
 4552              	.LBB1092:
 4553              	.LBB1090:
  24:../../libDaisy//src/util/ringbuffer.h **** 
 4554              		.loc 19 24 49 view .LVU1220
 4555 0034 C6F89C40 		str	r4, [r6, #156]
 4556              	.LBE1090:
 4557              	.LBE1092:
 103:../../libDaisy//src/hid/midi.h ****     }
 4558              		.loc 14 103 32 view .LVU1221
 4559 0038 2C71     		strb	r4, [r5, #4]
 4560              	.LBB1093:
 4561              	.LBB1091:
  24:../../libDaisy//src/util/ringbuffer.h **** 
 4562              		.loc 19 24 36 view .LVU1222
 4563 003a C6F89840 		str	r4, [r6, #152]
 4564              	.LVL341:
  24:../../libDaisy//src/util/ringbuffer.h **** 
 4565              		.loc 19 24 36 view .LVU1223
 4566              	.LBE1091:
 4567              	.LBE1093:
 102:../../libDaisy//src/hid/midi.h ****         pstate_                = ParserEmpty;
 4568              		.loc 14 102 32 view .LVU1224
 4569 003e 2B72     		strb	r3, [r5, #8]
 4570              	.L188:
 4571              	.LBE1088:
 4572              	.LBE1087:
 4573              	.LBE1086:
 4574              	.LBE1096:
 297:takshaka.cpp  **** 	} else hw.StartLog();
 298:takshaka.cpp  **** 	// INIT THE SMART KNOBS
 299:takshaka.cpp  **** 	subMixSmartKnob.Init( true, 0.0 );
 4575              		.loc 16 299 2 is_stmt 1 view .LVU1225
 4576              		.loc 16 299 22 is_stmt 0 view .LVU1226
 4577 0040 9FED688A 		vldr.32	s16, .L202+12
 4578 0044 0121     		movs	r1, #1
 4579 0046 6848     		ldr	r0, .L202+16
 4580              	.LBB1097:
 4581              	.LBB1098:
  50:../../DaisySP//Source/Synthesis/oscillator.h ****         eoc_       = true;
 4582              		.loc 8 50 20 view .LVU1227
 4583 0048 0024     		movs	r4, #0
 4584              	.LBE1098:
 4585              	.LBE1097:
 4586              		.loc 16 299 22 view .LVU1228
 4587 004a B0EE480A 		vmov.f32	s0, s16
 300:takshaka.cpp  **** 	subTypeSmartKnob.Init( false, 0.0 );
 301:takshaka.cpp  **** 	filterCutoffSmartKnob.Init( true, 0.5 );
 302:takshaka.cpp  **** 	filterTypeSmartKnob.Init( false, 0.0 );
 303:takshaka.cpp  **** 	filterResSmartKnob.Init( true, 0.0 );
 304:takshaka.cpp  **** 	filterPolesSmartKnob.Init( false, 0.0 );
 305:takshaka.cpp  **** 	pounceAttackSmartKnob.Init( true, 0.0 );
 306:takshaka.cpp  **** 	ampEnvAttackSmartKnob.Init( false, 0.0 );
 307:takshaka.cpp  **** 	pounceSustainSmartKnob.Init( true, 1.0 );
ARM GAS  C:\Users\danst\AppData\Local\Temp\ccwBJjMd.s 			page 131


 308:takshaka.cpp  **** 	ampEnvSustainSmartKnob.Init( false, 1.0 );
 309:takshaka.cpp  **** 	pounceDecaySmartKnob.Init( true,  0.2 );
 310:takshaka.cpp  **** 	ampEnvDecaySmartKnob.Init( false, 0.2 );
 311:takshaka.cpp  **** 	ampSmartKnob.Init( true, 0.5 );
 312:takshaka.cpp  **** 	ampEnvModSmartKnob.Init( false, 0.5 );
 313:takshaka.cpp  **** 	// INIT DAISY SP OBJECTS
 314:takshaka.cpp  **** 	superSaw.Init( SAMPLE_RATE );
 4588              		.loc 16 314 15 view .LVU1229
 4589 004e DFED678A 		vldr.32	s17, .L202+20
 299:takshaka.cpp  **** 	subTypeSmartKnob.Init( false, 0.0 );
 4590              		.loc 16 299 22 view .LVU1230
 4591 0052 FFF7FEFF 		bl	_ZN7daisysp9SmartKnob4InitEbf
 4592              	.LVL342:
 300:takshaka.cpp  **** 	subTypeSmartKnob.Init( false, 0.0 );
 4593              		.loc 16 300 2 is_stmt 1 view .LVU1231
 300:takshaka.cpp  **** 	subTypeSmartKnob.Init( false, 0.0 );
 4594              		.loc 16 300 23 is_stmt 0 view .LVU1232
 4595 0056 B0EE480A 		vmov.f32	s0, s16
 4596 005a 0021     		movs	r1, #0
 4597 005c 6448     		ldr	r0, .L202+24
 4598 005e FFF7FEFF 		bl	_ZN7daisysp9SmartKnob4InitEbf
 4599              	.LVL343:
 301:takshaka.cpp  **** 	filterTypeSmartKnob.Init( false, 0.0 );
 4600              		.loc 16 301 2 is_stmt 1 view .LVU1233
 301:takshaka.cpp  **** 	filterTypeSmartKnob.Init( false, 0.0 );
 4601              		.loc 16 301 28 is_stmt 0 view .LVU1234
 4602 0062 B6EE000A 		vmov.f32	s0, #5.0e-1
 4603 0066 0121     		movs	r1, #1
 4604 0068 6248     		ldr	r0, .L202+28
 4605 006a FFF7FEFF 		bl	_ZN7daisysp9SmartKnob4InitEbf
 4606              	.LVL344:
 302:takshaka.cpp  **** 	filterResSmartKnob.Init( true, 0.0 );
 4607              		.loc 16 302 2 is_stmt 1 view .LVU1235
 302:takshaka.cpp  **** 	filterResSmartKnob.Init( true, 0.0 );
 4608              		.loc 16 302 26 is_stmt 0 view .LVU1236
 4609 006e B0EE480A 		vmov.f32	s0, s16
 4610 0072 0021     		movs	r1, #0
 4611 0074 6048     		ldr	r0, .L202+32
 4612 0076 FFF7FEFF 		bl	_ZN7daisysp9SmartKnob4InitEbf
 4613              	.LVL345:
 303:takshaka.cpp  **** 	filterPolesSmartKnob.Init( false, 0.0 );
 4614              		.loc 16 303 2 is_stmt 1 view .LVU1237
 303:takshaka.cpp  **** 	filterPolesSmartKnob.Init( false, 0.0 );
 4615              		.loc 16 303 25 is_stmt 0 view .LVU1238
 4616 007a B0EE480A 		vmov.f32	s0, s16
 4617 007e 0121     		movs	r1, #1
 4618 0080 5E48     		ldr	r0, .L202+36
 4619 0082 FFF7FEFF 		bl	_ZN7daisysp9SmartKnob4InitEbf
 4620              	.LVL346:
 304:takshaka.cpp  **** 	pounceAttackSmartKnob.Init( true, 0.0 );
 4621              		.loc 16 304 2 is_stmt 1 view .LVU1239
 304:takshaka.cpp  **** 	pounceAttackSmartKnob.Init( true, 0.0 );
 4622              		.loc 16 304 27 is_stmt 0 view .LVU1240
 4623 0086 B0EE480A 		vmov.f32	s0, s16
 4624 008a 0021     		movs	r1, #0
 4625 008c 5C48     		ldr	r0, .L202+40
 4626 008e FFF7FEFF 		bl	_ZN7daisysp9SmartKnob4InitEbf
ARM GAS  C:\Users\danst\AppData\Local\Temp\ccwBJjMd.s 			page 132


 4627              	.LVL347:
 305:takshaka.cpp  **** 	ampEnvAttackSmartKnob.Init( false, 0.0 );
 4628              		.loc 16 305 2 is_stmt 1 view .LVU1241
 305:takshaka.cpp  **** 	ampEnvAttackSmartKnob.Init( false, 0.0 );
 4629              		.loc 16 305 28 is_stmt 0 view .LVU1242
 4630 0092 B0EE480A 		vmov.f32	s0, s16
 4631 0096 0121     		movs	r1, #1
 4632 0098 5A48     		ldr	r0, .L202+44
 4633 009a FFF7FEFF 		bl	_ZN7daisysp9SmartKnob4InitEbf
 4634              	.LVL348:
 306:takshaka.cpp  **** 	pounceSustainSmartKnob.Init( true, 1.0 );
 4635              		.loc 16 306 2 is_stmt 1 view .LVU1243
 306:takshaka.cpp  **** 	pounceSustainSmartKnob.Init( true, 1.0 );
 4636              		.loc 16 306 28 is_stmt 0 view .LVU1244
 4637 009e B0EE480A 		vmov.f32	s0, s16
 4638 00a2 0021     		movs	r1, #0
 4639 00a4 5848     		ldr	r0, .L202+48
 4640 00a6 FFF7FEFF 		bl	_ZN7daisysp9SmartKnob4InitEbf
 4641              	.LVL349:
 307:takshaka.cpp  **** 	ampEnvSustainSmartKnob.Init( false, 1.0 );
 4642              		.loc 16 307 2 is_stmt 1 view .LVU1245
 307:takshaka.cpp  **** 	ampEnvSustainSmartKnob.Init( false, 1.0 );
 4643              		.loc 16 307 29 is_stmt 0 view .LVU1246
 4644 00aa B7EE000A 		vmov.f32	s0, #1.0e+0
 4645 00ae 0121     		movs	r1, #1
 4646 00b0 5648     		ldr	r0, .L202+52
 4647 00b2 FFF7FEFF 		bl	_ZN7daisysp9SmartKnob4InitEbf
 4648              	.LVL350:
 308:takshaka.cpp  **** 	pounceDecaySmartKnob.Init( true,  0.2 );
 4649              		.loc 16 308 2 is_stmt 1 view .LVU1247
 308:takshaka.cpp  **** 	pounceDecaySmartKnob.Init( true,  0.2 );
 4650              		.loc 16 308 29 is_stmt 0 view .LVU1248
 4651 00b6 B7EE000A 		vmov.f32	s0, #1.0e+0
 4652 00ba 0021     		movs	r1, #0
 4653 00bc 5448     		ldr	r0, .L202+56
 4654 00be FFF7FEFF 		bl	_ZN7daisysp9SmartKnob4InitEbf
 4655              	.LVL351:
 309:takshaka.cpp  **** 	ampEnvDecaySmartKnob.Init( false, 0.2 );
 4656              		.loc 16 309 2 is_stmt 1 view .LVU1249
 309:takshaka.cpp  **** 	ampEnvDecaySmartKnob.Init( false, 0.2 );
 4657              		.loc 16 309 27 is_stmt 0 view .LVU1250
 4658 00c2 9FED540A 		vldr.32	s0, .L202+60
 4659 00c6 0121     		movs	r1, #1
 4660 00c8 5348     		ldr	r0, .L202+64
 4661 00ca FFF7FEFF 		bl	_ZN7daisysp9SmartKnob4InitEbf
 4662              	.LVL352:
 310:takshaka.cpp  **** 	ampSmartKnob.Init( true, 0.5 );
 4663              		.loc 16 310 2 is_stmt 1 view .LVU1251
 310:takshaka.cpp  **** 	ampSmartKnob.Init( true, 0.5 );
 4664              		.loc 16 310 27 is_stmt 0 view .LVU1252
 4665 00ce 9FED510A 		vldr.32	s0, .L202+60
 4666 00d2 0021     		movs	r1, #0
 4667 00d4 5148     		ldr	r0, .L202+68
 4668 00d6 FFF7FEFF 		bl	_ZN7daisysp9SmartKnob4InitEbf
 4669              	.LVL353:
 311:takshaka.cpp  **** 	ampEnvModSmartKnob.Init( false, 0.5 );
 4670              		.loc 16 311 2 is_stmt 1 view .LVU1253
ARM GAS  C:\Users\danst\AppData\Local\Temp\ccwBJjMd.s 			page 133


 311:takshaka.cpp  **** 	ampEnvModSmartKnob.Init( false, 0.5 );
 4671              		.loc 16 311 19 is_stmt 0 view .LVU1254
 4672 00da B6EE000A 		vmov.f32	s0, #5.0e-1
 4673 00de 0121     		movs	r1, #1
 4674 00e0 4F48     		ldr	r0, .L202+72
 4675 00e2 FFF7FEFF 		bl	_ZN7daisysp9SmartKnob4InitEbf
 4676              	.LVL354:
 312:takshaka.cpp  **** 	// INIT DAISY SP OBJECTS
 4677              		.loc 16 312 2 is_stmt 1 view .LVU1255
 312:takshaka.cpp  **** 	// INIT DAISY SP OBJECTS
 4678              		.loc 16 312 25 is_stmt 0 view .LVU1256
 4679 00e6 0021     		movs	r1, #0
 4680 00e8 B6EE000A 		vmov.f32	s0, #5.0e-1
 4681 00ec 4D48     		ldr	r0, .L202+76
 4682 00ee FFF7FEFF 		bl	_ZN7daisysp9SmartKnob4InitEbf
 4683              	.LVL355:
 4684              		.loc 16 314 2 is_stmt 1 view .LVU1257
 4685              		.loc 16 314 15 is_stmt 0 view .LVU1258
 4686 00f2 B0EE680A 		vmov.f32	s0, s17
 4687 00f6 4C48     		ldr	r0, .L202+80
 315:takshaka.cpp  **** 	subOsc.Init( SAMPLE_RATE );
 316:takshaka.cpp  **** 	distortion.Init();  // SETS GAIN TO ZERO
 317:takshaka.cpp  **** 	filter1.Init( SAMPLE_RATE );
 318:takshaka.cpp  **** 	filter1.SetDrive( 0.0 );
 319:takshaka.cpp  **** 	filter2.Init( SAMPLE_RATE );
 320:takshaka.cpp  **** 	filter2.SetDrive( 0.0 );
 321:takshaka.cpp  **** 	int combfilterBufferLength = sizeof( combFilterBuffer ) / sizeof( combFilterBuffer[ 0 ] );
 322:takshaka.cpp  **** 	for( int i = 0; i < combfilterBufferLength; i++ ) combFilterBuffer[ i ] = 0.0;
 323:takshaka.cpp  **** 	combFilter.Init( SAMPLE_RATE, combFilterBuffer, combfilterBufferLength );
 324:takshaka.cpp  **** 	combFilter.SetPeriod( 2.0 ); // FOR NOW, THIS IS A FIXED VALUE = THE MAX BUFFER SIZE
 325:takshaka.cpp  **** 	pounce.Init( SAMPLE_RATE );
 326:takshaka.cpp  **** 	ampEnv.Init( SAMPLE_RATE );
 327:takshaka.cpp  **** 	// lfo.Init( SAMPLE_RATE );
 328:takshaka.cpp  **** 	// lfo.SetWaveform( lfo.WAVE_SIN );
 329:takshaka.cpp  **** 	// lfo.SetFreq( 1.0 );
 330:takshaka.cpp  **** 	initADC();
 331:takshaka.cpp  **** 	modeSwitch.Init( hw.GetPin( 14 ), 100 );
 332:takshaka.cpp  **** 	hw.SetAudioSampleRate( SaiHandle::Config::SampleRate::SAI_48KHZ );
 333:takshaka.cpp  **** 	hw.StartAudio( AudioCallback );
 334:takshaka.cpp  **** 	int debugCount = 0;
 4688              		.loc 16 334 6 view .LVU1259
 4689 00f8 2646     		mov	r6, r4
 314:takshaka.cpp  **** 	subOsc.Init( SAMPLE_RATE );
 4690              		.loc 16 314 15 view .LVU1260
 4691 00fa FFF7FEFF 		bl	_ZN7daisysp11SuperSawOsc4InitEf
 4692              	.LVL356:
 315:takshaka.cpp  **** 	subOsc.Init( SAMPLE_RATE );
 4693              		.loc 16 315 2 is_stmt 1 view .LVU1261
 4694              	.LBB1101:
 4695              	.LBI1097:
  42:../../DaisySP//Source/Synthesis/oscillator.h ****     {
 4696              		.loc 8 42 10 view .LVU1262
 4697              	.LBB1099:
  44:../../DaisySP//Source/Synthesis/oscillator.h ****         sr_recip_  = 1.0f / sample_rate;
 4698              		.loc 8 44 9 view .LVU1263
  44:../../DaisySP//Source/Synthesis/oscillator.h ****         sr_recip_  = 1.0f / sample_rate;
 4699              		.loc 8 44 20 is_stmt 0 view .LVU1264
ARM GAS  C:\Users\danst\AppData\Local\Temp\ccwBJjMd.s 			page 134


 4700 00fe 4B4F     		ldr	r7, .L202+84
  45:../../DaisySP//Source/Synthesis/oscillator.h ****         freq_      = 100.0f;
 4701              		.loc 8 45 20 view .LVU1265
 4702 0100 4B4B     		ldr	r3, .L202+88
  46:../../DaisySP//Source/Synthesis/oscillator.h ****         amp_       = 0.5f;
 4703              		.loc 8 46 20 view .LVU1266
 4704 0102 9FED4C9A 		vldr.32	s18, .L202+92
  49:../../DaisySP//Source/Synthesis/oscillator.h ****         waveform_  = WAVE_SIN;
 4705              		.loc 8 49 34 view .LVU1267
 4706 0106 3846     		mov	r0, r7
  45:../../DaisySP//Source/Synthesis/oscillator.h ****         freq_      = 100.0f;
 4707              		.loc 8 45 20 view .LVU1268
 4708 0108 3B61     		str	r3, [r7, #16]	@ float
  47:../../DaisySP//Source/Synthesis/oscillator.h ****         phase_     = 0.0f;
 4709              		.loc 8 47 20 view .LVU1269
 4710 010a 4FF07C53 		mov	r3, #1056964608
  49:../../DaisySP//Source/Synthesis/oscillator.h ****         waveform_  = WAVE_SIN;
 4711              		.loc 8 49 34 view .LVU1270
 4712 010e B0EE490A 		vmov.f32	s0, s18
  44:../../DaisySP//Source/Synthesis/oscillator.h ****         sr_recip_  = 1.0f / sample_rate;
 4713              		.loc 8 44 20 view .LVU1271
 4714 0112 C7ED038A 		vstr.32	s17, [r7, #12]
  45:../../DaisySP//Source/Synthesis/oscillator.h ****         freq_      = 100.0f;
 4715              		.loc 8 45 9 is_stmt 1 view .LVU1272
  46:../../DaisySP//Source/Synthesis/oscillator.h ****         amp_       = 0.5f;
 4716              		.loc 8 46 9 view .LVU1273
  47:../../DaisySP//Source/Synthesis/oscillator.h ****         phase_     = 0.0f;
 4717              		.loc 8 47 20 is_stmt 0 view .LVU1274
 4718 0116 7B60     		str	r3, [r7, #4]	@ float
  48:../../DaisySP//Source/Synthesis/oscillator.h ****         phase_inc_ = CalcPhaseInc(freq_);
 4719              		.loc 8 48 20 view .LVU1275
 4720 0118 87ED058A 		vstr.32	s16, [r7, #20]
  46:../../DaisySP//Source/Synthesis/oscillator.h ****         amp_       = 0.5f;
 4721              		.loc 8 46 20 view .LVU1276
 4722 011c 87ED029A 		vstr.32	s18, [r7, #8]
  47:../../DaisySP//Source/Synthesis/oscillator.h ****         phase_     = 0.0f;
 4723              		.loc 8 47 9 is_stmt 1 view .LVU1277
  48:../../DaisySP//Source/Synthesis/oscillator.h ****         phase_inc_ = CalcPhaseInc(freq_);
 4724              		.loc 8 48 9 view .LVU1278
  49:../../DaisySP//Source/Synthesis/oscillator.h ****         waveform_  = WAVE_SIN;
 4725              		.loc 8 49 9 view .LVU1279
  49:../../DaisySP//Source/Synthesis/oscillator.h ****         waveform_  = WAVE_SIN;
 4726              		.loc 8 49 34 is_stmt 0 view .LVU1280
 4727 0120 FFF7FEFF 		bl	_ZN7daisysp10Oscillator12CalcPhaseIncEf
 4728              	.LVL357:
  52:../../DaisySP//Source/Synthesis/oscillator.h ****     }
 4729              		.loc 8 52 20 view .LVU1281
 4730 0124 40F20113 		movw	r3, #257
 4731              	.LBE1099:
 4732              	.LBE1101:
 316:takshaka.cpp  **** 	filter1.Init( SAMPLE_RATE );
 4733              		.loc 16 316 17 view .LVU1282
 4734 0128 4348     		ldr	r0, .L202+96
 4735              	.LBB1102:
 4736              	.LBB1100:
  49:../../DaisySP//Source/Synthesis/oscillator.h ****         waveform_  = WAVE_SIN;
 4737              		.loc 8 49 20 view .LVU1283
ARM GAS  C:\Users\danst\AppData\Local\Temp\ccwBJjMd.s 			page 135


 4738 012a 87ED060A 		vstr.32	s0, [r7, #24]
  50:../../DaisySP//Source/Synthesis/oscillator.h ****         eoc_       = true;
 4739              		.loc 8 50 9 is_stmt 1 view .LVU1284
  52:../../DaisySP//Source/Synthesis/oscillator.h ****     }
 4740              		.loc 8 52 20 is_stmt 0 view .LVU1285
 4741 012e BB84     		strh	r3, [r7, #36]	@ movhi
  50:../../DaisySP//Source/Synthesis/oscillator.h ****         eoc_       = true;
 4742              		.loc 8 50 20 view .LVU1286
 4743 0130 3C70     		strb	r4, [r7]
  51:../../DaisySP//Source/Synthesis/oscillator.h ****         eor_       = true;
 4744              		.loc 8 51 9 is_stmt 1 view .LVU1287
  52:../../DaisySP//Source/Synthesis/oscillator.h ****     }
 4745              		.loc 8 52 9 view .LVU1288
 4746              	.LVL358:
  52:../../DaisySP//Source/Synthesis/oscillator.h ****     }
 4747              		.loc 8 52 9 is_stmt 0 view .LVU1289
 4748              	.LBE1100:
 4749              	.LBE1102:
 316:takshaka.cpp  **** 	filter1.Init( SAMPLE_RATE );
 4750              		.loc 16 316 2 is_stmt 1 view .LVU1290
 316:takshaka.cpp  **** 	filter1.Init( SAMPLE_RATE );
 4751              		.loc 16 316 17 is_stmt 0 view .LVU1291
 4752 0132 FFF7FEFF 		bl	_ZN7daisysp9Overdrive4InitEv
 4753              	.LVL359:
 317:takshaka.cpp  **** 	filter1.SetDrive( 0.0 );
 4754              		.loc 16 317 2 is_stmt 1 view .LVU1292
 317:takshaka.cpp  **** 	filter1.SetDrive( 0.0 );
 4755              		.loc 16 317 14 is_stmt 0 view .LVU1293
 4756 0136 B0EE680A 		vmov.f32	s0, s17
 4757 013a 4048     		ldr	r0, .L202+100
 4758 013c FFF7FEFF 		bl	_ZN7daisysp3Svf4InitEf
 4759              	.LVL360:
 318:takshaka.cpp  **** 	filter2.Init( SAMPLE_RATE );
 4760              		.loc 16 318 2 is_stmt 1 view .LVU1294
 318:takshaka.cpp  **** 	filter2.Init( SAMPLE_RATE );
 4761              		.loc 16 318 18 is_stmt 0 view .LVU1295
 4762 0140 B0EE480A 		vmov.f32	s0, s16
 4763 0144 3D48     		ldr	r0, .L202+100
 4764 0146 FFF7FEFF 		bl	_ZN7daisysp3Svf8SetDriveEf
 4765              	.LVL361:
 319:takshaka.cpp  **** 	filter2.SetDrive( 0.0 );
 4766              		.loc 16 319 2 is_stmt 1 view .LVU1296
 319:takshaka.cpp  **** 	filter2.SetDrive( 0.0 );
 4767              		.loc 16 319 14 is_stmt 0 view .LVU1297
 4768 014a B0EE680A 		vmov.f32	s0, s17
 4769 014e 3C48     		ldr	r0, .L202+104
 4770 0150 FFF7FEFF 		bl	_ZN7daisysp3Svf4InitEf
 4771              	.LVL362:
 320:takshaka.cpp  **** 	int combfilterBufferLength = sizeof( combFilterBuffer ) / sizeof( combFilterBuffer[ 0 ] );
 4772              		.loc 16 320 2 is_stmt 1 view .LVU1298
 320:takshaka.cpp  **** 	int combfilterBufferLength = sizeof( combFilterBuffer ) / sizeof( combFilterBuffer[ 0 ] );
 4773              		.loc 16 320 18 is_stmt 0 view .LVU1299
 4774 0154 B0EE480A 		vmov.f32	s0, s16
 4775 0158 3948     		ldr	r0, .L202+104
 4776 015a FFF7FEFF 		bl	_ZN7daisysp3Svf8SetDriveEf
 4777              	.LVL363:
 321:takshaka.cpp  **** 	for( int i = 0; i < combfilterBufferLength; i++ ) combFilterBuffer[ i ] = 0.0;
ARM GAS  C:\Users\danst\AppData\Local\Temp\ccwBJjMd.s 			page 136


 4778              		.loc 16 321 2 is_stmt 1 view .LVU1300
 322:takshaka.cpp  **** 	combFilter.Init( SAMPLE_RATE, combFilterBuffer, combfilterBufferLength );
 4779              		.loc 16 322 2 view .LVU1301
 4780              	.LBB1103:
 322:takshaka.cpp  **** 	combFilter.Init( SAMPLE_RATE, combFilterBuffer, combfilterBufferLength );
 4781              		.loc 16 322 20 view .LVU1302
 322:takshaka.cpp  **** 	combFilter.Init( SAMPLE_RATE, combFilterBuffer, combfilterBufferLength );
 4782              		.loc 16 322 74 is_stmt 0 view .LVU1303
 4783 015e 2146     		mov	r1, r4
 4784 0160 4FF41642 		mov	r2, #38400
 4785 0164 3748     		ldr	r0, .L202+108
 4786 0166 FFF7FEFF 		bl	memset
 4787              	.LVL364:
 322:takshaka.cpp  **** 	combFilter.Init( SAMPLE_RATE, combFilterBuffer, combfilterBufferLength );
 4788              		.loc 16 322 74 view .LVU1304
 4789              	.LBE1103:
 323:takshaka.cpp  **** 	combFilter.SetPeriod( 2.0 ); // FOR NOW, THIS IS A FIXED VALUE = THE MAX BUFFER SIZE
 4790              		.loc 16 323 2 is_stmt 1 view .LVU1305
 323:takshaka.cpp  **** 	combFilter.SetPeriod( 2.0 ); // FOR NOW, THIS IS A FIXED VALUE = THE MAX BUFFER SIZE
 4791              		.loc 16 323 17 is_stmt 0 view .LVU1306
 4792 016a 4FF41652 		mov	r2, #9600
 4793 016e 3549     		ldr	r1, .L202+108
 4794 0170 B0EE680A 		vmov.f32	s0, s17
 4795 0174 3448     		ldr	r0, .L202+112
 4796 0176 FFF7FEFF 		bl	_ZN7daisysp4Comb4InitEfPfj
 4797              	.LVL365:
 324:takshaka.cpp  **** 	pounce.Init( SAMPLE_RATE );
 4798              		.loc 16 324 2 is_stmt 1 view .LVU1307
 324:takshaka.cpp  **** 	pounce.Init( SAMPLE_RATE );
 4799              		.loc 16 324 22 is_stmt 0 view .LVU1308
 4800 017a B0EE000A 		vmov.f32	s0, #2.0e+0
 4801 017e 3248     		ldr	r0, .L202+112
 4802 0180 FFF7FEFF 		bl	_ZN7daisysp4Comb9SetPeriodEf
 4803              	.LVL366:
 325:takshaka.cpp  **** 	ampEnv.Init( SAMPLE_RATE );
 4804              		.loc 16 325 2 is_stmt 1 view .LVU1309
 325:takshaka.cpp  **** 	ampEnv.Init( SAMPLE_RATE );
 4805              		.loc 16 325 13 is_stmt 0 view .LVU1310
 4806 0184 B0EE680A 		vmov.f32	s0, s17
 4807 0188 0121     		movs	r1, #1
 4808 018a 3048     		ldr	r0, .L202+116
 4809 018c FFF7FEFF 		bl	_ZN7daisysp4Adsr4InitEfi
 4810              	.LVL367:
 326:takshaka.cpp  **** 	// lfo.Init( SAMPLE_RATE );
 4811              		.loc 16 326 2 is_stmt 1 view .LVU1311
 326:takshaka.cpp  **** 	// lfo.Init( SAMPLE_RATE );
 4812              		.loc 16 326 13 is_stmt 0 view .LVU1312
 4813 0190 B0EE680A 		vmov.f32	s0, s17
 4814 0194 0121     		movs	r1, #1
 4815 0196 2E48     		ldr	r0, .L202+120
 4816 0198 FFF7FEFF 		bl	_ZN7daisysp4Adsr4InitEfi
 4817              	.LVL368:
 330:takshaka.cpp  **** 	modeSwitch.Init( hw.GetPin( 14 ), 100 );
 4818              		.loc 16 330 2 is_stmt 1 view .LVU1313
 4819 019c 2D4C     		ldr	r4, .L202+124
 330:takshaka.cpp  **** 	modeSwitch.Init( hw.GetPin( 14 ), 100 );
 4820              		.loc 16 330 9 is_stmt 0 view .LVU1314
ARM GAS  C:\Users\danst\AppData\Local\Temp\ccwBJjMd.s 			page 137


 4821 019e FFF7FEFF 		bl	_Z7initADCv
 4822              	.LVL369:
 331:takshaka.cpp  **** 	hw.SetAudioSampleRate( SaiHandle::Config::SampleRate::SAI_48KHZ );
 4823              		.loc 16 331 2 is_stmt 1 view .LVU1315
 331:takshaka.cpp  **** 	hw.SetAudioSampleRate( SaiHandle::Config::SampleRate::SAI_48KHZ );
 4824              		.loc 16 331 17 is_stmt 0 view .LVU1316
 4825 01a2 0E20     		movs	r0, #14
 4826 01a4 FFF7FEFF 		bl	_ZN5daisy9DaisySeed6GetPinEh
 4827              	.LVL370:
 4828 01a8 ADF80C00 		strh	r0, [sp, #12]	@ movhi
 4829 01ac B0EE490A 		vmov.f32	s0, s18
 4830 01b0 2948     		ldr	r0, .L202+128
 4831 01b2 0399     		ldr	r1, [sp, #12]
 4832 01b4 FFF7FEFF 		bl	_ZN5daisy6Switch4InitE12dsy_gpio_pinf
 4833              	.LVL371:
 332:takshaka.cpp  **** 	hw.StartAudio( AudioCallback );
 4834              		.loc 16 332 2 is_stmt 1 view .LVU1317
 332:takshaka.cpp  **** 	hw.StartAudio( AudioCallback );
 4835              		.loc 16 332 23 is_stmt 0 view .LVU1318
 4836 01b8 0321     		movs	r1, #3
 4837 01ba 0748     		ldr	r0, .L202
 4838 01bc FFF7FEFF 		bl	_ZN5daisy9DaisySeed18SetAudioSampleRateENS_9SaiHandle6Config10SampleRateE
 4839              	.LVL372:
 333:takshaka.cpp  **** 	int debugCount = 0;
 4840              		.loc 16 333 2 is_stmt 1 view .LVU1319
 333:takshaka.cpp  **** 	int debugCount = 0;
 4841              		.loc 16 333 15 is_stmt 0 view .LVU1320
 4842 01c0 2649     		ldr	r1, .L202+132
 4843 01c2 0548     		ldr	r0, .L202
 4844 01c4 264D     		ldr	r5, .L202+136
 4845 01c6 FFF7FEFF 		bl	_ZN5daisy9DaisySeed10StartAudioEPFvPKPKfPPfjE
 4846              	.LVL373:
 4847              		.loc 16 334 2 is_stmt 1 view .LVU1321
 4848              		.loc 16 334 2 is_stmt 0 view .LVU1322
 4849 01ca DFF89C90 		ldr	r9, .L202+144
 4850 01ce DFF89CB0 		ldr	fp, .L202+148
 4851 01d2 DFF89CA0 		ldr	r10, .L202+152
 4852 01d6 FBE0     		b	.L195
 4853              	.L203:
 4854              		.align	2
 4855              	.L202:
 4856 01d8 00000000 		.word	.LANCHOR21
 4857 01dc 00000000 		.word	midi
 4858 01e0 A8900000 		.word	midi+37032
 4859 01e4 00000000 		.word	0
 4860 01e8 00000000 		.word	.LANCHOR6
 4861 01ec 00803B47 		.word	1195081728
 4862 01f0 00000000 		.word	.LANCHOR22
 4863 01f4 00000000 		.word	.LANCHOR10
 4864 01f8 00000000 		.word	.LANCHOR15
 4865 01fc 00000000 		.word	.LANCHOR23
 4866 0200 00000000 		.word	.LANCHOR16
 4867 0204 00000000 		.word	.LANCHOR24
 4868 0208 00000000 		.word	.LANCHOR25
 4869 020c 00000000 		.word	.LANCHOR26
 4870 0210 00000000 		.word	.LANCHOR27
 4871 0214 CDCC4C3E 		.word	1045220557
ARM GAS  C:\Users\danst\AppData\Local\Temp\ccwBJjMd.s 			page 138


 4872 0218 00000000 		.word	.LANCHOR28
 4873 021c 00000000 		.word	.LANCHOR29
 4874 0220 00000000 		.word	.LANCHOR19
 4875 0224 00000000 		.word	.LANCHOR18
 4876 0228 00000000 		.word	.LANCHOR3
 4877 022c 00000000 		.word	.LANCHOR7
 4878 0230 3EC3AE37 		.word	934200126
 4879 0234 0000C842 		.word	1120403456
 4880 0238 00000000 		.word	.LANCHOR9
 4881 023c 00000000 		.word	.LANCHOR12
 4882 0240 00000000 		.word	.LANCHOR13
 4883 0244 00000000 		.word	combFilterBuffer
 4884 0248 00000000 		.word	.LANCHOR14
 4885 024c 00000000 		.word	.LANCHOR1
 4886 0250 00000000 		.word	.LANCHOR17
 4887 0254 00000000 		.word	.LANCHOR11
 4888 0258 00000000 		.word	.LANCHOR36
 4889 025c 00000000 		.word	_Z13AudioCallbackPKPKfPPfj
 4890 0260 00000000 		.word	.LANCHOR33
 4891 0264 00000000 		.word	.LANCHOR35
 4892 0268 00000000 		.word	.LANCHOR37
 4893 026c 00000000 		.word	.LANCHOR32
 4894 0270 00000000 		.word	.LANCHOR30
 4895              	.LVL374:
 4896              	.L189:
 335:takshaka.cpp  **** 	while( true ){
 336:takshaka.cpp  **** 		if( !debugMode ) handleMidi();
 337:takshaka.cpp  **** 		else midiNote = ROOT_MIDI_NOTE;
 4897              		.loc 16 337 17 view .LVU1323
 4898 0274 3023     		movs	r3, #48
 4899 0276 684A     		ldr	r2, .L204+8
 4900 0278 1360     		str	r3, [r2]
 4901              	.L190:
 338:takshaka.cpp  **** 		midiFreq = mtof( midiNote );
 4902              		.loc 16 338 3 is_stmt 1 view .LVU1324
 4903              	.LVL375:
 4904              	.LBB1104:
 4905              	.LBI1104:
 123:../../DaisySP//Source/Utility/dsp.h **** {
 4906              		.loc 17 123 14 view .LVU1325
 4907              	.LBB1105:
 125:../../DaisySP//Source/Utility/dsp.h **** }
 4908              		.loc 17 125 5 view .LVU1326
 125:../../DaisySP//Source/Utility/dsp.h **** }
 4909              		.loc 17 125 16 is_stmt 0 view .LVU1327
 4910 027a B0EE000A 		vmov.f32	s0, #2.0e+0
 4911 027e FFF7FEFF 		bl	powf
 4912              	.LVL376:
 125:../../DaisySP//Source/Utility/dsp.h **** }
 4913              		.loc 17 125 43 view .LVU1328
 4914 0282 DFED667A 		vldr.32	s15, .L204+12
 4915              	.LBE1105:
 4916              	.LBE1104:
 339:takshaka.cpp  **** 		modeSwitch.Debounce();
 4917              		.loc 16 339 22 view .LVU1329
 4918 0286 6648     		ldr	r0, .L204+16
 4919              	.LBB1109:
ARM GAS  C:\Users\danst\AppData\Local\Temp\ccwBJjMd.s 			page 139


 4920              	.LBB1106:
 125:../../DaisySP//Source/Utility/dsp.h **** }
 4921              		.loc 17 125 43 view .LVU1330
 4922 0288 20EE270A 		vmul.f32	s0, s0, s15
 4923              	.LBE1106:
 4924              	.LBE1109:
 338:takshaka.cpp  **** 		modeSwitch.Debounce();
 4925              		.loc 16 338 12 view .LVU1331
 4926 028c 84ED000A 		vstr.32	s0, [r4]
 4927              		.loc 16 339 3 is_stmt 1 view .LVU1332
 4928              		.loc 16 339 22 is_stmt 0 view .LVU1333
 4929 0290 FFF7FEFF 		bl	_ZN5daisy6Switch8DebounceEv
 4930              	.LVL377:
 340:takshaka.cpp  **** 		operationMode = !modeSwitch.Pressed();		
 4931              		.loc 16 340 3 is_stmt 1 view .LVU1334
 4932              	.LBB1110:
 4933              	.LBI1110:
  43:../../libDaisy//src/hid/switch.h **** 
  44:../../libDaisy//src/hid/switch.h ****     /** 
  45:../../libDaisy//src/hid/switch.h ****     Initializes the switch object with a given port/pin combo.
  46:../../libDaisy//src/hid/switch.h ****     \param pin port/pin object to tell the switch which hardware pin to use.
  47:../../libDaisy//src/hid/switch.h ****     \param update_rate Does nothing. Backwards compatibility until next breaking update.
  48:../../libDaisy//src/hid/switch.h ****     \param t switch type -- Default: TYPE_MOMENTARY
  49:../../libDaisy//src/hid/switch.h ****     \param pol switch polarity -- Default: POLARITY_INVERTED
  50:../../libDaisy//src/hid/switch.h ****     \param pu switch pull up/down -- Default: PULL_UP
  51:../../libDaisy//src/hid/switch.h ****     */
  52:../../libDaisy//src/hid/switch.h ****     void
  53:../../libDaisy//src/hid/switch.h ****     Init(dsy_gpio_pin pin, float update_rate, Type t, Polarity pol, Pull pu);
  54:../../libDaisy//src/hid/switch.h **** 
  55:../../libDaisy//src/hid/switch.h ****     /**
  56:../../libDaisy//src/hid/switch.h ****        Simplified Init.
  57:../../libDaisy//src/hid/switch.h ****        \param pin port/pin object to tell the switch which hardware pin to use.
  58:../../libDaisy//src/hid/switch.h ****        \param update_rate Left for backwards compatibility until next breaking change.
  59:../../libDaisy//src/hid/switch.h ****     */
  60:../../libDaisy//src/hid/switch.h ****     void Init(dsy_gpio_pin pin, float update_rate = 0.f);
  61:../../libDaisy//src/hid/switch.h **** 
  62:../../libDaisy//src/hid/switch.h ****     /** 
  63:../../libDaisy//src/hid/switch.h ****     Called at update_rate to debounce and handle timing for the switch.
  64:../../libDaisy//src/hid/switch.h ****     In order for events not to be missed, its important that the Edge/Pressed checks
  65:../../libDaisy//src/hid/switch.h ****     be made at the same rate as the debounce function is being called.
  66:../../libDaisy//src/hid/switch.h ****     */
  67:../../libDaisy//src/hid/switch.h ****     void Debounce();
  68:../../libDaisy//src/hid/switch.h **** 
  69:../../libDaisy//src/hid/switch.h ****     /** \return true if a button was just pressed. */
  70:../../libDaisy//src/hid/switch.h ****     inline bool RisingEdge() const { return updated_ ? state_ == 0x7f : false; }
  71:../../libDaisy//src/hid/switch.h **** 
  72:../../libDaisy//src/hid/switch.h ****     /** \return true if the button was just released */
  73:../../libDaisy//src/hid/switch.h ****     inline bool FallingEdge() const
  74:../../libDaisy//src/hid/switch.h ****     {
  75:../../libDaisy//src/hid/switch.h ****         return updated_ ? state_ == 0x80 : false;
  76:../../libDaisy//src/hid/switch.h ****     }
  77:../../libDaisy//src/hid/switch.h **** 
  78:../../libDaisy//src/hid/switch.h ****     /** \return true if the button is held down (or if the toggle is on) */
  79:../../libDaisy//src/hid/switch.h ****     inline bool Pressed() const { return state_ == 0xff; }
 4934              		.loc 1 79 17 view .LVU1335
 4935              	.LBB1111:
 4936              		.loc 1 79 35 view .LVU1336
ARM GAS  C:\Users\danst\AppData\Local\Temp\ccwBJjMd.s 			page 140


 4937              		.loc 1 79 35 is_stmt 0 view .LVU1337
 4938              	.LBE1111:
 4939              	.LBE1110:
 341:takshaka.cpp  **** 		// IF THE OPERATING MODE CHANGED, CHANGE MODE ON THE SMART KNOBS
 342:takshaka.cpp  **** 		if( operationMode != lastOperationMode ) handleSmartKnobSwitching();
 4940              		.loc 16 342 44 is_stmt 1 view .LVU1338
 340:takshaka.cpp  **** 		// IF THE OPERATING MODE CHANGED, CHANGE MODE ON THE SMART KNOBS
 4941              		.loc 16 340 19 is_stmt 0 view .LVU1339
 4942 0294 624B     		ldr	r3, .L204+16
 4943              		.loc 16 342 21 view .LVU1340
 4944 0296 99F80020 		ldrb	r2, [r9]	@ zero_extendqisi2
 340:takshaka.cpp  **** 		// IF THE OPERATING MODE CHANGED, CHANGE MODE ON THE SMART KNOBS
 4945              		.loc 16 340 19 view .LVU1341
 4946 029a 9B7A     		ldrb	r3, [r3, #10]	@ zero_extendqisi2
 4947 029c FF3B     		subs	r3, r3, #255
 4948 029e 18BF     		it	ne
 4949 02a0 0123     		movne	r3, #1
 4950              		.loc 16 342 3 view .LVU1342
 4951 02a2 9342     		cmp	r3, r2
 340:takshaka.cpp  **** 		// IF THE OPERATING MODE CHANGED, CHANGE MODE ON THE SMART KNOBS
 4952              		.loc 16 340 17 view .LVU1343
 4953 02a4 2B70     		strb	r3, [r5]
 4954              		.loc 16 342 3 is_stmt 1 view .LVU1344
 4955 02a6 02D0     		beq	.L191
 4956              		.loc 16 342 68 is_stmt 0 discriminator 1 view .LVU1345
 4957 02a8 FFF7FEFF 		bl	_Z24handleSmartKnobSwitchingv
 4958              	.LVL378:
 343:takshaka.cpp  **** 		lastOperationMode = operationMode;
 4959              		.loc 16 343 21 discriminator 1 view .LVU1346
 4960 02ac 2A78     		ldrb	r2, [r5]	@ zero_extendqisi2
 4961              	.L191:
 4962              		.loc 16 343 3 is_stmt 1 view .LVU1347
 4963              		.loc 16 343 21 is_stmt 0 view .LVU1348
 4964 02ae 89F80020 		strb	r2, [r9]
 344:takshaka.cpp  **** 		handleKnobs();
 4965              		.loc 16 344 3 is_stmt 1 view .LVU1349
 4966              		.loc 16 344 14 is_stmt 0 view .LVU1350
 4967 02b2 FFF7FEFF 		bl	_Z11handleKnobsv
 4968              	.LVL379:
 345:takshaka.cpp  **** 		updateSuperSaw();
 4969              		.loc 16 345 3 is_stmt 1 view .LVU1351
 4970              	.LBB1112:
 4971              	.LBI1112:
 263:takshaka.cpp  **** 	superSaw.SetFreq( midiFreq );
 4972              		.loc 16 263 6 view .LVU1352
 4973              	.LBB1113:
 264:takshaka.cpp  **** 	superSaw.SetShift( shiftValue );
 4974              		.loc 16 264 2 view .LVU1353
 264:takshaka.cpp  **** 	superSaw.SetShift( shiftValue );
 4975              		.loc 16 264 18 is_stmt 0 view .LVU1354
 4976 02b6 94ED000A 		vldr.32	s0, [r4]
 4977 02ba 5A48     		ldr	r0, .L204+20
 4978 02bc FFF7FEFF 		bl	_ZN7daisysp11SuperSawOsc7SetFreqEf
 4979              	.LVL380:
 265:takshaka.cpp  **** }
 4980              		.loc 16 265 2 is_stmt 1 view .LVU1355
 265:takshaka.cpp  **** }
ARM GAS  C:\Users\danst\AppData\Local\Temp\ccwBJjMd.s 			page 141


 4981              		.loc 16 265 19 is_stmt 0 view .LVU1356
 4982 02c0 594B     		ldr	r3, .L204+24
 4983 02c2 5848     		ldr	r0, .L204+20
 4984 02c4 93ED000A 		vldr.32	s0, [r3]
 4985 02c8 FFF7FEFF 		bl	_ZN7daisysp11SuperSawOsc8SetShiftEf
 4986              	.LVL381:
 4987              	.LBE1113:
 4988              	.LBE1112:
 346:takshaka.cpp  **** 		updateSubOsc();
 4989              		.loc 16 346 3 is_stmt 1 view .LVU1357
 4990              	.LBB1114:
 4991              	.LBI1114:
 267:takshaka.cpp  **** 	subOsc.SetFreq( midiFreq / ( subOscOctave + 1 ) );
 4992              		.loc 16 267 6 view .LVU1358
 4993              	.LBB1115:
 268:takshaka.cpp  **** }
 4994              		.loc 16 268 2 view .LVU1359
 268:takshaka.cpp  **** }
 4995              		.loc 16 268 44 is_stmt 0 view .LVU1360
 4996 02cc DBF80030 		ldr	r3, [fp]
 268:takshaka.cpp  **** }
 4997              		.loc 16 268 16 view .LVU1361
 4998 02d0 94ED007A 		vldr.32	s14, [r4]
 268:takshaka.cpp  **** }
 4999              		.loc 16 268 44 view .LVU1362
 5000 02d4 0133     		adds	r3, r3, #1
 5001              	.LBB1116:
 5002              	.LBB1117:
  61:../../DaisySP//Source/Synthesis/oscillator.h ****     }
 5003              		.loc 8 61 34 view .LVU1363
 5004 02d6 5548     		ldr	r0, .L204+28
 5005              	.LBE1117:
 5006              	.LBE1116:
 268:takshaka.cpp  **** }
 5007              		.loc 16 268 16 view .LVU1364
 5008 02d8 07EE903A 		vmov	s15, r3	@ int
 5009 02dc F8EEE77A 		vcvt.f32.s32	s15, s15
 5010 02e0 87EE270A 		vdiv.f32	s0, s14, s15
 5011              	.LVL382:
 5012              	.LBB1120:
 5013              	.LBI1116:
  58:../../DaisySP//Source/Synthesis/oscillator.h ****     {
 5014              		.loc 8 58 17 is_stmt 1 view .LVU1365
 5015              	.LBB1118:
  60:../../DaisySP//Source/Synthesis/oscillator.h ****         phase_inc_ = CalcPhaseInc(f);
 5016              		.loc 8 60 9 view .LVU1366
  60:../../DaisySP//Source/Synthesis/oscillator.h ****         phase_inc_ = CalcPhaseInc(f);
 5017              		.loc 8 60 20 is_stmt 0 view .LVU1367
 5018 02e4 87ED020A 		vstr.32	s0, [r7, #8]
  61:../../DaisySP//Source/Synthesis/oscillator.h ****     }
 5019              		.loc 8 61 9 is_stmt 1 view .LVU1368
  61:../../DaisySP//Source/Synthesis/oscillator.h ****     }
 5020              		.loc 8 61 34 is_stmt 0 view .LVU1369
 5021 02e8 FFF7FEFF 		bl	_ZN7daisysp10Oscillator12CalcPhaseIncEf
 5022              	.LVL383:
  61:../../DaisySP//Source/Synthesis/oscillator.h ****     }
 5023              		.loc 8 61 34 view .LVU1370
ARM GAS  C:\Users\danst\AppData\Local\Temp\ccwBJjMd.s 			page 142


 5024              	.LBE1118:
 5025              	.LBE1120:
 5026              	.LBE1115:
 5027              	.LBE1114:
 5028              	.LBB1123:
 5029              	.LBB1124:
 5030              	.LBB1125:
 5031              	.LBB1126:
 5032              		.loc 17 173 31 view .LVU1371
 5033 02ec F5EE007A 		vmov.f32	s15, #2.5e-1
 5034              	.LBE1126:
 5035              	.LBE1125:
 5036              	.LBE1124:
 5037              	.LBE1123:
 5038              	.LBB1146:
 5039              	.LBB1122:
 5040              	.LBB1121:
 5041              	.LBB1119:
  61:../../DaisySP//Source/Synthesis/oscillator.h ****     }
 5042              		.loc 8 61 20 view .LVU1372
 5043 02f0 87ED060A 		vstr.32	s0, [r7, #24]
 5044              	.LVL384:
  61:../../DaisySP//Source/Synthesis/oscillator.h ****     }
 5045              		.loc 8 61 20 view .LVU1373
 5046              	.LBE1119:
 5047              	.LBE1121:
 5048              	.LBE1122:
 5049              	.LBE1146:
 347:takshaka.cpp  **** 		updateDistortion();
 5050              		.loc 16 347 3 is_stmt 1 view .LVU1374
 5051              	.LBB1147:
 5052              	.LBI1123:
 270:takshaka.cpp  **** 	distortion.SetDrive( fmap( driveValue, 0.25, 0.9 ) );
 5053              		.loc 16 270 6 view .LVU1375
 5054              	.LBB1143:
 271:takshaka.cpp  **** }
 5055              		.loc 16 271 2 view .LVU1376
 5056              	.LBB1139:
 5057              	.LBI1125:
 161:../../DaisySP//Source/Utility/dsp.h **** {
 5058              		.loc 17 161 1 view .LVU1377
 5059              	.LBE1139:
 5060              	.LBE1143:
 5061              	.LBE1147:
 163:../../DaisySP//Source/Utility/dsp.h ****     {
 5062              		.loc 17 163 5 view .LVU1378
 5063              	.LBB1148:
 5064              	.LBB1144:
 5065              	.LBB1140:
 5066              	.LBB1136:
 172:../../DaisySP//Source/Utility/dsp.h ****         default: return fclamp(min + in * (max - min), min, max);
 5067              		.loc 17 172 9 view .LVU1379
 5068              		.loc 17 173 9 view .LVU1380
 5069              		.loc 17 173 18 view .LVU1381
 5070              		.loc 17 173 31 is_stmt 0 view .LVU1382
 5071 02f4 9AED006A 		vldr.32	s12, [r10]
 5072 02f8 DFED4D6A 		vldr.32	s13, .L204+32
ARM GAS  C:\Users\danst\AppData\Local\Temp\ccwBJjMd.s 			page 143


 5073 02fc B0EE670A 		vmov.f32	s0, s15
 5074              	.LBB1127:
 5075              	.LBB1128:
 5076              	.LBB1129:
  47:../../DaisySP//Source/Utility/dsp.h **** #else
 5077              		.loc 17 47 5 view .LVU1383
 5078 0300 9FED4C7A 		vldr.32	s14, .L204+36
 5079              	.LBE1129:
 5080              	.LBE1128:
 5081              	.LBE1127:
 5082              	.LBE1136:
 5083              	.LBE1140:
 271:takshaka.cpp  **** }
 5084              		.loc 16 271 21 view .LVU1384
 5085 0304 4C48     		ldr	r0, .L204+40
 5086              	.LBB1141:
 5087              	.LBB1137:
 5088              		.loc 17 173 31 view .LVU1385
 5089 0306 A6EE260A 		vfma.f32	s0, s12, s13
 5090              	.LVL385:
 5091              	.LBB1134:
 5092              	.LBI1127:
  56:../../DaisySP//Source/Utility/dsp.h **** {
 5093              		.loc 17 56 14 is_stmt 1 view .LVU1386
 5094              	.LBE1134:
 5095              	.LBE1137:
 5096              	.LBE1141:
 5097              	.LBE1144:
 5098              	.LBE1148:
  58:../../DaisySP//Source/Utility/dsp.h **** }
 5099              		.loc 17 58 5 view .LVU1387
 5100              	.LBB1149:
 5101              	.LBB1145:
 5102              	.LBB1142:
 5103              	.LBB1138:
 5104              	.LBB1135:
 5105              	.LBB1131:
 5106              	.LBI1131:
  32:../../DaisySP//Source/Utility/dsp.h **** {
 5107              		.loc 17 32 14 view .LVU1388
 5108              	.LBB1132:
  34:../../DaisySP//Source/Utility/dsp.h **** #ifdef __arm__
 5109              		.loc 17 34 5 view .LVU1389
  36:../../DaisySP//Source/Utility/dsp.h **** #else
 5110              		.loc 17 36 5 view .LVU1390
 5111              		.syntax unified
 5112              	@ 36 "../../DaisySP//Source/Utility/dsp.h" 1
 5113 030a 80FE270A 		vmaxnm.f32 s0, s0, s15
 5114              	@ 0 "" 2
 5115              	.LVL386:
  40:../../DaisySP//Source/Utility/dsp.h **** }
 5116              		.loc 17 40 5 view .LVU1391
  40:../../DaisySP//Source/Utility/dsp.h **** }
 5117              		.loc 17 40 5 is_stmt 0 view .LVU1392
 5118              		.thumb
 5119              		.syntax unified
 5120              	.LBE1132:
ARM GAS  C:\Users\danst\AppData\Local\Temp\ccwBJjMd.s 			page 144


 5121              	.LBE1131:
 5122              	.LBB1133:
 5123              	.LBI1128:
  43:../../DaisySP//Source/Utility/dsp.h **** {
 5124              		.loc 17 43 14 is_stmt 1 view .LVU1393
 5125              	.LBB1130:
  45:../../DaisySP//Source/Utility/dsp.h **** #ifdef __arm__
 5126              		.loc 17 45 5 view .LVU1394
  47:../../DaisySP//Source/Utility/dsp.h **** #else
 5127              		.loc 17 47 5 view .LVU1395
 5128              		.syntax unified
 5129              	@ 47 "../../DaisySP//Source/Utility/dsp.h" 1
 5130 030e 80FE470A 		vminnm.f32 s0, s0, s14
 5131              	@ 0 "" 2
 5132              	.LVL387:
  51:../../DaisySP//Source/Utility/dsp.h **** }
 5133              		.loc 17 51 5 view .LVU1396
  51:../../DaisySP//Source/Utility/dsp.h **** }
 5134              		.loc 17 51 5 is_stmt 0 view .LVU1397
 5135              		.thumb
 5136              		.syntax unified
 5137              	.LBE1130:
 5138              	.LBE1133:
 5139              	.LBE1135:
 5140              	.LBE1138:
 5141              	.LBE1142:
 271:takshaka.cpp  **** }
 5142              		.loc 16 271 21 view .LVU1398
 5143 0312 FFF7FEFF 		bl	_ZN7daisysp9Overdrive8SetDriveEf
 5144              	.LVL388:
 5145              	.LBE1145:
 5146              	.LBE1149:
 348:takshaka.cpp  **** 		updateFilters();
 5147              		.loc 16 348 3 is_stmt 1 view .LVU1399
 5148              		.loc 16 348 16 is_stmt 0 view .LVU1400
 5149 0316 FFF7FEFF 		bl	_Z13updateFiltersv
 5150              	.LVL389:
 349:takshaka.cpp  **** 		updatePounce();
 5151              		.loc 16 349 3 is_stmt 1 view .LVU1401
 5152              		.loc 16 349 15 is_stmt 0 view .LVU1402
 5153 031a FFF7FEFF 		bl	_Z12updatePouncev
 5154              	.LVL390:
 350:takshaka.cpp  **** 		updateAmpEnv();
 5155              		.loc 16 350 3 is_stmt 1 view .LVU1403
 5156              		.loc 16 350 15 is_stmt 0 view .LVU1404
 5157 031e FFF7FEFF 		bl	_Z12updateAmpEnvv
 5158              	.LVL391:
 351:takshaka.cpp  **** 		updateSubOscWave();
 5159              		.loc 16 351 3 is_stmt 1 view .LVU1405
 5160              		.loc 16 351 19 is_stmt 0 view .LVU1406
 5161 0322 FFF7FEFF 		bl	_Z16updateSubOscWavev
 5162              	.LVL392:
 352:takshaka.cpp  **** 		hw.SetLed( !operationMode ); // LIGHT THE LED WHEN IN ALT MODE
 5163              		.loc 16 352 3 is_stmt 1 view .LVU1407
 5164              		.loc 16 352 12 is_stmt 0 view .LVU1408
 5165 0326 2978     		ldrb	r1, [r5]	@ zero_extendqisi2
 5166 0328 4448     		ldr	r0, .L204+44
ARM GAS  C:\Users\danst\AppData\Local\Temp\ccwBJjMd.s 			page 145


 5167 032a 81F00101 		eor	r1, r1, #1
 5168 032e FFF7FEFF 		bl	_ZN5daisy9DaisySeed6SetLedEb
 5169              	.LVL393:
 353:takshaka.cpp  **** 		if( debugMode ){
 5170              		.loc 16 353 3 is_stmt 1 view .LVU1409
 354:takshaka.cpp  **** 			debugCount++;
 5171              		.loc 16 354 4 view .LVU1410
 353:takshaka.cpp  **** 		if( debugMode ){
 5172              		.loc 16 353 3 is_stmt 0 view .LVU1411
 5173 0332 98F80030 		ldrb	r3, [r8]	@ zero_extendqisi2
 5174 0336 002B     		cmp	r3, #0
 5175 0338 47D0     		beq	.L192
 355:takshaka.cpp  **** 			if( debugCount >= 500 ){	
 356:takshaka.cpp  **** 				// REPORT STUFF
 357:takshaka.cpp  **** 				hw.Print( FLT_FMT3, FLT_VAR3( slitherValue ) );
 5176              		.loc 16 357 5 is_stmt 1 view .LVU1412
 5177              	.LVL394:
 5178              	.LBB1150:
 5179              	.LBI1150:
 5180              		.file 21 "c:\\users\\danst\\documents\\daisytoolchain-0.3.3\\windows\\arm-none-eabi\\include\\c++\
   1:c:\users\danst\documents\daisytoolchain-0.3.3\windows\arm-none-eabi\include\c++\10.2.1\bits\std_abs.h **** // -*- C++ -*- C library enhancements header.
   2:c:\users\danst\documents\daisytoolchain-0.3.3\windows\arm-none-eabi\include\c++\10.2.1\bits\std_abs.h **** 
   3:c:\users\danst\documents\daisytoolchain-0.3.3\windows\arm-none-eabi\include\c++\10.2.1\bits\std_abs.h **** // Copyright (C) 2016-2020 Free Software Foundation, Inc.
   4:c:\users\danst\documents\daisytoolchain-0.3.3\windows\arm-none-eabi\include\c++\10.2.1\bits\std_abs.h **** //
   5:c:\users\danst\documents\daisytoolchain-0.3.3\windows\arm-none-eabi\include\c++\10.2.1\bits\std_abs.h **** // This file is part of the GNU ISO C++ Library.  This library is free
   6:c:\users\danst\documents\daisytoolchain-0.3.3\windows\arm-none-eabi\include\c++\10.2.1\bits\std_abs.h **** // software; you can redistribute it and/or modify it under the
   7:c:\users\danst\documents\daisytoolchain-0.3.3\windows\arm-none-eabi\include\c++\10.2.1\bits\std_abs.h **** // terms of the GNU General Public License as published by the
   8:c:\users\danst\documents\daisytoolchain-0.3.3\windows\arm-none-eabi\include\c++\10.2.1\bits\std_abs.h **** // Free Software Foundation; either version 3, or (at your option)
   9:c:\users\danst\documents\daisytoolchain-0.3.3\windows\arm-none-eabi\include\c++\10.2.1\bits\std_abs.h **** // any later version.
  10:c:\users\danst\documents\daisytoolchain-0.3.3\windows\arm-none-eabi\include\c++\10.2.1\bits\std_abs.h **** 
  11:c:\users\danst\documents\daisytoolchain-0.3.3\windows\arm-none-eabi\include\c++\10.2.1\bits\std_abs.h **** // This library is distributed in the hope that it will be useful,
  12:c:\users\danst\documents\daisytoolchain-0.3.3\windows\arm-none-eabi\include\c++\10.2.1\bits\std_abs.h **** // but WITHOUT ANY WARRANTY; without even the implied warranty of
  13:c:\users\danst\documents\daisytoolchain-0.3.3\windows\arm-none-eabi\include\c++\10.2.1\bits\std_abs.h **** // MERCHANTABILITY or FITNESS FOR A PARTICULAR PURPOSE.  See the
  14:c:\users\danst\documents\daisytoolchain-0.3.3\windows\arm-none-eabi\include\c++\10.2.1\bits\std_abs.h **** // GNU General Public License for more details.
  15:c:\users\danst\documents\daisytoolchain-0.3.3\windows\arm-none-eabi\include\c++\10.2.1\bits\std_abs.h **** 
  16:c:\users\danst\documents\daisytoolchain-0.3.3\windows\arm-none-eabi\include\c++\10.2.1\bits\std_abs.h **** // Under Section 7 of GPL version 3, you are granted additional
  17:c:\users\danst\documents\daisytoolchain-0.3.3\windows\arm-none-eabi\include\c++\10.2.1\bits\std_abs.h **** // permissions described in the GCC Runtime Library Exception, version
  18:c:\users\danst\documents\daisytoolchain-0.3.3\windows\arm-none-eabi\include\c++\10.2.1\bits\std_abs.h **** // 3.1, as published by the Free Software Foundation.
  19:c:\users\danst\documents\daisytoolchain-0.3.3\windows\arm-none-eabi\include\c++\10.2.1\bits\std_abs.h **** 
  20:c:\users\danst\documents\daisytoolchain-0.3.3\windows\arm-none-eabi\include\c++\10.2.1\bits\std_abs.h **** // You should have received a copy of the GNU General Public License and
  21:c:\users\danst\documents\daisytoolchain-0.3.3\windows\arm-none-eabi\include\c++\10.2.1\bits\std_abs.h **** // a copy of the GCC Runtime Library Exception along with this program;
  22:c:\users\danst\documents\daisytoolchain-0.3.3\windows\arm-none-eabi\include\c++\10.2.1\bits\std_abs.h **** // see the files COPYING3 and COPYING.RUNTIME respectively.  If not, see
  23:c:\users\danst\documents\daisytoolchain-0.3.3\windows\arm-none-eabi\include\c++\10.2.1\bits\std_abs.h **** // <http://www.gnu.org/licenses/>.
  24:c:\users\danst\documents\daisytoolchain-0.3.3\windows\arm-none-eabi\include\c++\10.2.1\bits\std_abs.h **** 
  25:c:\users\danst\documents\daisytoolchain-0.3.3\windows\arm-none-eabi\include\c++\10.2.1\bits\std_abs.h **** /** @file include/bits/std_abs.h
  26:c:\users\danst\documents\daisytoolchain-0.3.3\windows\arm-none-eabi\include\c++\10.2.1\bits\std_abs.h ****  *  This is an internal header file, included by other library headers.
  27:c:\users\danst\documents\daisytoolchain-0.3.3\windows\arm-none-eabi\include\c++\10.2.1\bits\std_abs.h ****  *  Do not attempt to use it directly. @headername{cmath, cstdlib}
  28:c:\users\danst\documents\daisytoolchain-0.3.3\windows\arm-none-eabi\include\c++\10.2.1\bits\std_abs.h ****  */
  29:c:\users\danst\documents\daisytoolchain-0.3.3\windows\arm-none-eabi\include\c++\10.2.1\bits\std_abs.h **** 
  30:c:\users\danst\documents\daisytoolchain-0.3.3\windows\arm-none-eabi\include\c++\10.2.1\bits\std_abs.h **** #ifndef _GLIBCXX_BITS_STD_ABS_H
  31:c:\users\danst\documents\daisytoolchain-0.3.3\windows\arm-none-eabi\include\c++\10.2.1\bits\std_abs.h **** #define _GLIBCXX_BITS_STD_ABS_H
  32:c:\users\danst\documents\daisytoolchain-0.3.3\windows\arm-none-eabi\include\c++\10.2.1\bits\std_abs.h **** 
  33:c:\users\danst\documents\daisytoolchain-0.3.3\windows\arm-none-eabi\include\c++\10.2.1\bits\std_abs.h **** #pragma GCC system_header
  34:c:\users\danst\documents\daisytoolchain-0.3.3\windows\arm-none-eabi\include\c++\10.2.1\bits\std_abs.h **** 
  35:c:\users\danst\documents\daisytoolchain-0.3.3\windows\arm-none-eabi\include\c++\10.2.1\bits\std_abs.h **** #include <bits/c++config.h>
  36:c:\users\danst\documents\daisytoolchain-0.3.3\windows\arm-none-eabi\include\c++\10.2.1\bits\std_abs.h **** 
  37:c:\users\danst\documents\daisytoolchain-0.3.3\windows\arm-none-eabi\include\c++\10.2.1\bits\std_abs.h **** #define _GLIBCXX_INCLUDE_NEXT_C_HEADERS
ARM GAS  C:\Users\danst\AppData\Local\Temp\ccwBJjMd.s 			page 146


  38:c:\users\danst\documents\daisytoolchain-0.3.3\windows\arm-none-eabi\include\c++\10.2.1\bits\std_abs.h **** #include_next <stdlib.h>
  39:c:\users\danst\documents\daisytoolchain-0.3.3\windows\arm-none-eabi\include\c++\10.2.1\bits\std_abs.h **** #ifdef __CORRECT_ISO_CPP_MATH_H_PROTO
  40:c:\users\danst\documents\daisytoolchain-0.3.3\windows\arm-none-eabi\include\c++\10.2.1\bits\std_abs.h **** # include_next <math.h>
  41:c:\users\danst\documents\daisytoolchain-0.3.3\windows\arm-none-eabi\include\c++\10.2.1\bits\std_abs.h **** #endif
  42:c:\users\danst\documents\daisytoolchain-0.3.3\windows\arm-none-eabi\include\c++\10.2.1\bits\std_abs.h **** #undef _GLIBCXX_INCLUDE_NEXT_C_HEADERS
  43:c:\users\danst\documents\daisytoolchain-0.3.3\windows\arm-none-eabi\include\c++\10.2.1\bits\std_abs.h **** 
  44:c:\users\danst\documents\daisytoolchain-0.3.3\windows\arm-none-eabi\include\c++\10.2.1\bits\std_abs.h **** #undef abs
  45:c:\users\danst\documents\daisytoolchain-0.3.3\windows\arm-none-eabi\include\c++\10.2.1\bits\std_abs.h **** 
  46:c:\users\danst\documents\daisytoolchain-0.3.3\windows\arm-none-eabi\include\c++\10.2.1\bits\std_abs.h **** extern "C++"
  47:c:\users\danst\documents\daisytoolchain-0.3.3\windows\arm-none-eabi\include\c++\10.2.1\bits\std_abs.h **** {
  48:c:\users\danst\documents\daisytoolchain-0.3.3\windows\arm-none-eabi\include\c++\10.2.1\bits\std_abs.h **** namespace std _GLIBCXX_VISIBILITY(default)
  49:c:\users\danst\documents\daisytoolchain-0.3.3\windows\arm-none-eabi\include\c++\10.2.1\bits\std_abs.h **** {
  50:c:\users\danst\documents\daisytoolchain-0.3.3\windows\arm-none-eabi\include\c++\10.2.1\bits\std_abs.h **** _GLIBCXX_BEGIN_NAMESPACE_VERSION
  51:c:\users\danst\documents\daisytoolchain-0.3.3\windows\arm-none-eabi\include\c++\10.2.1\bits\std_abs.h **** 
  52:c:\users\danst\documents\daisytoolchain-0.3.3\windows\arm-none-eabi\include\c++\10.2.1\bits\std_abs.h ****   using ::abs;
  53:c:\users\danst\documents\daisytoolchain-0.3.3\windows\arm-none-eabi\include\c++\10.2.1\bits\std_abs.h **** 
  54:c:\users\danst\documents\daisytoolchain-0.3.3\windows\arm-none-eabi\include\c++\10.2.1\bits\std_abs.h **** #ifndef __CORRECT_ISO_CPP_STDLIB_H_PROTO
  55:c:\users\danst\documents\daisytoolchain-0.3.3\windows\arm-none-eabi\include\c++\10.2.1\bits\std_abs.h ****   inline long
  56:c:\users\danst\documents\daisytoolchain-0.3.3\windows\arm-none-eabi\include\c++\10.2.1\bits\std_abs.h ****   abs(long __i) { return __builtin_labs(__i); }
  57:c:\users\danst\documents\daisytoolchain-0.3.3\windows\arm-none-eabi\include\c++\10.2.1\bits\std_abs.h **** #endif
  58:c:\users\danst\documents\daisytoolchain-0.3.3\windows\arm-none-eabi\include\c++\10.2.1\bits\std_abs.h **** 
  59:c:\users\danst\documents\daisytoolchain-0.3.3\windows\arm-none-eabi\include\c++\10.2.1\bits\std_abs.h **** #ifdef _GLIBCXX_USE_LONG_LONG
  60:c:\users\danst\documents\daisytoolchain-0.3.3\windows\arm-none-eabi\include\c++\10.2.1\bits\std_abs.h ****   inline long long
  61:c:\users\danst\documents\daisytoolchain-0.3.3\windows\arm-none-eabi\include\c++\10.2.1\bits\std_abs.h ****   abs(long long __x) { return __builtin_llabs (__x); }
  62:c:\users\danst\documents\daisytoolchain-0.3.3\windows\arm-none-eabi\include\c++\10.2.1\bits\std_abs.h **** #endif
  63:c:\users\danst\documents\daisytoolchain-0.3.3\windows\arm-none-eabi\include\c++\10.2.1\bits\std_abs.h **** 
  64:c:\users\danst\documents\daisytoolchain-0.3.3\windows\arm-none-eabi\include\c++\10.2.1\bits\std_abs.h **** // _GLIBCXX_RESOLVE_LIB_DEFECTS
  65:c:\users\danst\documents\daisytoolchain-0.3.3\windows\arm-none-eabi\include\c++\10.2.1\bits\std_abs.h **** // 2192. Validity and return type of std::abs(0u) is unclear
  66:c:\users\danst\documents\daisytoolchain-0.3.3\windows\arm-none-eabi\include\c++\10.2.1\bits\std_abs.h **** // 2294. <cstdlib> should declare abs(double)
  67:c:\users\danst\documents\daisytoolchain-0.3.3\windows\arm-none-eabi\include\c++\10.2.1\bits\std_abs.h **** // 2735. std::abs(short), std::abs(signed char) and others should return int
  68:c:\users\danst\documents\daisytoolchain-0.3.3\windows\arm-none-eabi\include\c++\10.2.1\bits\std_abs.h **** 
  69:c:\users\danst\documents\daisytoolchain-0.3.3\windows\arm-none-eabi\include\c++\10.2.1\bits\std_abs.h **** #ifndef __CORRECT_ISO_CPP_MATH_H_PROTO
  70:c:\users\danst\documents\daisytoolchain-0.3.3\windows\arm-none-eabi\include\c++\10.2.1\bits\std_abs.h ****   inline _GLIBCXX_CONSTEXPR double
  71:c:\users\danst\documents\daisytoolchain-0.3.3\windows\arm-none-eabi\include\c++\10.2.1\bits\std_abs.h ****   abs(double __x)
  72:c:\users\danst\documents\daisytoolchain-0.3.3\windows\arm-none-eabi\include\c++\10.2.1\bits\std_abs.h ****   { return __builtin_fabs(__x); }
  73:c:\users\danst\documents\daisytoolchain-0.3.3\windows\arm-none-eabi\include\c++\10.2.1\bits\std_abs.h **** 
  74:c:\users\danst\documents\daisytoolchain-0.3.3\windows\arm-none-eabi\include\c++\10.2.1\bits\std_abs.h ****   inline _GLIBCXX_CONSTEXPR float
  75:c:\users\danst\documents\daisytoolchain-0.3.3\windows\arm-none-eabi\include\c++\10.2.1\bits\std_abs.h ****   abs(float __x)
 5181              		.loc 21 75 3 view .LVU1413
 5182              	.LBB1151:
  76:c:\users\danst\documents\daisytoolchain-0.3.3\windows\arm-none-eabi\include\c++\10.2.1\bits\std_abs.h ****   { return __builtin_fabsf(__x); }
 5183              		.loc 21 76 5 view .LVU1414
 5184              	.LBE1151:
 5185              	.LBE1150:
 354:takshaka.cpp  **** 			if( debugCount >= 500 ){	
 5186              		.loc 16 354 14 is_stmt 0 view .LVU1415
 5187 033a 0136     		adds	r6, r6, #1
 5188              	.LVL395:
 355:takshaka.cpp  **** 				// REPORT STUFF
 5189              		.loc 16 355 4 is_stmt 1 view .LVU1416
 5190 033c B6F5FA7F 		cmp	r6, #500
 5191              		.loc 16 357 25 is_stmt 0 view .LVU1417
 5192 0340 9FED338B 		vldr.64	d8, .L204
 355:takshaka.cpp  **** 				// REPORT STUFF
 5193              		.loc 16 355 4 view .LVU1418
 5194 0344 41DB     		blt	.L192
 5195              		.loc 16 357 25 view .LVU1419
ARM GAS  C:\Users\danst\AppData\Local\Temp\ccwBJjMd.s 			page 147


 5196 0346 3E4B     		ldr	r3, .L204+48
 358:takshaka.cpp  **** 				hw.Print( " | " );
 359:takshaka.cpp  **** 				hw.PrintLine( FLT_FMT3, FLT_VAR3( slitherDriftModValue ) );
 360:takshaka.cpp  **** 				debugCount = 0;
 5197              		.loc 16 360 16 view .LVU1420
 5198 0348 0026     		movs	r6, #0
 5199              	.LVL396:
 5200              	.LBB1153:
 5201              	.LBB1154:
  23:../../libDaisy//src/daisy_seed.h **** 
  24:../../libDaisy//src/daisy_seed.h ****     /** This function used to provide a pre-initialization configuraiton 
  25:../../libDaisy//src/daisy_seed.h ****      *  it has since been deprecated, and does nothing.
  26:../../libDaisy//src/daisy_seed.h ****      */
  27:../../libDaisy//src/daisy_seed.h ****     void Configure();
  28:../../libDaisy//src/daisy_seed.h **** 
  29:../../libDaisy//src/daisy_seed.h ****     /** 
  30:../../libDaisy//src/daisy_seed.h ****     Initializes the Daisy Seed and the following peripherals:
  31:../../libDaisy//src/daisy_seed.h ****     SDRAM, QSPI, 24-bit 48kHz Audio via AK4556, Internal USB,
  32:../../libDaisy//src/daisy_seed.h ****     as well as the built-in LED and Testpoint.
  33:../../libDaisy//src/daisy_seed.h **** 
  34:../../libDaisy//src/daisy_seed.h ****     ADCs, DACs, and other special peripherals (such as I2C, SPI, etc.)
  35:../../libDaisy//src/daisy_seed.h ****     can be initialized using their specific initializers within libdaisy
  36:../../libDaisy//src/daisy_seed.h ****     for a specific application.
  37:../../libDaisy//src/daisy_seed.h ****     */
  38:../../libDaisy//src/daisy_seed.h ****     void Init(bool boost = false);
  39:../../libDaisy//src/daisy_seed.h **** 
  40:../../libDaisy//src/daisy_seed.h ****     /** 
  41:../../libDaisy//src/daisy_seed.h ****     Deinitializes all peripherals automatically handled by `Init`.
  42:../../libDaisy//src/daisy_seed.h ****     */
  43:../../libDaisy//src/daisy_seed.h ****     void DeInit();
  44:../../libDaisy//src/daisy_seed.h **** 
  45:../../libDaisy//src/daisy_seed.h ****     /** 
  46:../../libDaisy//src/daisy_seed.h ****     Wait some ms before going on.
  47:../../libDaisy//src/daisy_seed.h ****     \param del Delay time in ms.
  48:../../libDaisy//src/daisy_seed.h ****     */
  49:../../libDaisy//src/daisy_seed.h ****     void DelayMs(size_t del);
  50:../../libDaisy//src/daisy_seed.h **** 
  51:../../libDaisy//src/daisy_seed.h ****     /** 
  52:../../libDaisy//src/daisy_seed.h ****     Returns the gpio_pin corresponding to the index 0-31.
  53:../../libDaisy//src/daisy_seed.h ****     For the given GPIO on the Daisy Seed (labeled 1-32 in docs).
  54:../../libDaisy//src/daisy_seed.h ****     */
  55:../../libDaisy//src/daisy_seed.h ****     static dsy_gpio_pin GetPin(uint8_t pin_idx);
  56:../../libDaisy//src/daisy_seed.h **** 
  57:../../libDaisy//src/daisy_seed.h ****     /** Begins the audio for the seeds builtin audio.
  58:../../libDaisy//src/daisy_seed.h ****     the specified callback will get called whenever
  59:../../libDaisy//src/daisy_seed.h ****     new data is ready to be prepared.
  60:../../libDaisy//src/daisy_seed.h ****     */
  61:../../libDaisy//src/daisy_seed.h ****     void StartAudio(AudioHandle::InterleavingAudioCallback cb);
  62:../../libDaisy//src/daisy_seed.h **** 
  63:../../libDaisy//src/daisy_seed.h ****     /** Begins the audio for the seeds builtin audio.
  64:../../libDaisy//src/daisy_seed.h ****     the specified callback will get called whenever
  65:../../libDaisy//src/daisy_seed.h ****     new data is ready to be prepared.
  66:../../libDaisy//src/daisy_seed.h ****     This will use the newer non-interleaved callback.
  67:../../libDaisy//src/daisy_seed.h ****     */
  68:../../libDaisy//src/daisy_seed.h ****     void StartAudio(AudioHandle::AudioCallback cb);
  69:../../libDaisy//src/daisy_seed.h **** 
  70:../../libDaisy//src/daisy_seed.h ****     /** Changes to a new interleaved callback
ARM GAS  C:\Users\danst\AppData\Local\Temp\ccwBJjMd.s 			page 148


  71:../../libDaisy//src/daisy_seed.h ****      */
  72:../../libDaisy//src/daisy_seed.h ****     void ChangeAudioCallback(AudioHandle::InterleavingAudioCallback cb);
  73:../../libDaisy//src/daisy_seed.h **** 
  74:../../libDaisy//src/daisy_seed.h ****     /** Changes to a new multichannel callback
  75:../../libDaisy//src/daisy_seed.h ****      */
  76:../../libDaisy//src/daisy_seed.h ****     void ChangeAudioCallback(AudioHandle::AudioCallback cb);
  77:../../libDaisy//src/daisy_seed.h **** 
  78:../../libDaisy//src/daisy_seed.h ****     /** Stops the audio if it is running. */
  79:../../libDaisy//src/daisy_seed.h ****     void StopAudio();
  80:../../libDaisy//src/daisy_seed.h **** 
  81:../../libDaisy//src/daisy_seed.h ****     /** Updates the Audio Sample Rate, and reinitializes.
  82:../../libDaisy//src/daisy_seed.h ****      ** Audio must be stopped for this to work.
  83:../../libDaisy//src/daisy_seed.h ****      */
  84:../../libDaisy//src/daisy_seed.h ****     void SetAudioSampleRate(SaiHandle::Config::SampleRate samplerate);
  85:../../libDaisy//src/daisy_seed.h **** 
  86:../../libDaisy//src/daisy_seed.h ****     /** Returns the audio sample rate in Hz as a floating point number.
  87:../../libDaisy//src/daisy_seed.h ****      */
  88:../../libDaisy//src/daisy_seed.h ****     float AudioSampleRate();
  89:../../libDaisy//src/daisy_seed.h **** 
  90:../../libDaisy//src/daisy_seed.h ****     /** Sets the number of samples processed per channel by the audio callback.
  91:../../libDaisy//src/daisy_seed.h ****      */
  92:../../libDaisy//src/daisy_seed.h ****     void SetAudioBlockSize(size_t blocksize);
  93:../../libDaisy//src/daisy_seed.h **** 
  94:../../libDaisy//src/daisy_seed.h ****     /** Returns the number of samples per channel in a block of audio. */
  95:../../libDaisy//src/daisy_seed.h ****     size_t AudioBlockSize();
  96:../../libDaisy//src/daisy_seed.h **** 
  97:../../libDaisy//src/daisy_seed.h ****     /** Returns the rate in Hz that the Audio callback is called */
  98:../../libDaisy//src/daisy_seed.h ****     float AudioCallbackRate() const;
  99:../../libDaisy//src/daisy_seed.h **** 
 100:../../libDaisy//src/daisy_seed.h ****     /** Sets the state of the built in LED
 101:../../libDaisy//src/daisy_seed.h ****      */
 102:../../libDaisy//src/daisy_seed.h ****     void SetLed(bool state);
 103:../../libDaisy//src/daisy_seed.h **** 
 104:../../libDaisy//src/daisy_seed.h ****     /** Sets the state of the test point near pin 10
 105:../../libDaisy//src/daisy_seed.h ****      */
 106:../../libDaisy//src/daisy_seed.h ****     void SetTestPoint(bool state);
 107:../../libDaisy//src/daisy_seed.h **** 
 108:../../libDaisy//src/daisy_seed.h ****     /** Print formatted debug log message
 109:../../libDaisy//src/daisy_seed.h ****      */
 110:../../libDaisy//src/daisy_seed.h ****     template <typename... VA>
 111:../../libDaisy//src/daisy_seed.h ****     static void Print(const char* format, VA... va)
 112:../../libDaisy//src/daisy_seed.h ****     {
 113:../../libDaisy//src/daisy_seed.h ****         Log::Print(format, va...);
 5202              		.loc 2 113 19 view .LVU1421
 5203 034a 3E48     		ldr	r0, .L204+52
 5204              	.LBE1154:
 5205              	.LBE1153:
 357:takshaka.cpp  **** 				hw.Print( " | " );
 5206              		.loc 16 357 25 view .LVU1422
 5207 034c D3ED007A 		vldr.32	s15, [r3]
 5208              	.LBB1157:
 5209              	.LBB1152:
 5210              		.loc 21 76 31 view .LVU1423
 5211 0350 B0EEE76A 		vabs.f32	s12, s15
 5212              	.LVL397:
 5213              		.loc 21 76 31 view .LVU1424
 5214              	.LBE1152:
ARM GAS  C:\Users\danst\AppData\Local\Temp\ccwBJjMd.s 			page 149


 5215              	.LBE1157:
 357:takshaka.cpp  **** 				hw.Print( " | " );
 5216              		.loc 16 357 13 view .LVU1425
 5217 0354 F5EEC07A 		vcmpe.f32	s15, #0
 5218 0358 FDEEC67A 		vcvt.s32.f32	s15, s12
 5219              	.LVL398:
 5220              		.loc 21 76 5 is_stmt 1 view .LVU1426
 5221              		.loc 21 76 5 view .LVU1427
 5222              	.LBB1158:
 5223              	.LBI1153:
 111:../../libDaisy//src/daisy_seed.h ****     {
 5224              		.loc 2 111 17 view .LVU1428
 5225              	.LBE1158:
 357:takshaka.cpp  **** 				hw.Print( " | " );
 5226              		.loc 16 357 13 is_stmt 0 view .LVU1429
 5227 035c F1EE10FA 		vmrs	APSR_nzcv, FPSCR
 357:takshaka.cpp  **** 				hw.Print( " | " );
 5228              		.loc 16 357 25 view .LVU1430
 5229 0360 B8EEE77A 		vcvt.f32.s32	s14, s15
 5230              	.LVL399:
 5231              	.LBB1159:
 5232              	.LBB1155:
 5233              		.loc 2 113 19 view .LVU1431
 5234 0364 17EE902A 		vmov	r2, s15	@ int
 5235 0368 4CBF     		ite	mi
 5236 036a 2D21     		movmi	r1, #45
 5237 036c 2021     		movpl	r1, #32
 5238              	.LBE1155:
 5239              	.LBE1159:
 357:takshaka.cpp  **** 				hw.Print( " | " );
 5240              		.loc 16 357 25 view .LVU1432
 5241 036e 36EE476A 		vsub.f32	s12, s12, s14
 5242              	.LVL400:
 357:takshaka.cpp  **** 				hw.Print( " | " );
 5243              		.loc 16 357 25 view .LVU1433
 5244 0372 B7EEC66A 		vcvt.f64.f32	d6, s12
 5245 0376 26EE086B 		vmul.f64	d6, d6, d8
 5246              	.LBB1160:
 5247              	.LBB1156:
 5248              		.loc 2 113 19 view .LVU1434
 5249 037a BDEEC67B 		vcvt.s32.f64	s14, d6
 5250              	.LVL401:
 5251              		.loc 2 113 19 view .LVU1435
 5252 037e 17EE103A 		vmov	r3, s14	@ int
 5253 0382 FFF7FEFF 		bl	_ZN5daisy6LoggerILNS_17LoggerDestinationE1EE5PrintEPKcz
 5254              	.LVL402:
 5255              		.loc 2 113 19 view .LVU1436
 5256              	.LBE1156:
 5257              	.LBE1160:
 358:takshaka.cpp  **** 				hw.PrintLine( FLT_FMT3, FLT_VAR3( slitherDriftModValue ) );
 5258              		.loc 16 358 5 is_stmt 1 view .LVU1437
 5259              	.LBB1161:
 5260              	.LBI1161:
 111:../../libDaisy//src/daisy_seed.h ****     {
 5261              		.loc 2 111 17 view .LVU1438
 5262              	.LBB1162:
 5263              		.loc 2 113 19 is_stmt 0 view .LVU1439
ARM GAS  C:\Users\danst\AppData\Local\Temp\ccwBJjMd.s 			page 150


 5264 0386 3048     		ldr	r0, .L204+56
 5265 0388 FFF7FEFF 		bl	_ZN5daisy6LoggerILNS_17LoggerDestinationE1EE5PrintEPKcz
 5266              	.LVL403:
 5267              		.loc 2 113 19 view .LVU1440
 5268              	.LBE1162:
 5269              	.LBE1161:
 359:takshaka.cpp  **** 				debugCount = 0;
 5270              		.loc 16 359 5 is_stmt 1 view .LVU1441
 5271              	.LBB1163:
 5272              	.LBI1163:
  75:c:\users\danst\documents\daisytoolchain-0.3.3\windows\arm-none-eabi\include\c++\10.2.1\bits\std_abs.h ****   { return __builtin_fabsf(__x); }
 5273              		.loc 21 75 3 view .LVU1442
 5274              	.LBB1164:
 5275              		.loc 21 76 5 view .LVU1443
 5276              	.LBE1164:
 5277              	.LBE1163:
 359:takshaka.cpp  **** 				debugCount = 0;
 5278              		.loc 16 359 29 is_stmt 0 view .LVU1444
 5279 038c 2F4B     		ldr	r3, .L204+60
 5280              	.LBB1166:
 5281              	.LBB1167:
 114:../../libDaisy//src/daisy_seed.h ****     }
 115:../../libDaisy//src/daisy_seed.h **** 
 116:../../libDaisy//src/daisy_seed.h ****     /** Print formatted debug log message with automatic line termination
 117:../../libDaisy//src/daisy_seed.h ****     */
 118:../../libDaisy//src/daisy_seed.h ****     template <typename... VA>
 119:../../libDaisy//src/daisy_seed.h ****     static void PrintLine(const char* format, VA... va)
 120:../../libDaisy//src/daisy_seed.h ****     {
 121:../../libDaisy//src/daisy_seed.h ****         Log::PrintLine(format, va...);
 5282              		.loc 2 121 23 view .LVU1445
 5283 038e 2D48     		ldr	r0, .L204+52
 5284              	.LBE1167:
 5285              	.LBE1166:
 359:takshaka.cpp  **** 				debugCount = 0;
 5286              		.loc 16 359 29 view .LVU1446
 5287 0390 D3ED007A 		vldr.32	s15, [r3]
 5288              	.LBB1170:
 5289              	.LBB1165:
 5290              		.loc 21 76 31 view .LVU1447
 5291 0394 B0EEE77A 		vabs.f32	s14, s15
 5292              	.LVL404:
 5293              		.loc 21 76 31 view .LVU1448
 5294              	.LBE1165:
 5295              	.LBE1170:
 359:takshaka.cpp  **** 				debugCount = 0;
 5296              		.loc 16 359 17 view .LVU1449
 5297 0398 F5EEC07A 		vcmpe.f32	s15, #0
 5298 039c FDEEC76A 		vcvt.s32.f32	s13, s14
 5299              	.LVL405:
 5300              		.loc 21 76 5 is_stmt 1 view .LVU1450
 5301              		.loc 21 76 5 view .LVU1451
 5302              	.LBB1171:
 5303              	.LBI1166:
 119:../../libDaisy//src/daisy_seed.h ****     {
 5304              		.loc 2 119 17 view .LVU1452
 5305              	.LBE1171:
 359:takshaka.cpp  **** 				debugCount = 0;
ARM GAS  C:\Users\danst\AppData\Local\Temp\ccwBJjMd.s 			page 151


 5306              		.loc 16 359 17 is_stmt 0 view .LVU1453
 5307 03a0 F1EE10FA 		vmrs	APSR_nzcv, FPSCR
 359:takshaka.cpp  **** 				debugCount = 0;
 5308              		.loc 16 359 29 view .LVU1454
 5309 03a4 F8EEE67A 		vcvt.f32.s32	s15, s13
 5310              	.LVL406:
 5311              	.LBB1172:
 5312              	.LBB1168:
 5313              		.loc 2 121 23 view .LVU1455
 5314 03a8 16EE902A 		vmov	r2, s13	@ int
 5315 03ac 4CBF     		ite	mi
 5316 03ae 2D21     		movmi	r1, #45
 5317 03b0 2021     		movpl	r1, #32
 5318              	.LBE1168:
 5319              	.LBE1172:
 359:takshaka.cpp  **** 				debugCount = 0;
 5320              		.loc 16 359 29 view .LVU1456
 5321 03b2 37EE677A 		vsub.f32	s14, s14, s15
 5322              	.LVL407:
 359:takshaka.cpp  **** 				debugCount = 0;
 5323              		.loc 16 359 29 view .LVU1457
 5324 03b6 B7EEC77A 		vcvt.f64.f32	d7, s14
 5325 03ba 27EE087B 		vmul.f64	d7, d7, d8
 5326              	.LBB1173:
 5327              	.LBB1169:
 5328              		.loc 2 121 23 view .LVU1458
 5329 03be FDEEC77B 		vcvt.s32.f64	s15, d7
 5330              	.LVL408:
 5331              		.loc 2 121 23 view .LVU1459
 5332 03c2 17EE903A 		vmov	r3, s15	@ int
 5333 03c6 FFF7FEFF 		bl	_ZN5daisy6LoggerILNS_17LoggerDestinationE1EE9PrintLineEPKcz
 5334              	.LVL409:
 5335              		.loc 2 121 23 view .LVU1460
 5336              	.LBE1169:
 5337              	.LBE1173:
 5338              		.loc 16 360 5 is_stmt 1 view .LVU1461
 5339              	.L192:
 361:takshaka.cpp  **** 			}
 362:takshaka.cpp  **** 		}
 363:takshaka.cpp  **** 		System::Delay( 1 );
 5340              		.loc 16 363 3 view .LVU1462
 5341              		.loc 16 363 16 is_stmt 0 view .LVU1463
 5342 03ca 0120     		movs	r0, #1
 5343 03cc FFF7FEFF 		bl	_ZN5daisy6System5DelayEm
 5344              	.LVL410:
 335:takshaka.cpp  **** 		if( !debugMode ) handleMidi();
 5345              		.loc 16 335 2 is_stmt 1 view .LVU1464
 5346              	.L195:
 335:takshaka.cpp  **** 		if( !debugMode ) handleMidi();
 5347              		.loc 16 335 2 view .LVU1465
 336:takshaka.cpp  **** 		else midiNote = ROOT_MIDI_NOTE;
 5348              		.loc 16 336 3 view .LVU1466
 337:takshaka.cpp  **** 		midiFreq = mtof( midiNote );
 5349              		.loc 16 337 8 view .LVU1467
 336:takshaka.cpp  **** 		else midiNote = ROOT_MIDI_NOTE;
 5350              		.loc 16 336 3 is_stmt 0 view .LVU1468
 5351 03d0 98F80030 		ldrb	r3, [r8]	@ zero_extendqisi2
ARM GAS  C:\Users\danst\AppData\Local\Temp\ccwBJjMd.s 			page 152


 337:takshaka.cpp  **** 		midiFreq = mtof( midiNote );
 5352              		.loc 16 337 17 view .LVU1469
 5353 03d4 FFEE0C0A 		vmov.f32	s1, #-1.75e+0
 336:takshaka.cpp  **** 		else midiNote = ROOT_MIDI_NOTE;
 5354              		.loc 16 336 3 view .LVU1470
 5355 03d8 002B     		cmp	r3, #0
 5356 03da 7FF44BAF 		bne	.L189
 336:takshaka.cpp  **** 		else midiNote = ROOT_MIDI_NOTE;
 5357              		.loc 16 336 20 is_stmt 1 discriminator 1 view .LVU1471
 336:takshaka.cpp  **** 		else midiNote = ROOT_MIDI_NOTE;
 5358              		.loc 16 336 30 is_stmt 0 discriminator 1 view .LVU1472
 5359 03de FFF7FEFF 		bl	_Z10handleMidiv
 5360              	.LVL411:
 338:takshaka.cpp  **** 		modeSwitch.Debounce();
 5361              		.loc 16 338 18 discriminator 1 view .LVU1473
 5362 03e2 0D4B     		ldr	r3, .L204+8
 5363              	.LBB1174:
 5364              	.LBB1107:
 125:../../DaisySP//Source/Utility/dsp.h **** }
 5365              		.loc 17 125 23 discriminator 1 view .LVU1474
 5366 03e4 DFED1A6A 		vldr.32	s13, .L204+64
 125:../../DaisySP//Source/Utility/dsp.h **** }
 5367              		.loc 17 125 16 discriminator 1 view .LVU1475
 5368 03e8 B2EE087A 		vmov.f32	s14, #1.2e+1
 5369              	.LBE1107:
 5370              	.LBE1174:
 338:takshaka.cpp  **** 		modeSwitch.Debounce();
 5371              		.loc 16 338 18 discriminator 1 view .LVU1476
 5372 03ec 1B68     		ldr	r3, [r3]
 5373 03ee 07EE903A 		vmov	s15, r3	@ int
 5374 03f2 0193     		str	r3, [sp, #4]
 5375 03f4 F8EEE77A 		vcvt.f32.s32	s15, s15
 5376              	.LBB1175:
 5377              	.LBB1108:
 125:../../DaisySP//Source/Utility/dsp.h **** }
 5378              		.loc 17 125 23 discriminator 1 view .LVU1477
 5379 03f8 77EEE67A 		vsub.f32	s15, s15, s13
 125:../../DaisySP//Source/Utility/dsp.h **** }
 5380              		.loc 17 125 16 discriminator 1 view .LVU1478
 5381 03fc C7EE870A 		vdiv.f32	s1, s15, s14
 5382              	.LBE1108:
 5383              	.LBE1175:
 5384 0400 3BE7     		b	.L190
 5385              	.LVL412:
 5386              	.L187:
 5387              	.LBB1176:
 297:takshaka.cpp  **** 	// INIT THE SMART KNOBS
 5388              		.loc 16 297 9 is_stmt 1 view .LVU1479
 5389              	.LBB1094:
 5390              	.LBI1094:
 122:../../libDaisy//src/daisy_seed.h ****     }
 123:../../libDaisy//src/daisy_seed.h **** 
 124:../../libDaisy//src/daisy_seed.h ****     /** Start the logging session. Optionally wait for terminal connection before proceeding.
 125:../../libDaisy//src/daisy_seed.h ****     */
 126:../../libDaisy//src/daisy_seed.h ****     static void StartLog(bool wait_for_pc = false)
 5391              		.loc 2 126 17 view .LVU1480
 5392              	.LBB1095:
ARM GAS  C:\Users\danst\AppData\Local\Temp\ccwBJjMd.s 			page 153


 127:../../libDaisy//src/daisy_seed.h ****     {
 128:../../libDaisy//src/daisy_seed.h ****         Log::StartLog(wait_for_pc);
 5393              		.loc 2 128 9 view .LVU1481
 5394              		.loc 2 128 22 is_stmt 0 view .LVU1482
 5395 0402 0020     		movs	r0, #0
 5396 0404 FFF7FEFF 		bl	_ZN5daisy6LoggerILNS_17LoggerDestinationE1EE8StartLogEb
 5397              	.LVL413:
 129:../../libDaisy//src/daisy_seed.h ****     }
 5398              		.loc 2 129 5 view .LVU1483
 5399 0408 1AE6     		b	.L188
 5400              	.L205:
 5401 040a 00BFAFF3 		.align	3
 5401      0080
 5402              	.L204:
 5403 0410 00000000 		.word	0
 5404 0414 00408F40 		.word	1083129856
 5405 0418 00000000 		.word	.LANCHOR34
 5406 041c 0000DC43 		.word	1138491392
 5407 0420 00000000 		.word	.LANCHOR36
 5408 0424 00000000 		.word	.LANCHOR3
 5409 0428 00000000 		.word	.LANCHOR5
 5410 042c 00000000 		.word	.LANCHOR7
 5411 0430 6666263F 		.word	1059481190
 5412 0434 6666663F 		.word	1063675494
 5413 0438 00000000 		.word	.LANCHOR9
 5414 043c 00000000 		.word	.LANCHOR21
 5415 0440 00000000 		.word	.LANCHOR4
 5416 0444 00000000 		.word	.LC4
 5417 0448 0C000000 		.word	.LC5
 5418 044c 00000000 		.word	.LANCHOR31
 5419 0450 00008A42 		.word	1116340224
 5420              	.LBE1095:
 5421              	.LBE1094:
 5422              	.LBE1176:
 5423              		.cfi_endproc
 5424              	.LFE4800:
 5426              		.section	.text.startup._GLOBAL__sub_I_driftValue,"ax",%progbits
 5427              		.align	1
 5428              		.p2align 2,,3
 5429              		.syntax unified
 5430              		.thumb
 5431              		.thumb_func
 5432              		.fpu fpv5-d16
 5434              	_GLOBAL__sub_I_driftValue:
 5435              	.LFB5386:
 364:takshaka.cpp  **** 	}
 365:takshaka.cpp  **** }...
 5436              		.loc 16 365 1 is_stmt 1 view -0
 5437              		.cfi_startproc
 5438              		@ args = 0, pretend = 0, frame = 0
 5439              		@ frame_needed = 0, uses_anonymous_args = 0
 5440              	.LBB1254:
 5441              	.LBI1254:
 5442              		.loc 16 365 1 view .LVU1485
 5443              	.LVL414:
 5444              	.LBB1255:
 5445              	.LBB1256:
ARM GAS  C:\Users\danst\AppData\Local\Temp\ccwBJjMd.s 			page 154


 5446              	.LBI1256:
  21:../../libDaisy//src/daisy_seed.h ****     ~DaisySeed() {}
 5447              		.loc 2 21 5 view .LVU1486
 5448              	.LBB1257:
 5449              	.LBB1258:
 5450              	.LBI1258:
 5451              		.file 22 "../../libDaisy//src/per/qspi.h"
   1:../../libDaisy//src/per/qspi.h **** #ifndef DSY_QSPI
   2:../../libDaisy//src/per/qspi.h **** #define DSY_QSPI /**< Macro */
   3:../../libDaisy//src/per/qspi.h **** 
   4:../../libDaisy//src/per/qspi.h **** #ifndef UNIT_TEST // for unit tests, a dummy implementation
   5:../../libDaisy//src/per/qspi.h **** 
   6:../../libDaisy//src/per/qspi.h **** #include <cstdint>
   7:../../libDaisy//src/per/qspi.h **** #include "daisy_core.h" // Added for dsy_gpio_pin typedef
   8:../../libDaisy//src/per/qspi.h **** 
   9:../../libDaisy//src/per/qspi.h **** #define DSY_QSPI_TEXT       \
  10:../../libDaisy//src/per/qspi.h ****     __attribute__((section( \
  11:../../libDaisy//src/per/qspi.h ****         ".qspiflash_text"))) /**< used for reading memory in memory_mapped mode. */
  12:../../libDaisy//src/per/qspi.h **** #define DSY_QSPI_DATA       \
  13:../../libDaisy//src/per/qspi.h ****     __attribute__((section( \
  14:../../libDaisy//src/per/qspi.h ****         ".qspiflash_data"))) /**< used for reading memory in memory_mapped mode. */
  15:../../libDaisy//src/per/qspi.h **** #define DSY_QSPI_BSS        \
  16:../../libDaisy//src/per/qspi.h ****     __attribute__((section( \
  17:../../libDaisy//src/per/qspi.h ****         ".qspiflash_bss"))) /**< used for reading memory in memory_mapped mode. */
  18:../../libDaisy//src/per/qspi.h **** 
  19:../../libDaisy//src/per/qspi.h **** namespace daisy
  20:../../libDaisy//src/per/qspi.h **** {
  21:../../libDaisy//src/per/qspi.h **** /** @addtogroup serial
  22:../../libDaisy//src/per/qspi.h **** @{
  23:../../libDaisy//src/per/qspi.h **** */
  24:../../libDaisy//src/per/qspi.h **** 
  25:../../libDaisy//src/per/qspi.h **** /** 
  26:../../libDaisy//src/per/qspi.h ****  Driver for QSPI peripheral to interface with external flash memory. \n 
  27:../../libDaisy//src/per/qspi.h ****     Currently supported QSPI Devices: \n 
  28:../../libDaisy//src/per/qspi.h ****     * IS25LP080D
  29:../../libDaisy//src/per/qspi.h **** */
  30:../../libDaisy//src/per/qspi.h **** class QSPIHandle
  31:../../libDaisy//src/per/qspi.h **** {
  32:../../libDaisy//src/per/qspi.h ****   public:
  33:../../libDaisy//src/per/qspi.h ****     enum Result
  34:../../libDaisy//src/per/qspi.h ****     {
  35:../../libDaisy//src/per/qspi.h ****         OK = 0,
  36:../../libDaisy//src/per/qspi.h ****         ERR
  37:../../libDaisy//src/per/qspi.h ****     };
  38:../../libDaisy//src/per/qspi.h **** 
  39:../../libDaisy//src/per/qspi.h ****     /** Indicates the current status of the module. 
  40:../../libDaisy//src/per/qspi.h ****          *  Warnings are indicated by a leading W.
  41:../../libDaisy//src/per/qspi.h ****          *  Errors are indicated by a leading E and cause an immediate exit.
  42:../../libDaisy//src/per/qspi.h ****          * 
  43:../../libDaisy//src/per/qspi.h ****          *  \param GOOD - No errors have been reported.
  44:../../libDaisy//src/per/qspi.h ****          *  \param E_HAL_ERROR - HAL code did not return HAL_OK.
  45:../../libDaisy//src/per/qspi.h ****          *  \param E_SWITCHING_MODES - An error was encountered while switching QSPI peripheral mod
  46:../../libDaisy//src/per/qspi.h ****          *  \param E_INVALID_MODE - QSPI should not be written to while the program is executing fr
  47:../../libDaisy//src/per/qspi.h ****          */
  48:../../libDaisy//src/per/qspi.h ****     enum Status
  49:../../libDaisy//src/per/qspi.h ****     {
  50:../../libDaisy//src/per/qspi.h ****         GOOD = 0,
ARM GAS  C:\Users\danst\AppData\Local\Temp\ccwBJjMd.s 			page 155


  51:../../libDaisy//src/per/qspi.h ****         E_HAL_ERROR,
  52:../../libDaisy//src/per/qspi.h ****         E_SWITCHING_MODES,
  53:../../libDaisy//src/per/qspi.h ****         E_INVALID_MODE,
  54:../../libDaisy//src/per/qspi.h ****     };
  55:../../libDaisy//src/per/qspi.h **** 
  56:../../libDaisy//src/per/qspi.h ****     /** Configuration structure for interfacing with QSPI Driver */
  57:../../libDaisy//src/per/qspi.h ****     struct Config
  58:../../libDaisy//src/per/qspi.h ****     {
  59:../../libDaisy//src/per/qspi.h ****         /** Flash Devices supported. (Both of these are more-or-less the same, just different sizes
  60:../../libDaisy//src/per/qspi.h ****         enum Device
  61:../../libDaisy//src/per/qspi.h ****         {
  62:../../libDaisy//src/per/qspi.h ****             IS25LP080D,  /**< & */
  63:../../libDaisy//src/per/qspi.h ****             IS25LP064A,  /**< & */
  64:../../libDaisy//src/per/qspi.h ****             DEVICE_LAST, /**< & */
  65:../../libDaisy//src/per/qspi.h ****         };
  66:../../libDaisy//src/per/qspi.h **** 
  67:../../libDaisy//src/per/qspi.h ****         /** 
  68:../../libDaisy//src/per/qspi.h ****         Modes of operation.
  69:../../libDaisy//src/per/qspi.h ****         Memory Mapped mode: QSPI configured so that the QSPI can be
  70:../../libDaisy//src/per/qspi.h ****         read from starting address 0x90000000. Writing is not
  71:../../libDaisy//src/per/qspi.h ****         possible in this mode. \n 
  72:../../libDaisy//src/per/qspi.h ****         Indirect Polling mode: Device driver enabled. 
  73:../../libDaisy//src/per/qspi.h ****         */
  74:../../libDaisy//src/per/qspi.h ****         enum Mode
  75:../../libDaisy//src/per/qspi.h ****         {
  76:../../libDaisy//src/per/qspi.h ****             MEMORY_MAPPED,    /**< & */
  77:../../libDaisy//src/per/qspi.h ****             INDIRECT_POLLING, /**< & */
  78:../../libDaisy//src/per/qspi.h ****             MODE_LAST,
  79:../../libDaisy//src/per/qspi.h ****         };
  80:../../libDaisy//src/per/qspi.h **** 
  81:../../libDaisy//src/per/qspi.h ****         //SCK,  CE# (active low)
  82:../../libDaisy//src/per/qspi.h ****         struct
  83:../../libDaisy//src/per/qspi.h ****         {
  84:../../libDaisy//src/per/qspi.h ****             dsy_gpio_pin io0; /**< & */
  85:../../libDaisy//src/per/qspi.h ****             dsy_gpio_pin io1; /**< & */
  86:../../libDaisy//src/per/qspi.h ****             dsy_gpio_pin io2; /**< & */
  87:../../libDaisy//src/per/qspi.h ****             dsy_gpio_pin io3; /**< & */
  88:../../libDaisy//src/per/qspi.h ****             dsy_gpio_pin clk; /**< & */
  89:../../libDaisy//src/per/qspi.h ****             dsy_gpio_pin ncs; /**< & */
  90:../../libDaisy//src/per/qspi.h ****         } pin_config;
  91:../../libDaisy//src/per/qspi.h **** 
  92:../../libDaisy//src/per/qspi.h ****         Device device;
  93:../../libDaisy//src/per/qspi.h ****         Mode   mode;
  94:../../libDaisy//src/per/qspi.h ****     };
  95:../../libDaisy//src/per/qspi.h **** 
  96:../../libDaisy//src/per/qspi.h ****     /** 
  97:../../libDaisy//src/per/qspi.h ****         Initializes QSPI peripheral, and Resets, and prepares memory for access.
  98:../../libDaisy//src/per/qspi.h ****         \param config should be populated with the mode, device and pin_config before calling this 
  99:../../libDaisy//src/per/qspi.h ****         \return Result::OK or Result::ERR
 100:../../libDaisy//src/per/qspi.h ****         */
 101:../../libDaisy//src/per/qspi.h ****     Result Init(const Config& config);
 102:../../libDaisy//src/per/qspi.h **** 
 103:../../libDaisy//src/per/qspi.h ****     /** Returns the current config. */
 104:../../libDaisy//src/per/qspi.h ****     const Config& GetConfig() const;
 105:../../libDaisy//src/per/qspi.h **** 
 106:../../libDaisy//src/per/qspi.h ****     // Couldn't this just be called before anything else in init? That
 107:../../libDaisy//src/per/qspi.h ****     // would make manually calling it unnecessary.
ARM GAS  C:\Users\danst\AppData\Local\Temp\ccwBJjMd.s 			page 156


 108:../../libDaisy//src/per/qspi.h ****     /** 
 109:../../libDaisy//src/per/qspi.h ****         Deinitializes the peripheral
 110:../../libDaisy//src/per/qspi.h ****         This should be called before reinitializing QSPI in a different mode.
 111:../../libDaisy//src/per/qspi.h ****         \return Result::OK or Result::ERR
 112:../../libDaisy//src/per/qspi.h ****         */
 113:../../libDaisy//src/per/qspi.h ****     Result DeInit();
 114:../../libDaisy//src/per/qspi.h **** 
 115:../../libDaisy//src/per/qspi.h ****     /** 
 116:../../libDaisy//src/per/qspi.h ****         Writes a single page to to the specified address on the QSPI chip.
 117:../../libDaisy//src/per/qspi.h ****         For IS25LP*, page size is 256 bytes.
 118:../../libDaisy//src/per/qspi.h ****         \param address Address to write to
 119:../../libDaisy//src/per/qspi.h ****         \param size Buffer size
 120:../../libDaisy//src/per/qspi.h ****         \param buffer Buffer to write
 121:../../libDaisy//src/per/qspi.h ****         \return Result::OK or Result::ERR
 122:../../libDaisy//src/per/qspi.h ****         */
 123:../../libDaisy//src/per/qspi.h ****     Result WritePage(uint32_t address, uint32_t size, uint8_t* buffer);
 124:../../libDaisy//src/per/qspi.h **** 
 125:../../libDaisy//src/per/qspi.h ****     /** 
 126:../../libDaisy//src/per/qspi.h ****         Writes data in buffer to to the QSPI. Starting at address to address+size 
 127:../../libDaisy//src/per/qspi.h ****         \param address Address to write to
 128:../../libDaisy//src/per/qspi.h ****         \param size Buffer size
 129:../../libDaisy//src/per/qspi.h ****         \param buffer Buffer to write
 130:../../libDaisy//src/per/qspi.h ****         \return Result::OK or Result::ERR
 131:../../libDaisy//src/per/qspi.h ****         */
 132:../../libDaisy//src/per/qspi.h ****     Result Write(uint32_t address, uint32_t size, uint8_t* buffer);
 133:../../libDaisy//src/per/qspi.h **** 
 134:../../libDaisy//src/per/qspi.h ****     /** 
 135:../../libDaisy//src/per/qspi.h ****         Erases the area specified on the chip.
 136:../../libDaisy//src/per/qspi.h ****         Erasures will happen by 4K, 32K or 64K increments.
 137:../../libDaisy//src/per/qspi.h ****         Smallest erase possible is 4kB at a time. (on IS25LP*)
 138:../../libDaisy//src/per/qspi.h ****         \param start_addr Address to begin erasing from
 139:../../libDaisy//src/per/qspi.h ****         \param end_addr  Address to stop erasing at
 140:../../libDaisy//src/per/qspi.h ****         \return Result::OK or Result::ERR
 141:../../libDaisy//src/per/qspi.h ****         */
 142:../../libDaisy//src/per/qspi.h ****     Result Erase(uint32_t start_addr, uint32_t end_addr);
 143:../../libDaisy//src/per/qspi.h **** 
 144:../../libDaisy//src/per/qspi.h ****     /**  
 145:../../libDaisy//src/per/qspi.h ****          Erases a single sector of the chip.  
 146:../../libDaisy//src/per/qspi.h ****         TODO: Document the size of this function. 
 147:../../libDaisy//src/per/qspi.h ****         \param address Address of sector to erase
 148:../../libDaisy//src/per/qspi.h ****         \return Result::OK or Result::ERR
 149:../../libDaisy//src/per/qspi.h ****         */
 150:../../libDaisy//src/per/qspi.h ****     Result EraseSector(uint32_t address);
 151:../../libDaisy//src/per/qspi.h **** 
 152:../../libDaisy//src/per/qspi.h ****     /** Returns the current class status. Useful for debugging.
 153:../../libDaisy//src/per/qspi.h ****      *  \returns Status
 154:../../libDaisy//src/per/qspi.h ****      */
 155:../../libDaisy//src/per/qspi.h ****     Status GetStatus();
 156:../../libDaisy//src/per/qspi.h **** 
 157:../../libDaisy//src/per/qspi.h ****     /** Returns a pointer to the actual memory used 
 158:../../libDaisy//src/per/qspi.h ****      *  The memory at this address is read-only
 159:../../libDaisy//src/per/qspi.h ****      *  to write to it use the Write function.
 160:../../libDaisy//src/per/qspi.h ****      * 
 161:../../libDaisy//src/per/qspi.h ****      *  \param offset returns the pointer starting this 
 162:../../libDaisy//src/per/qspi.h ****      *                many bytes into the memory
 163:../../libDaisy//src/per/qspi.h ****     */
 164:../../libDaisy//src/per/qspi.h ****     void* GetData(uint32_t offset = 0);
ARM GAS  C:\Users\danst\AppData\Local\Temp\ccwBJjMd.s 			page 157


 165:../../libDaisy//src/per/qspi.h **** 
 166:../../libDaisy//src/per/qspi.h ****     QSPIHandle() : pimpl_(nullptr) {}
 5452              		.loc 22 166 5 view .LVU1487
 5453              	.LBE1258:
 5454              	.LBE1257:
 5455              	.LBE1256:
 5456              	.LBE1255:
 5457              	.LBE1254:
 5458              		.loc 16 365 1 is_stmt 0 view .LVU1488
 5459 0000 2DE9F041 		push	{r4, r5, r6, r7, r8, lr}
 5460              		.cfi_def_cfa_offset 24
 5461              		.cfi_offset 4, -24
 5462              		.cfi_offset 5, -20
 5463              		.cfi_offset 6, -16
 5464              		.cfi_offset 7, -12
 5465              		.cfi_offset 8, -8
 5466              		.cfi_offset 14, -4
 5467              	.LBB1398:
 5468              	.LBB1396:
 5469              	.LBB1276:
 5470              	.LBB1274:
 5471              	.LBB1263:
 5472              	.LBB1259:
 5473              	.LBB1260:
 5474              		.loc 22 166 34 view .LVU1489
 5475 0004 6948     		ldr	r0, .L208
 5476 0006 0025     		movs	r5, #0
 5477              	.LBE1260:
 5478              	.LBE1259:
 5479              	.LBE1263:
 5480              	.LBE1274:
 5481              	.LBE1276:
  54:takshaka.cpp  **** DaisySeed hw;
 5482              		.loc 16 54 11 view .LVU1490
 5483 0008 694E     		ldr	r6, .L208+4
 5484              	.LBB1277:
 5485              	.LBB1278:
 5486              		.file 23 "SmartKnob.h"
   1:SmartKnob.h   **** #pragma once
   2:SmartKnob.h   **** #ifndef DSY_SN_SMARTKNOB_H
   3:SmartKnob.h   **** #include "daisy_seed.h"
   4:SmartKnob.h   **** #ifdef __cplusplus
   5:SmartKnob.h   **** 
   6:SmartKnob.h   **** namespace daisysp {  
   7:SmartKnob.h   ****     class SmartKnob {
 5487              		.loc 23 7 11 view .LVU1491
 5488 000a 0024     		movs	r4, #0
 5489              	.LBE1278:
 5490              	.LBE1277:
  54:takshaka.cpp  **** DaisySeed hw;
 5491              		.loc 16 54 11 view .LVU1492
 5492 000c 6949     		ldr	r1, .L208+8
 5493 000e 3246     		mov	r2, r6
 5494              	.LBB1281:
 5495              	.LBB1275:
 5496              	.LBB1264:
 5497              	.LBB1262:
ARM GAS  C:\Users\danst\AppData\Local\Temp\ccwBJjMd.s 			page 158


 5498              	.LBB1261:
 5499              		.loc 22 166 34 view .LVU1493
 5500 0010 0560     		str	r5, [r0]
 5501              	.LVL415:
 5502              		.loc 22 166 34 view .LVU1494
 5503              	.LBE1261:
 5504              	.LBE1262:
 5505              	.LBE1264:
 5506              	.LBB1265:
 5507              	.LBI1265:
  95:../../libDaisy//src/hid/audio.h ****     ~AudioHandle() {}
 5508              		.loc 6 95 5 is_stmt 1 view .LVU1495
 5509              	.LBB1266:
 5510              	.LBB1267:
  95:../../libDaisy//src/hid/audio.h ****     ~AudioHandle() {}
 5511              		.loc 6 95 35 is_stmt 0 view .LVU1496
 5512 0012 4561     		str	r5, [r0, #20]
 5513              	.LVL416:
  95:../../libDaisy//src/hid/audio.h ****     ~AudioHandle() {}
 5514              		.loc 6 95 35 view .LVU1497
 5515              	.LBE1267:
 5516              	.LBE1266:
 5517              	.LBE1265:
 5518              	.LBB1268:
 5519              	.LBI1268:
  92:../../libDaisy//src/per/adc.h ****     ~AdcHandle() {}
 5520              		.loc 5 92 5 is_stmt 1 view .LVU1498
  92:../../libDaisy//src/per/adc.h ****     ~AdcHandle() {}
 5521              		.loc 5 92 5 is_stmt 0 view .LVU1499
 5522              	.LBE1268:
 5523              	.LBB1269:
 5524              	.LBI1269:
 5525              		.file 24 "../../libDaisy//src/per/dac.h"
   1:../../libDaisy//src/per/dac.h **** #pragma once
   2:../../libDaisy//src/per/dac.h **** #ifndef DSY_DAC_H
   3:../../libDaisy//src/per/dac.h **** #define DSY_DAC_H
   4:../../libDaisy//src/per/dac.h **** 
   5:../../libDaisy//src/per/dac.h **** #include "daisy_core.h"
   6:../../libDaisy//src/per/dac.h **** 
   7:../../libDaisy//src/per/dac.h **** namespace daisy
   8:../../libDaisy//src/per/dac.h **** {
   9:../../libDaisy//src/per/dac.h **** /** @brief DAC handle for Built-in DAC Peripheral 
  10:../../libDaisy//src/per/dac.h ****  *  @ingroup per_analog
  11:../../libDaisy//src/per/dac.h ****  ** 
  12:../../libDaisy//src/per/dac.h ****  ** For now only Normal Mode is supported,
  13:../../libDaisy//src/per/dac.h ****  ** Sample and hold mode provides reduced power consumption, but requires a bit more setup.
  14:../../libDaisy//src/per/dac.h ****  **
  15:../../libDaisy//src/per/dac.h ****  ** For now connecting the DAC through other internal peripherals is also not supported.
  16:../../libDaisy//src/per/dac.h ****  **
  17:../../libDaisy//src/per/dac.h ****  ** Since the DAC channels have dedicated pins we don't need to pass in a pin config like with
  18:../../libDaisy//src/per/dac.h ****  ** other modules. However, it is still important to not try to use the DAC pins for anything else.
  19:../../libDaisy//src/per/dac.h ****  ** DAC Channel 1 is on PA4, and DAC Channel 2 is on PA5
  20:../../libDaisy//src/per/dac.h ****  ***/
  21:../../libDaisy//src/per/dac.h **** class DacHandle
  22:../../libDaisy//src/per/dac.h **** {
  23:../../libDaisy//src/per/dac.h ****   public:
  24:../../libDaisy//src/per/dac.h ****     /** Return Values for the DacHandle class */
ARM GAS  C:\Users\danst\AppData\Local\Temp\ccwBJjMd.s 			page 159


  25:../../libDaisy//src/per/dac.h ****     enum class Result
  26:../../libDaisy//src/per/dac.h ****     {
  27:../../libDaisy//src/per/dac.h ****         OK,
  28:../../libDaisy//src/per/dac.h ****         ERR,
  29:../../libDaisy//src/per/dac.h ****     };
  30:../../libDaisy//src/per/dac.h **** 
  31:../../libDaisy//src/per/dac.h ****     /** Selects which channel(s) will be configured for use. */
  32:../../libDaisy//src/per/dac.h ****     enum class Channel
  33:../../libDaisy//src/per/dac.h ****     {
  34:../../libDaisy//src/per/dac.h ****         ONE,
  35:../../libDaisy//src/per/dac.h ****         TWO,
  36:../../libDaisy//src/per/dac.h ****         BOTH,
  37:../../libDaisy//src/per/dac.h ****     };
  38:../../libDaisy//src/per/dac.h **** 
  39:../../libDaisy//src/per/dac.h ****     /** Sets the Mode for the DAC channels.
  40:../../libDaisy//src/per/dac.h ****      **
  41:../../libDaisy//src/per/dac.h ****      ** Polling mode uses the blocking mode to transmit a single value at a time.
  42:../../libDaisy//src/per/dac.h ****      **
  43:../../libDaisy//src/per/dac.h ****      ** DMA mode uses a buffer, and periodically transmits it triggering a 
  44:../../libDaisy//src/per/dac.h ****      ** callback to fill the buffer when it is ready for more samples.
  45:../../libDaisy//src/per/dac.h ****      ***/
  46:../../libDaisy//src/per/dac.h ****     enum class Mode
  47:../../libDaisy//src/per/dac.h ****     {
  48:../../libDaisy//src/per/dac.h ****         POLLING,
  49:../../libDaisy//src/per/dac.h ****         DMA,
  50:../../libDaisy//src/per/dac.h ****     };
  51:../../libDaisy//src/per/dac.h **** 
  52:../../libDaisy//src/per/dac.h ****     /** Sets the number of bits per sample transmitted out of the DAC.
  53:../../libDaisy//src/per/dac.h ****      ** The output range will be: 0V - VDDA
  54:../../libDaisy//src/per/dac.h ****      ** The resolution will be roughly: bitdepth / (VDDA - 0V) 
  55:../../libDaisy//src/per/dac.h ****      ***/
  56:../../libDaisy//src/per/dac.h ****     enum class BitDepth
  57:../../libDaisy//src/per/dac.h ****     {
  58:../../libDaisy//src/per/dac.h ****         BITS_8,
  59:../../libDaisy//src/per/dac.h ****         BITS_12
  60:../../libDaisy//src/per/dac.h ****     };
  61:../../libDaisy//src/per/dac.h **** 
  62:../../libDaisy//src/per/dac.h ****     /** Sets whether the DAC output is buffered for higher drive ability. */
  63:../../libDaisy//src/per/dac.h ****     enum class BufferState
  64:../../libDaisy//src/per/dac.h ****     {
  65:../../libDaisy//src/per/dac.h ****         ENABLED,
  66:../../libDaisy//src/per/dac.h ****         DISABLED,
  67:../../libDaisy//src/per/dac.h ****     };
  68:../../libDaisy//src/per/dac.h **** 
  69:../../libDaisy//src/per/dac.h ****     /** Configuration structure for initializing the DAC structure. */
  70:../../libDaisy//src/per/dac.h ****     struct Config
  71:../../libDaisy//src/per/dac.h ****     {
  72:../../libDaisy//src/per/dac.h ****         /** Target Samplerate in Hz used to configure the internal 
  73:../../libDaisy//src/per/dac.h ****          ** timebase for DMA mode. Does nothing in POLLING mode.
  74:../../libDaisy//src/per/dac.h ****          ** If the value is 0 at Init time this will default to 48000Hz 
  75:../../libDaisy//src/per/dac.h ****          ** otherwise the driver will attempt meet the target.*/
  76:../../libDaisy//src/per/dac.h ****         uint32_t target_samplerate;
  77:../../libDaisy//src/per/dac.h **** 
  78:../../libDaisy//src/per/dac.h ****         Channel     chn;
  79:../../libDaisy//src/per/dac.h ****         Mode        mode;
  80:../../libDaisy//src/per/dac.h ****         BitDepth    bitdepth;
  81:../../libDaisy//src/per/dac.h ****         BufferState buff_state;
ARM GAS  C:\Users\danst\AppData\Local\Temp\ccwBJjMd.s 			page 160


  82:../../libDaisy//src/per/dac.h ****     };
  83:../../libDaisy//src/per/dac.h **** 
  84:../../libDaisy//src/per/dac.h ****     DacHandle() : pimpl_(nullptr) {}
 5526              		.loc 24 84 5 is_stmt 1 view .LVU1500
 5527              	.LBB1270:
 5528              	.LBB1271:
 5529              		.loc 24 84 33 is_stmt 0 view .LVU1501
 5530 0014 0562     		str	r5, [r0, #32]
 5531              	.LVL417:
 5532              		.loc 24 84 33 view .LVU1502
 5533              	.LBE1271:
 5534              	.LBE1270:
 5535              	.LBE1269:
 5536              	.LBB1272:
 5537              	.LBI1272:
  40:../../libDaisy//src/hid/usb.h **** 
 5538              		.loc 4 40 5 is_stmt 1 view .LVU1503
  40:../../libDaisy//src/hid/usb.h **** 
 5539              		.loc 4 40 5 is_stmt 0 view .LVU1504
 5540              	.LBE1272:
 5541              	.LBB1273:
 5542              	.LBI1273:
  77:../../libDaisy//src/sys/system.h ****     ~System() {}
 5543              		.loc 3 77 5 is_stmt 1 view .LVU1505
  77:../../libDaisy//src/sys/system.h ****     ~System() {}
 5544              		.loc 3 77 5 is_stmt 0 view .LVU1506
 5545              	.LBE1273:
 5546              	.LBE1275:
 5547              	.LBE1281:
  54:takshaka.cpp  **** DaisySeed hw;
 5548              		.loc 16 54 11 view .LVU1507
 5549 0016 FFF7FEFF 		bl	__aeabi_atexit
 5550              	.LVL418:
 5551              	.LBB1282:
 5552              	.LBI1282:
  84:../../libDaisy//src/hid/midi.h ****     ~MidiHandler() {}
 5553              		.loc 14 84 5 is_stmt 1 view .LVU1508
 5554              	.LBB1283:
 5555              	.LBB1284:
 5556              	.LBB1285:
 5557              	.LBI1285:
 5558              		.file 25 "../../libDaisy//src/per/uart.h"
   1:../../libDaisy//src/per/uart.h **** /* 
   2:../../libDaisy//src/per/uart.h **** TODO
   3:../../libDaisy//src/per/uart.h **** - UART1 defaults to DMA, add flexible config for DMA on all periphs
   4:../../libDaisy//src/per/uart.h **** - Transmit function improvements.
   5:../../libDaisy//src/per/uart.h **** - Overflow handling, etc. for Rx Queue.
   6:../../libDaisy//src/per/uart.h **** */
   7:../../libDaisy//src/per/uart.h **** 
   8:../../libDaisy//src/per/uart.h **** #pragma once
   9:../../libDaisy//src/per/uart.h **** #ifndef DSY_UART_H
  10:../../libDaisy//src/per/uart.h **** #define DSY_UART_H /**< macro */
  11:../../libDaisy//src/per/uart.h **** #include "daisy_core.h"
  12:../../libDaisy//src/per/uart.h **** 
  13:../../libDaisy//src/per/uart.h **** 
  14:../../libDaisy//src/per/uart.h **** namespace daisy
  15:../../libDaisy//src/per/uart.h **** {
ARM GAS  C:\Users\danst\AppData\Local\Temp\ccwBJjMd.s 			page 161


  16:../../libDaisy//src/per/uart.h **** /** @addtogroup serial
  17:../../libDaisy//src/per/uart.h ****     @{
  18:../../libDaisy//src/per/uart.h ****     */
  19:../../libDaisy//src/per/uart.h **** 
  20:../../libDaisy//src/per/uart.h **** /** 
  21:../../libDaisy//src/per/uart.h ****     Uart Peripheral
  22:../../libDaisy//src/per/uart.h ****     @author shensley
  23:../../libDaisy//src/per/uart.h ****     @date March 2020
  24:../../libDaisy//src/per/uart.h ****     */
  25:../../libDaisy//src/per/uart.h **** class UartHandler
  26:../../libDaisy//src/per/uart.h **** {
  27:../../libDaisy//src/per/uart.h ****   public:
  28:../../libDaisy//src/per/uart.h ****     struct Config
  29:../../libDaisy//src/per/uart.h ****     {
  30:../../libDaisy//src/per/uart.h ****         enum class Peripheral
  31:../../libDaisy//src/per/uart.h ****         {
  32:../../libDaisy//src/per/uart.h ****             USART_1,
  33:../../libDaisy//src/per/uart.h ****             USART_2,
  34:../../libDaisy//src/per/uart.h ****             USART_3,
  35:../../libDaisy//src/per/uart.h ****             UART_4,
  36:../../libDaisy//src/per/uart.h ****             UART_5,
  37:../../libDaisy//src/per/uart.h ****             USART_6,
  38:../../libDaisy//src/per/uart.h ****             UART_7,
  39:../../libDaisy//src/per/uart.h ****             UART_8,
  40:../../libDaisy//src/per/uart.h ****             LPUART_1,
  41:../../libDaisy//src/per/uart.h ****         };
  42:../../libDaisy//src/per/uart.h **** 
  43:../../libDaisy//src/per/uart.h ****         enum class StopBits
  44:../../libDaisy//src/per/uart.h ****         {
  45:../../libDaisy//src/per/uart.h ****             BITS_0_5,
  46:../../libDaisy//src/per/uart.h ****             BITS_1,
  47:../../libDaisy//src/per/uart.h ****             BITS_1_5,
  48:../../libDaisy//src/per/uart.h ****             BITS_2,
  49:../../libDaisy//src/per/uart.h ****         };
  50:../../libDaisy//src/per/uart.h **** 
  51:../../libDaisy//src/per/uart.h ****         enum class Parity
  52:../../libDaisy//src/per/uart.h ****         {
  53:../../libDaisy//src/per/uart.h ****             NONE,
  54:../../libDaisy//src/per/uart.h ****             EVEN,
  55:../../libDaisy//src/per/uart.h ****             ODD,
  56:../../libDaisy//src/per/uart.h ****         };
  57:../../libDaisy//src/per/uart.h **** 
  58:../../libDaisy//src/per/uart.h ****         enum class Mode
  59:../../libDaisy//src/per/uart.h ****         {
  60:../../libDaisy//src/per/uart.h ****             RX,
  61:../../libDaisy//src/per/uart.h ****             TX,
  62:../../libDaisy//src/per/uart.h ****             TX_RX,
  63:../../libDaisy//src/per/uart.h ****         };
  64:../../libDaisy//src/per/uart.h **** 
  65:../../libDaisy//src/per/uart.h ****         enum class WordLength
  66:../../libDaisy//src/per/uart.h ****         {
  67:../../libDaisy//src/per/uart.h ****             BITS_7,
  68:../../libDaisy//src/per/uart.h ****             BITS_8,
  69:../../libDaisy//src/per/uart.h ****             BITS_9,
  70:../../libDaisy//src/per/uart.h ****         };
  71:../../libDaisy//src/per/uart.h **** 
  72:../../libDaisy//src/per/uart.h ****         struct
ARM GAS  C:\Users\danst\AppData\Local\Temp\ccwBJjMd.s 			page 162


  73:../../libDaisy//src/per/uart.h ****         {
  74:../../libDaisy//src/per/uart.h ****             dsy_gpio_pin tx; /**< & */
  75:../../libDaisy//src/per/uart.h ****             dsy_gpio_pin rx; /**< & */
  76:../../libDaisy//src/per/uart.h ****         } pin_config;        /**< & */
  77:../../libDaisy//src/per/uart.h **** 
  78:../../libDaisy//src/per/uart.h ****         Config()
  79:../../libDaisy//src/per/uart.h ****         {
  80:../../libDaisy//src/per/uart.h ****             // user must init periph, pin_config, and mode
  81:../../libDaisy//src/per/uart.h ****             stopbits   = StopBits::BITS_1;
  82:../../libDaisy//src/per/uart.h ****             parity     = Parity::NONE;
  83:../../libDaisy//src/per/uart.h ****             wordlength = WordLength::BITS_8;
  84:../../libDaisy//src/per/uart.h ****             baudrate   = 4800;
  85:../../libDaisy//src/per/uart.h ****             // baudrate   = 31250;
  86:../../libDaisy//src/per/uart.h ****         }
  87:../../libDaisy//src/per/uart.h **** 
  88:../../libDaisy//src/per/uart.h ****         Peripheral periph;
  89:../../libDaisy//src/per/uart.h ****         StopBits   stopbits;
  90:../../libDaisy//src/per/uart.h ****         Parity     parity;
  91:../../libDaisy//src/per/uart.h ****         Mode       mode;
  92:../../libDaisy//src/per/uart.h ****         WordLength wordlength;
  93:../../libDaisy//src/per/uart.h ****         uint32_t   baudrate;
  94:../../libDaisy//src/per/uart.h ****     };
  95:../../libDaisy//src/per/uart.h **** 
  96:../../libDaisy//src/per/uart.h **** 
  97:../../libDaisy//src/per/uart.h ****     UartHandler() : pimpl_(nullptr) {}
 5559              		.loc 25 97 5 view .LVU1509
 5560              		.loc 25 97 5 is_stmt 0 view .LVU1510
 5561              	.LBE1285:
 5562              	.LBB1290:
 5563              	.LBI1290:
  21:../../libDaisy//src/util/ringbuffer.h **** 
 5564              		.loc 19 21 5 is_stmt 1 view .LVU1511
  21:../../libDaisy//src/util/ringbuffer.h **** 
 5565              		.loc 19 21 5 is_stmt 0 view .LVU1512
 5566              	.LBE1290:
 5567              	.LBB1291:
 5568              	.LBI1291:
  19:../../libDaisy//src/hid/usb_midi.h **** 
  20:../../libDaisy//src/hid/usb_midi.h ****     struct Config
  21:../../libDaisy//src/hid/usb_midi.h ****     {
  22:../../libDaisy//src/hid/usb_midi.h ****         enum Periph
  23:../../libDaisy//src/hid/usb_midi.h ****         {
  24:../../libDaisy//src/hid/usb_midi.h ****             INTERNAL = 0,
  25:../../libDaisy//src/hid/usb_midi.h ****             EXTERNAL
  26:../../libDaisy//src/hid/usb_midi.h ****         };
  27:../../libDaisy//src/hid/usb_midi.h **** 
  28:../../libDaisy//src/hid/usb_midi.h ****         Periph periph;
  29:../../libDaisy//src/hid/usb_midi.h ****     };
  30:../../libDaisy//src/hid/usb_midi.h **** 
  31:../../libDaisy//src/hid/usb_midi.h ****     void Init(Config config);
  32:../../libDaisy//src/hid/usb_midi.h **** 
  33:../../libDaisy//src/hid/usb_midi.h ****     void    StartRx();
  34:../../libDaisy//src/hid/usb_midi.h ****     size_t  Readable();
  35:../../libDaisy//src/hid/usb_midi.h ****     uint8_t Rx();
  36:../../libDaisy//src/hid/usb_midi.h ****     bool    RxActive();
  37:../../libDaisy//src/hid/usb_midi.h ****     void    FlushRx();
  38:../../libDaisy//src/hid/usb_midi.h ****     void    Tx(uint8_t* buffer, size_t size);
ARM GAS  C:\Users\danst\AppData\Local\Temp\ccwBJjMd.s 			page 163


  39:../../libDaisy//src/hid/usb_midi.h **** 
  40:../../libDaisy//src/hid/usb_midi.h ****     class Impl;
  41:../../libDaisy//src/hid/usb_midi.h **** 
  42:../../libDaisy//src/hid/usb_midi.h ****     MidiUsbTransport() : pimpl_(nullptr) {}
 5569              		.loc 15 42 5 is_stmt 1 view .LVU1513
 5570              		.loc 15 42 5 is_stmt 0 view .LVU1514
 5571              	.LBE1291:
 5572              	.LBB1296:
 5573              	.LBB1286:
 5574              	.LBB1287:
 5575              		.loc 25 97 35 view .LVU1515
 5576 001a 6748     		ldr	r0, .L208+12
 5577              	.LBE1287:
 5578              	.LBE1286:
 5579              	.LBE1296:
 5580              	.LBE1284:
  84:../../libDaisy//src/hid/midi.h ****     ~MidiHandler() {}
 5581              		.loc 14 84 5 view .LVU1516
 5582 001c 4FF60F02 		movw	r2, #63503
 5583 0020 6649     		ldr	r1, .L208+16
 5584              	.LBB1300:
 5585              	.LBB1297:
 5586              	.LBB1292:
 5587              	.LBB1293:
 5588              		.loc 15 42 40 view .LVU1517
 5589 0022 00F51043 		add	r3, r0, #36864
 5590              	.LBE1293:
 5591              	.LBE1292:
 5592              	.LBE1297:
 5593              	.LBB1298:
 5594              	.LBB1289:
 5595              	.LBB1288:
 5596              		.loc 25 97 35 view .LVU1518
 5597 0026 0560     		str	r5, [r0]
 5598              	.LBE1288:
 5599              	.LBE1289:
 5600              	.LBE1298:
 5601              	.LBE1300:
 5602              	.LBE1283:
 5603              	.LBE1282:
  71:takshaka.cpp  **** SuperSawOsc superSaw;
 5604              		.loc 16 71 13 view .LVU1519
 5605 0028 654F     		ldr	r7, .L208+20
 5606              	.LBB1304:
 5607              	.LBB1303:
  84:../../libDaisy//src/hid/midi.h ****     ~MidiHandler() {}
 5608              		.loc 14 84 5 view .LVU1520
 5609 002a A3F8B020 		strh	r2, [r3, #176]	@ movhi
 5610              	.LBB1301:
  84:../../libDaisy//src/hid/midi.h ****     ~MidiHandler() {}
 5611              		.loc 14 84 19 view .LVU1521
 5612 002e 0722     		movs	r2, #7
 5613              	.LBE1301:
  84:../../libDaisy//src/hid/midi.h ****     ~MidiHandler() {}
 5614              		.loc 14 84 5 view .LVU1522
 5615 0030 C3F8AC10 		str	r1, [r3, #172]
 5616              	.LBB1302:
ARM GAS  C:\Users\danst\AppData\Local\Temp\ccwBJjMd.s 			page 164


 5617              	.LBB1299:
 5618              	.LBB1295:
 5619              	.LBB1294:
 5620              		.loc 15 42 40 view .LVU1523
 5621 0034 C3F8A850 		str	r5, [r3, #168]
 5622              	.LBE1294:
 5623              	.LBE1295:
 5624              	.LBE1299:
  84:../../libDaisy//src/hid/midi.h ****     ~MidiHandler() {}
 5625              		.loc 14 84 19 view .LVU1524
 5626 0038 83F8B220 		strb	r2, [r3, #178]
 5627              	.LVL419:
  84:../../libDaisy//src/hid/midi.h ****     ~MidiHandler() {}
 5628              		.loc 14 84 19 view .LVU1525
 5629              	.LBE1302:
 5630              	.LBE1303:
 5631              	.LBE1304:
  55:takshaka.cpp  **** MidiUsbHandler midi;
 5632              		.loc 16 55 16 view .LVU1526
 5633 003c 3246     		mov	r2, r6
 5634 003e 6149     		ldr	r1, .L208+24
 5635 0040 FFF7FEFF 		bl	__aeabi_atexit
 5636              	.LVL420:
 5637              	.LBB1305:
 5638              	.LBI1305:
  41:../../libDaisy//src/hid/switch.h ****     ~Switch() {}
 5639              		.loc 1 41 5 is_stmt 1 view .LVU1527
  41:../../libDaisy//src/hid/switch.h ****     ~Switch() {}
 5640              		.loc 1 41 5 is_stmt 0 view .LVU1528
 5641              	.LBE1305:
  56:takshaka.cpp  **** Switch modeSwitch;
 5642              		.loc 16 56 8 view .LVU1529
 5643 0044 3246     		mov	r2, r6
 5644 0046 6049     		ldr	r1, .L208+28
 5645 0048 6048     		ldr	r0, .L208+32
 5646 004a FFF7FEFF 		bl	__aeabi_atexit
 5647              	.LVL421:
 5648              	.LBB1306:
 5649              	.LBI1277:
 5650              		.loc 23 7 11 is_stmt 1 view .LVU1530
 5651              	.LBB1279:
 5652 004e 604A     		ldr	r2, .L208+36
 5653              	.LBE1279:
 5654              	.LBE1306:
 5655              	.LBB1307:
 5656              	.LBB1308:
 5657 0050 604B     		ldr	r3, .L208+40
 5658              	.LBE1308:
 5659              	.LBE1307:
  71:takshaka.cpp  **** SuperSawOsc superSaw;
 5660              		.loc 16 71 13 is_stmt 0 view .LVU1531
 5661 0052 3846     		mov	r0, r7
 5662              	.LBB1311:
 5663              	.LBB1280:
 5664              		.loc 23 7 11 view .LVU1532
 5665 0054 1580     		strh	r5, [r2]	@ movhi
 5666 0056 9570     		strb	r5, [r2, #2]
ARM GAS  C:\Users\danst\AppData\Local\Temp\ccwBJjMd.s 			page 165


 5667 0058 5460     		str	r4, [r2, #4]	@ float
 5668 005a 9460     		str	r4, [r2, #8]	@ float
 5669 005c D460     		str	r4, [r2, #12]	@ float
 5670 005e 1461     		str	r4, [r2, #16]	@ float
 5671              	.LVL422:
 5672              		.loc 23 7 11 view .LVU1533
 5673              	.LBE1280:
 5674              	.LBE1311:
 5675              	.LBB1312:
 5676              	.LBI1307:
 5677              		.loc 23 7 11 is_stmt 1 view .LVU1534
 5678              	.LBB1309:
 5679 0060 1D80     		strh	r5, [r3]	@ movhi
 5680              	.LBE1309:
 5681              	.LBE1312:
 5682              	.LBB1313:
 5683              	.LBB1314:
 5684 0062 5D4A     		ldr	r2, .L208+44
 5685              	.LBE1314:
 5686              	.LBE1313:
 5687              	.LBB1316:
 5688              	.LBB1310:
 5689 0064 9D70     		strb	r5, [r3, #2]
 5690 0066 5C60     		str	r4, [r3, #4]	@ float
 5691 0068 9C60     		str	r4, [r3, #8]	@ float
 5692 006a DC60     		str	r4, [r3, #12]	@ float
 5693 006c 1C61     		str	r4, [r3, #16]	@ float
 5694              	.LVL423:
 5695              		.loc 23 7 11 is_stmt 0 view .LVU1535
 5696              	.LBE1310:
 5697              	.LBE1316:
 5698              	.LBB1317:
 5699              	.LBI1313:
 5700              		.loc 23 7 11 is_stmt 1 view .LVU1536
 5701              	.LBE1317:
 5702              	.LBB1318:
 5703              	.LBB1319:
 5704 006e 5B4B     		ldr	r3, .L208+48
 5705              	.LBE1319:
 5706              	.LBE1318:
 5707              	.LBB1322:
 5708              	.LBB1315:
 5709 0070 1580     		strh	r5, [r2]	@ movhi
 5710 0072 9570     		strb	r5, [r2, #2]
 5711 0074 5460     		str	r4, [r2, #4]	@ float
 5712 0076 9460     		str	r4, [r2, #8]	@ float
 5713 0078 D460     		str	r4, [r2, #12]	@ float
 5714 007a 1461     		str	r4, [r2, #16]	@ float
 5715              	.LVL424:
 5716              		.loc 23 7 11 is_stmt 0 view .LVU1537
 5717              	.LBE1315:
 5718              	.LBE1322:
 5719              	.LBB1323:
 5720              	.LBI1318:
 5721              		.loc 23 7 11 is_stmt 1 view .LVU1538
 5722              	.LBB1320:
 5723 007c 1D80     		strh	r5, [r3]	@ movhi
ARM GAS  C:\Users\danst\AppData\Local\Temp\ccwBJjMd.s 			page 166


 5724              	.LBE1320:
 5725              	.LBE1323:
 5726              	.LBB1324:
 5727              	.LBB1325:
 5728 007e 584A     		ldr	r2, .L208+52
 5729              	.LBE1325:
 5730              	.LBE1324:
 5731              	.LBB1327:
 5732              	.LBB1321:
 5733 0080 9D70     		strb	r5, [r3, #2]
 5734 0082 5C60     		str	r4, [r3, #4]	@ float
 5735 0084 9C60     		str	r4, [r3, #8]	@ float
 5736 0086 DC60     		str	r4, [r3, #12]	@ float
 5737 0088 1C61     		str	r4, [r3, #16]	@ float
 5738              	.LVL425:
 5739              		.loc 23 7 11 is_stmt 0 view .LVU1539
 5740              	.LBE1321:
 5741              	.LBE1327:
 5742              	.LBB1328:
 5743              	.LBI1324:
 5744              		.loc 23 7 11 is_stmt 1 view .LVU1540
 5745              	.LBE1328:
 5746              	.LBB1329:
 5747              	.LBB1330:
 5748 008a 564B     		ldr	r3, .L208+56
 5749              	.LBE1330:
 5750              	.LBE1329:
 5751              	.LBB1333:
 5752              	.LBB1326:
 5753 008c 1580     		strh	r5, [r2]	@ movhi
 5754 008e 9570     		strb	r5, [r2, #2]
 5755 0090 5460     		str	r4, [r2, #4]	@ float
 5756 0092 9460     		str	r4, [r2, #8]	@ float
 5757 0094 D460     		str	r4, [r2, #12]	@ float
 5758 0096 1461     		str	r4, [r2, #16]	@ float
 5759              	.LVL426:
 5760              		.loc 23 7 11 is_stmt 0 view .LVU1541
 5761              	.LBE1326:
 5762              	.LBE1333:
 5763              	.LBB1334:
 5764              	.LBI1329:
 5765              		.loc 23 7 11 is_stmt 1 view .LVU1542
 5766              	.LBB1331:
 5767 0098 1D80     		strh	r5, [r3]	@ movhi
 5768              	.LBE1331:
 5769              	.LBE1334:
 5770              	.LBB1335:
 5771              	.LBB1336:
 5772 009a 534A     		ldr	r2, .L208+60
 5773              	.LBE1336:
 5774              	.LBE1335:
 5775              	.LBB1338:
 5776              	.LBB1332:
 5777 009c 9D70     		strb	r5, [r3, #2]
 5778 009e 5C60     		str	r4, [r3, #4]	@ float
 5779 00a0 9C60     		str	r4, [r3, #8]	@ float
 5780 00a2 DC60     		str	r4, [r3, #12]	@ float
ARM GAS  C:\Users\danst\AppData\Local\Temp\ccwBJjMd.s 			page 167


 5781 00a4 1C61     		str	r4, [r3, #16]	@ float
 5782              	.LVL427:
 5783              		.loc 23 7 11 is_stmt 0 view .LVU1543
 5784              	.LBE1332:
 5785              	.LBE1338:
 5786              	.LBB1339:
 5787              	.LBI1335:
 5788              		.loc 23 7 11 is_stmt 1 view .LVU1544
 5789              	.LBE1339:
 5790              	.LBB1340:
 5791              	.LBB1341:
 5792 00a6 514B     		ldr	r3, .L208+64
 5793              	.LBE1341:
 5794              	.LBE1340:
 5795              	.LBB1344:
 5796              	.LBB1337:
 5797 00a8 1580     		strh	r5, [r2]	@ movhi
 5798 00aa 9570     		strb	r5, [r2, #2]
 5799 00ac 5460     		str	r4, [r2, #4]	@ float
 5800 00ae 9460     		str	r4, [r2, #8]	@ float
 5801 00b0 D460     		str	r4, [r2, #12]	@ float
 5802 00b2 1461     		str	r4, [r2, #16]	@ float
 5803              	.LVL428:
 5804              		.loc 23 7 11 is_stmt 0 view .LVU1545
 5805              	.LBE1337:
 5806              	.LBE1344:
 5807              	.LBB1345:
 5808              	.LBI1340:
 5809              		.loc 23 7 11 is_stmt 1 view .LVU1546
 5810              	.LBB1342:
 5811 00b4 1D80     		strh	r5, [r3]	@ movhi
 5812              	.LBE1342:
 5813              	.LBE1345:
 5814              	.LBB1346:
 5815              	.LBB1347:
 5816 00b6 4E4A     		ldr	r2, .L208+68
 5817              	.LBE1347:
 5818              	.LBE1346:
 5819              	.LBB1349:
 5820              	.LBB1343:
 5821 00b8 9D70     		strb	r5, [r3, #2]
 5822 00ba 5C60     		str	r4, [r3, #4]	@ float
 5823 00bc 9C60     		str	r4, [r3, #8]	@ float
 5824 00be DC60     		str	r4, [r3, #12]	@ float
 5825 00c0 1C61     		str	r4, [r3, #16]	@ float
 5826              	.LVL429:
 5827              		.loc 23 7 11 is_stmt 0 view .LVU1547
 5828              	.LBE1343:
 5829              	.LBE1349:
 5830              	.LBB1350:
 5831              	.LBI1346:
 5832              		.loc 23 7 11 is_stmt 1 view .LVU1548
 5833              	.LBE1350:
 5834              	.LBB1351:
 5835              	.LBB1352:
 5836 00c2 4C4B     		ldr	r3, .L208+72
 5837              	.LBE1352:
ARM GAS  C:\Users\danst\AppData\Local\Temp\ccwBJjMd.s 			page 168


 5838              	.LBE1351:
 5839              	.LBB1355:
 5840              	.LBB1348:
 5841 00c4 1580     		strh	r5, [r2]	@ movhi
 5842 00c6 9570     		strb	r5, [r2, #2]
 5843 00c8 5460     		str	r4, [r2, #4]	@ float
 5844 00ca 9460     		str	r4, [r2, #8]	@ float
 5845 00cc D460     		str	r4, [r2, #12]	@ float
 5846 00ce 1461     		str	r4, [r2, #16]	@ float
 5847              	.LVL430:
 5848              		.loc 23 7 11 is_stmt 0 view .LVU1549
 5849              	.LBE1348:
 5850              	.LBE1355:
 5851              	.LBB1356:
 5852              	.LBI1351:
 5853              		.loc 23 7 11 is_stmt 1 view .LVU1550
 5854              	.LBB1353:
 5855 00d0 1D80     		strh	r5, [r3]	@ movhi
 5856              	.LBE1353:
 5857              	.LBE1356:
 5858              	.LBB1357:
 5859              	.LBB1358:
 5860 00d2 494A     		ldr	r2, .L208+76
 5861              	.LBE1358:
 5862              	.LBE1357:
 5863              	.LBB1360:
 5864              	.LBB1354:
 5865 00d4 9D70     		strb	r5, [r3, #2]
 5866 00d6 5C60     		str	r4, [r3, #4]	@ float
 5867 00d8 9C60     		str	r4, [r3, #8]	@ float
 5868 00da DC60     		str	r4, [r3, #12]	@ float
 5869 00dc 1C61     		str	r4, [r3, #16]	@ float
 5870              	.LVL431:
 5871              		.loc 23 7 11 is_stmt 0 view .LVU1551
 5872              	.LBE1354:
 5873              	.LBE1360:
 5874              	.LBB1361:
 5875              	.LBI1357:
 5876              		.loc 23 7 11 is_stmt 1 view .LVU1552
 5877              	.LBE1361:
 5878              	.LBB1362:
 5879              	.LBB1363:
 5880 00de 474B     		ldr	r3, .L208+80
 5881              	.LBE1363:
 5882              	.LBE1362:
 5883              	.LBB1365:
 5884              	.LBB1359:
 5885 00e0 1580     		strh	r5, [r2]	@ movhi
 5886 00e2 9570     		strb	r5, [r2, #2]
 5887 00e4 5460     		str	r4, [r2, #4]	@ float
 5888 00e6 9460     		str	r4, [r2, #8]	@ float
 5889 00e8 D460     		str	r4, [r2, #12]	@ float
 5890 00ea 1461     		str	r4, [r2, #16]	@ float
 5891              	.LVL432:
 5892              		.loc 23 7 11 is_stmt 0 view .LVU1553
 5893              	.LBE1359:
 5894              	.LBE1365:
ARM GAS  C:\Users\danst\AppData\Local\Temp\ccwBJjMd.s 			page 169


 5895              	.LBB1366:
 5896              	.LBI1362:
 5897              		.loc 23 7 11 is_stmt 1 view .LVU1554
 5898              	.LBE1366:
 5899              	.LBB1367:
 5900              	.LBB1368:
 5901 00ec 444A     		ldr	r2, .L208+84
 5902              	.LBE1368:
 5903              	.LBE1367:
 5904              	.LBB1370:
 5905              	.LBB1364:
 5906 00ee 1D80     		strh	r5, [r3]	@ movhi
 5907 00f0 9D70     		strb	r5, [r3, #2]
 5908 00f2 5C60     		str	r4, [r3, #4]	@ float
 5909 00f4 9C60     		str	r4, [r3, #8]	@ float
 5910 00f6 DC60     		str	r4, [r3, #12]	@ float
 5911 00f8 1C61     		str	r4, [r3, #16]	@ float
 5912              	.LVL433:
 5913              		.loc 23 7 11 is_stmt 0 view .LVU1555
 5914              	.LBE1364:
 5915              	.LBE1370:
 5916              	.LBB1371:
 5917              	.LBI1367:
 5918              		.loc 23 7 11 is_stmt 1 view .LVU1556
 5919              	.LBE1371:
 5920              	.LBB1372:
 5921              	.LBB1373:
 5922 00fa 424B     		ldr	r3, .L208+88
 5923              	.LBE1373:
 5924              	.LBE1372:
  72:takshaka.cpp  **** Oscillator subOsc, lfo;
 5925              		.loc 16 72 12 is_stmt 0 view .LVU1557
 5926 00fc DFF84081 		ldr	r8, .L208+148
 5927              	.LBB1375:
 5928              	.LBB1374:
 5929              		.loc 23 7 11 view .LVU1558
 5930 0100 1D80     		strh	r5, [r3]	@ movhi
 5931 0102 9D70     		strb	r5, [r3, #2]
 5932 0104 5C60     		str	r4, [r3, #4]	@ float
 5933 0106 9C60     		str	r4, [r3, #8]	@ float
 5934 0108 DC60     		str	r4, [r3, #12]	@ float
 5935 010a 1C61     		str	r4, [r3, #16]	@ float
 5936              	.LBE1374:
 5937              	.LBE1375:
 5938              	.LBB1376:
 5939              	.LBB1369:
 5940 010c 1580     		strh	r5, [r2]	@ movhi
 5941 010e 9570     		strb	r5, [r2, #2]
 5942 0110 5460     		str	r4, [r2, #4]	@ float
 5943 0112 9460     		str	r4, [r2, #8]	@ float
 5944 0114 D460     		str	r4, [r2, #12]	@ float
 5945 0116 1461     		str	r4, [r2, #16]	@ float
 5946              	.LVL434:
 5947              		.loc 23 7 11 view .LVU1559
 5948              	.LBE1369:
 5949              	.LBE1376:
 5950              	.LBB1377:
ARM GAS  C:\Users\danst\AppData\Local\Temp\ccwBJjMd.s 			page 170


 5951              	.LBI1372:
 5952              		.loc 23 7 11 is_stmt 1 view .LVU1560
 5953              		.loc 23 7 11 is_stmt 0 view .LVU1561
 5954              	.LBE1377:
  71:takshaka.cpp  **** SuperSawOsc superSaw;
 5955              		.loc 16 71 13 view .LVU1562
 5956 0118 FFF7FEFF 		bl	_ZN7daisysp11SuperSawOscC1Ev
 5957              	.LVL435:
 5958 011c 3246     		mov	r2, r6
 5959 011e 3846     		mov	r0, r7
 5960 0120 3949     		ldr	r1, .L208+92
 5961 0122 FFF7FEFF 		bl	__aeabi_atexit
 5962              	.LVL436:
 5963              	.LBB1378:
 5964              	.LBI1378:
  15:../../DaisySP//Source/Synthesis/oscillator.h ****     ~Oscillator() {}
 5965              		.loc 8 15 5 is_stmt 1 view .LVU1563
  15:../../DaisySP//Source/Synthesis/oscillator.h ****     ~Oscillator() {}
 5966              		.loc 8 15 5 is_stmt 0 view .LVU1564
 5967              	.LBE1378:
  73:takshaka.cpp  **** Svf filter1, filter2;
 5968              		.loc 16 73 5 view .LVU1565
 5969 0126 394F     		ldr	r7, .L208+96
  72:takshaka.cpp  **** Oscillator subOsc, lfo;
 5970              		.loc 16 72 12 view .LVU1566
 5971 0128 3246     		mov	r2, r6
 5972 012a 4146     		mov	r1, r8
 5973 012c 3848     		ldr	r0, .L208+100
 5974 012e FFF7FEFF 		bl	__aeabi_atexit
 5975              	.LVL437:
 5976              	.LBB1379:
 5977              	.LBI1379:
  15:../../DaisySP//Source/Synthesis/oscillator.h ****     ~Oscillator() {}
 5978              		.loc 8 15 5 is_stmt 1 view .LVU1567
  15:../../DaisySP//Source/Synthesis/oscillator.h ****     ~Oscillator() {}
 5979              		.loc 8 15 5 is_stmt 0 view .LVU1568
 5980              	.LBE1379:
  72:takshaka.cpp  **** Oscillator subOsc, lfo;
 5981              		.loc 16 72 20 view .LVU1569
 5982 0132 3246     		mov	r2, r6
 5983 0134 4146     		mov	r1, r8
 5984 0136 3748     		ldr	r0, .L208+104
 5985 0138 FFF7FEFF 		bl	__aeabi_atexit
 5986              	.LVL438:
 5987              	.LBB1380:
 5988              	.LBI1380:
  21:../../DaisySP//Source/Filters/svf.h ****     ~Svf() {}
 5989              		.loc 9 21 5 is_stmt 1 view .LVU1570
  21:../../DaisySP//Source/Filters/svf.h ****     ~Svf() {}
 5990              		.loc 9 21 5 is_stmt 0 view .LVU1571
 5991              	.LBE1380:
  73:takshaka.cpp  **** Svf filter1, filter2;
 5992              		.loc 16 73 5 view .LVU1572
 5993 013c 3246     		mov	r2, r6
 5994 013e 3946     		mov	r1, r7
 5995 0140 3548     		ldr	r0, .L208+108
 5996 0142 FFF7FEFF 		bl	__aeabi_atexit
ARM GAS  C:\Users\danst\AppData\Local\Temp\ccwBJjMd.s 			page 171


 5997              	.LVL439:
 5998              	.LBB1381:
 5999              	.LBI1381:
  21:../../DaisySP//Source/Filters/svf.h ****     ~Svf() {}
 6000              		.loc 9 21 5 is_stmt 1 view .LVU1573
  21:../../DaisySP//Source/Filters/svf.h ****     ~Svf() {}
 6001              		.loc 9 21 5 is_stmt 0 view .LVU1574
 6002              	.LBE1381:
  73:takshaka.cpp  **** Svf filter1, filter2;
 6003              		.loc 16 73 14 view .LVU1575
 6004 0146 3246     		mov	r2, r6
 6005 0148 3946     		mov	r1, r7
 6006 014a 3448     		ldr	r0, .L208+112
 6007 014c FFF7FEFF 		bl	__aeabi_atexit
 6008              	.LVL440:
 6009              	.LBB1382:
 6010              	.LBI1382:
  19:../../DaisySP//Source/Filters/comb.h ****     ~Comb() {}
 6011              		.loc 11 19 5 is_stmt 1 view .LVU1576
  19:../../DaisySP//Source/Filters/comb.h ****     ~Comb() {}
 6012              		.loc 11 19 5 is_stmt 0 view .LVU1577
 6013              	.LBE1382:
  74:takshaka.cpp  **** Comb combFilter;
 6014              		.loc 16 74 6 view .LVU1578
 6015 0150 3246     		mov	r2, r6
 6016 0152 3349     		ldr	r1, .L208+116
 6017 0154 3348     		ldr	r0, .L208+120
 6018 0156 FFF7FEFF 		bl	__aeabi_atexit
 6019              	.LVL441:
 6020              	.LBB1383:
 6021              	.LBI1383:
  23:../../DaisySP//Source/Effects/overdrive.h ****     ~Overdrive() {}
 6022              		.loc 10 23 5 is_stmt 1 view .LVU1579
  23:../../DaisySP//Source/Effects/overdrive.h ****     ~Overdrive() {}
 6023              		.loc 10 23 5 is_stmt 0 view .LVU1580
 6024              	.LBE1383:
  75:takshaka.cpp  **** Overdrive distortion;
 6025              		.loc 16 75 11 view .LVU1581
 6026 015a 3246     		mov	r2, r6
 6027 015c 3249     		ldr	r1, .L208+124
 6028 015e 3348     		ldr	r0, .L208+128
 6029 0160 FFF7FEFF 		bl	__aeabi_atexit
 6030              	.LVL442:
 6031              	.LBB1384:
 6032              	.LBI1384:
  36:../../DaisySP//Source/Control/adsr.h ****     ~Adsr() {}
 6033              		.loc 7 36 5 is_stmt 1 view .LVU1582
 6034              	.LBB1385:
 6035              	.LBB1386:
  36:../../DaisySP//Source/Control/adsr.h ****     ~Adsr() {}
 6036              		.loc 7 36 12 is_stmt 0 view .LVU1583
 6037 0164 324F     		ldr	r7, .L208+132
 6038 0166 3348     		ldr	r0, .L208+136
 6039              	.LBE1386:
 6040              	.LBE1385:
 6041              	.LBE1384:
  76:takshaka.cpp  **** Adsr pounce, ampEnv;
ARM GAS  C:\Users\danst\AppData\Local\Temp\ccwBJjMd.s 			page 172


 6042              		.loc 16 76 6 view .LVU1584
 6043 0168 3246     		mov	r2, r6
 6044 016a 3349     		ldr	r1, .L208+140
 6045              	.LBB1389:
 6046              	.LBB1388:
 6047              	.LBB1387:
  36:../../DaisySP//Source/Control/adsr.h ****     ~Adsr() {}
 6048              		.loc 7 36 12 view .LVU1585
 6049 016c 0460     		str	r4, [r0]	@ float
 6050 016e 4460     		str	r4, [r0, #4]	@ float
 6051 0170 8760     		str	r7, [r0, #8]	@ float
 6052 0172 C460     		str	r4, [r0, #12]	@ float
 6053 0174 0761     		str	r7, [r0, #16]	@ float
 6054 0176 4761     		str	r7, [r0, #20]	@ float
 6055 0178 8761     		str	r7, [r0, #24]	@ float
 6056 017a C461     		str	r4, [r0, #28]	@ float
 6057 017c 0462     		str	r4, [r0, #32]	@ float
 6058 017e 4462     		str	r4, [r0, #36]	@ float
 6059              	.LBE1387:
 6060 0180 8585     		strh	r5, [r0, #44]	@ movhi
 6061              	.LVL443:
  36:../../DaisySP//Source/Control/adsr.h ****     ~Adsr() {}
 6062              		.loc 7 36 12 view .LVU1586
 6063              	.LBE1388:
 6064              	.LBE1389:
  76:takshaka.cpp  **** Adsr pounce, ampEnv;
 6065              		.loc 16 76 6 view .LVU1587
 6066 0182 FFF7FEFF 		bl	__aeabi_atexit
 6067              	.LVL444:
 6068              	.LBB1390:
 6069              	.LBI1390:
  36:../../DaisySP//Source/Control/adsr.h ****     ~Adsr() {}
 6070              		.loc 7 36 5 is_stmt 1 view .LVU1588
 6071              	.LBB1391:
 6072              	.LBB1392:
  36:../../DaisySP//Source/Control/adsr.h ****     ~Adsr() {}
 6073              		.loc 7 36 12 is_stmt 0 view .LVU1589
 6074 0186 2D48     		ldr	r0, .L208+144
 6075              	.LBE1392:
 6076              	.LBE1391:
 6077              	.LBE1390:
  76:takshaka.cpp  **** Adsr pounce, ampEnv;
 6078              		.loc 16 76 14 view .LVU1590
 6079 0188 3246     		mov	r2, r6
 6080 018a 2B49     		ldr	r1, .L208+140
 6081              	.LBB1395:
 6082              	.LBB1394:
  36:../../DaisySP//Source/Control/adsr.h ****     ~Adsr() {}
 6083              		.loc 7 36 12 view .LVU1591
 6084 018c 8585     		strh	r5, [r0, #44]	@ movhi
 6085              	.LVL445:
 6086              	.LBB1393:
  36:../../DaisySP//Source/Control/adsr.h ****     ~Adsr() {}
 6087              		.loc 7 36 12 view .LVU1592
 6088 018e 0460     		str	r4, [r0]	@ float
 6089 0190 4460     		str	r4, [r0, #4]	@ float
 6090 0192 8760     		str	r7, [r0, #8]	@ float
ARM GAS  C:\Users\danst\AppData\Local\Temp\ccwBJjMd.s 			page 173


 6091 0194 C460     		str	r4, [r0, #12]	@ float
 6092 0196 0761     		str	r7, [r0, #16]	@ float
 6093 0198 4761     		str	r7, [r0, #20]	@ float
 6094 019a 8761     		str	r7, [r0, #24]	@ float
 6095 019c C461     		str	r4, [r0, #28]	@ float
 6096 019e 0462     		str	r4, [r0, #32]	@ float
 6097 01a0 4462     		str	r4, [r0, #36]	@ float
 6098              	.LBE1393:
 6099              	.LBE1394:
 6100              	.LBE1395:
 6101              	.LBE1396:
 6102              	.LBE1398:
 6103              		.loc 16 365 1 view .LVU1593
 6104 01a2 BDE8F041 		pop	{r4, r5, r6, r7, r8, lr}
 6105              		.cfi_restore 14
 6106              		.cfi_restore 8
 6107              		.cfi_restore 7
 6108              		.cfi_restore 6
 6109              		.cfi_restore 5
 6110              		.cfi_restore 4
 6111              		.cfi_def_cfa_offset 0
 6112              	.LBB1399:
 6113              	.LBB1397:
  76:takshaka.cpp  **** Adsr pounce, ampEnv;
 6114              		.loc 16 76 14 view .LVU1594
 6115 01a6 FFF7FEBF 		b	__aeabi_atexit
 6116              	.LVL446:
 6117              	.L209:
 6118 01aa 00BF     		.align	2
 6119              	.L208:
 6120 01ac 00000000 		.word	.LANCHOR21
 6121 01b0 00000000 		.word	__dso_handle
 6122 01b4 00000000 		.word	_ZN5daisy9DaisySeedD1Ev
 6123 01b8 00000000 		.word	midi
 6124 01bc 80707FF0 		.word	-260083584
 6125 01c0 00000000 		.word	.LANCHOR3
 6126 01c4 00000000 		.word	_ZN5daisy11MidiHandlerINS_16MidiUsbTransportEED1Ev
 6127 01c8 00000000 		.word	_ZN5daisy6SwitchD1Ev
 6128 01cc 00000000 		.word	.LANCHOR36
 6129 01d0 00000000 		.word	.LANCHOR6
 6130 01d4 00000000 		.word	.LANCHOR22
 6131 01d8 00000000 		.word	.LANCHOR10
 6132 01dc 00000000 		.word	.LANCHOR15
 6133 01e0 00000000 		.word	.LANCHOR23
 6134 01e4 00000000 		.word	.LANCHOR16
 6135 01e8 00000000 		.word	.LANCHOR24
 6136 01ec 00000000 		.word	.LANCHOR25
 6137 01f0 00000000 		.word	.LANCHOR26
 6138 01f4 00000000 		.word	.LANCHOR27
 6139 01f8 00000000 		.word	.LANCHOR28
 6140 01fc 00000000 		.word	.LANCHOR29
 6141 0200 00000000 		.word	.LANCHOR19
 6142 0204 00000000 		.word	.LANCHOR18
 6143 0208 00000000 		.word	_ZN7daisysp11SuperSawOscD1Ev
 6144 020c 00000000 		.word	_ZN7daisysp3SvfD1Ev
 6145 0210 00000000 		.word	.LANCHOR7
 6146 0214 00000000 		.word	.LANCHOR8
ARM GAS  C:\Users\danst\AppData\Local\Temp\ccwBJjMd.s 			page 174


 6147 0218 00000000 		.word	.LANCHOR12
 6148 021c 00000000 		.word	.LANCHOR13
 6149 0220 00000000 		.word	_ZN7daisysp4CombD1Ev
 6150 0224 00000000 		.word	.LANCHOR14
 6151 0228 00000000 		.word	_ZN7daisysp9OverdriveD1Ev
 6152 022c 00000000 		.word	.LANCHOR9
 6153 0230 000080BF 		.word	-1082130432
 6154 0234 00000000 		.word	.LANCHOR1
 6155 0238 00000000 		.word	_ZN7daisysp4AdsrD1Ev
 6156 023c 00000000 		.word	.LANCHOR17
 6157 0240 00000000 		.word	_ZN7daisysp10OscillatorD1Ev
 6158              	.LBE1397:
 6159              	.LBE1399:
 6160              		.cfi_endproc
 6161              	.LFE5386:
 6163              		.section	.init_array,"aw",%init_array
 6164              		.align	2
 6165 0000 00000000 		.word	_GLOBAL__sub_I_driftValue(target1)
 6166              		.global	ampEnv
 6167              		.global	pounce
 6168              		.global	distortion
 6169              		.global	combFilter
 6170              		.global	filter2
 6171              		.global	filter1
 6172              		.global	lfo
 6173              		.global	subOsc
 6174              		.global	superSaw
 6175              		.global	ampEnvModSmartKnob
 6176              		.global	ampSmartKnob
 6177              		.global	ampEnvDecaySmartKnob
 6178              		.global	pounceDecaySmartKnob
 6179              		.global	ampEnvSustainSmartKnob
 6180              		.global	pounceSustainSmartKnob
 6181              		.global	ampEnvAttackSmartKnob
 6182              		.global	pounceAttackSmartKnob
 6183              		.global	filterPolesSmartKnob
 6184              		.global	filterResSmartKnob
 6185              		.global	filterTypeSmartKnob
 6186              		.global	filterCutoffSmartKnob
 6187              		.global	subTypeSmartKnob
 6188              		.global	subMixSmartKnob
 6189              		.global	modeSwitch
 6190              		.global	midi
 6191              		.global	hw
 6192              		.global	envGate
 6193              		.global	lastOperationMode
 6194              		.global	operationMode
 6195              		.global	debugMode
 6196              		.global	midiNote
 6197              		.global	subOscOctave
 6198              		.global	combFilterBuffer
 6199              		.global	slitherDriftModValue
 6200              		.global	slitherValue
 6201              		.global	midiFreq
 6202              		.global	driveValue
 6203              		.global	shiftValue
 6204              		.global	driftValue
ARM GAS  C:\Users\danst\AppData\Local\Temp\ccwBJjMd.s 			page 175


 6205              		.section	.rodata
 6206              		.align	2
 6207              		.set	.LANCHOR20,. + 0
 6208              	.LC0:
 6209 0000 D053E1BD 		.word	-1109306416
 6210 0004 89C980BD 		.word	-1115633271
 6211 0008 E5EF9FBC 		.word	-1130369051
 6212 000c 00000000 		.word	0
 6213 0010 EE1EA33C 		.word	1017323246
 6214 0014 20A17E3D 		.word	1031708960
 6215 0018 0410DC3D 		.word	1037832196
 6216              	.LC1:
 6217 001c CDCCCC3E 		.word	1053609165
 6218 0020 CDCCCC3E 		.word	1053609165
 6219 0024 CDCCCC3E 		.word	1053609165
 6220 0028 CDCCCC3E 		.word	1053609165
 6221 002c 0000003F 		.word	1056964608
 6222 0030 0000003F 		.word	1056964608
 6223 0034 6666E63E 		.word	1055286886
 6224              	.LC2:
 6225 0038 00000000 		.word	0
 6226 003c 297A1E3C 		.word	1008630313
 6227 0040 7885B43C 		.word	1018463608
 6228 0044 6A1D0B3D 		.word	1024138602
 6229 0048 308B3F3D 		.word	1027574576
 6230 004c 782F723D 		.word	1030893432
 6231 0050 D269923D 		.word	1033005522
 6232 0054 E8BBAB3D 		.word	1034664936
 6233 0058 F618C63D 		.word	1036392694
 6234 005c 26E3F83D 		.word	1039721254
 6235 0060 76A8163E 		.word	1041672310
 6236 0064 1119463E 		.word	1044781329
 6237 0068 9142793E 		.word	1048134289
 6238 006c 1A36963E 		.word	1050031642
 6239 0070 EACAAF3E 		.word	1051708138
 6240 0074 151DC93E 		.word	1053367573
 6241 0078 0000803F 		.word	1065353216
 6242              	.LC3:
 6243 007c 601F1D3D 		.word	1025318752
 6244 0080 8FC2F53D 		.word	1039516303
 6245 0084 5C8F423E 		.word	1044549468
 6246 0088 0000803E 		.word	1048576000
 6247 008c 52B89E3E 		.word	1050589266
 6248 0090 A470BD3E 		.word	1052602532
 6249 0094 3D0AD73E 		.word	1054280253
 6250 0098 1F85EB3E 		.word	1055622431
 6251 009c 0000003F 		.word	1056964608
 6252 00a0 14AE073F 		.word	1057467924
 6253 00a4 295C0F3F 		.word	1057971241
 6254 00a8 E17A143F 		.word	1058306785
 6255 00ac 3D0A173F 		.word	1058474557
 6256 00b0 9A99193F 		.word	1058642330
 6257 00b4 48E11A3F 		.word	1058726216
 6258 00b8 9A99193F 		.word	1058642330
 6259 00bc 3D0A173F 		.word	1058474557
 6260              		.section	.bss.ampEnv,"aw",%nobits
 6261              		.align	2
ARM GAS  C:\Users\danst\AppData\Local\Temp\ccwBJjMd.s 			page 176


 6262              		.set	.LANCHOR17,. + 0
 6265              	ampEnv:
 6266 0000 00000000 		.space	48
 6266      00000000 
 6266      00000000 
 6266      00000000 
 6266      00000000 
 6267              		.section	.bss.ampEnvAttackSmartKnob,"aw",%nobits
 6268              		.align	2
 6269              		.set	.LANCHOR25,. + 0
 6272              	ampEnvAttackSmartKnob:
 6273 0000 00000000 		.space	24
 6273      00000000 
 6273      00000000 
 6273      00000000 
 6273      00000000 
 6274              		.section	.bss.ampEnvDecaySmartKnob,"aw",%nobits
 6275              		.align	2
 6276              		.set	.LANCHOR29,. + 0
 6279              	ampEnvDecaySmartKnob:
 6280 0000 00000000 		.space	24
 6280      00000000 
 6280      00000000 
 6280      00000000 
 6280      00000000 
 6281              		.section	.bss.ampEnvModSmartKnob,"aw",%nobits
 6282              		.align	2
 6283              		.set	.LANCHOR18,. + 0
 6286              	ampEnvModSmartKnob:
 6287 0000 00000000 		.space	24
 6287      00000000 
 6287      00000000 
 6287      00000000 
 6287      00000000 
 6288              		.section	.bss.ampEnvSustainSmartKnob,"aw",%nobits
 6289              		.align	2
 6290              		.set	.LANCHOR27,. + 0
 6293              	ampEnvSustainSmartKnob:
 6294 0000 00000000 		.space	24
 6294      00000000 
 6294      00000000 
 6294      00000000 
 6294      00000000 
 6295              		.section	.bss.ampSmartKnob,"aw",%nobits
 6296              		.align	2
 6297              		.set	.LANCHOR19,. + 0
 6300              	ampSmartKnob:
 6301 0000 00000000 		.space	24
 6301      00000000 
 6301      00000000 
 6301      00000000 
 6301      00000000 
 6302              		.section	.bss.combFilter,"aw",%nobits
 6303              		.align	2
 6304              		.set	.LANCHOR14,. + 0
 6307              	combFilter:
 6308 0000 00000000 		.space	40
ARM GAS  C:\Users\danst\AppData\Local\Temp\ccwBJjMd.s 			page 177


 6308      00000000 
 6308      00000000 
 6308      00000000 
 6308      00000000 
 6309              		.section	.bss.combFilterBuffer,"aw",%nobits
 6310              		.align	2
 6313              	combFilterBuffer:
 6314 0000 00000000 		.space	38400
 6314      00000000 
 6314      00000000 
 6314      00000000 
 6314      00000000 
 6315              		.section	.bss.debugMode,"aw",%nobits
 6316              		.set	.LANCHOR35,. + 0
 6319              	debugMode:
 6320 0000 00       		.space	1
 6321              		.section	.bss.distortion,"aw",%nobits
 6322              		.align	2
 6323              		.set	.LANCHOR9,. + 0
 6326              	distortion:
 6327 0000 00000000 		.space	12
 6327      00000000 
 6327      00000000 
 6328              		.section	.bss.driftValue,"aw",%nobits
 6329              		.align	2
 6330              		.set	.LANCHOR2,. + 0
 6333              	driftValue:
 6334 0000 00000000 		.space	4
 6335              		.section	.bss.driveValue,"aw",%nobits
 6336              		.align	2
 6337              		.set	.LANCHOR30,. + 0
 6340              	driveValue:
 6341 0000 00000000 		.space	4
 6342              		.section	.bss.envGate,"aw",%nobits
 6343              		.set	.LANCHOR0,. + 0
 6346              	envGate:
 6347 0000 00       		.space	1
 6348              		.section	.bss.filter1,"aw",%nobits
 6349              		.align	2
 6350              		.set	.LANCHOR12,. + 0
 6353              	filter1:
 6354 0000 00000000 		.space	76
 6354      00000000 
 6354      00000000 
 6354      00000000 
 6354      00000000 
 6355              		.section	.bss.filter2,"aw",%nobits
 6356              		.align	2
 6357              		.set	.LANCHOR13,. + 0
 6360              	filter2:
 6361 0000 00000000 		.space	76
 6361      00000000 
 6361      00000000 
 6361      00000000 
 6361      00000000 
 6362              		.section	.bss.filterCutoffSmartKnob,"aw",%nobits
 6363              		.align	2
ARM GAS  C:\Users\danst\AppData\Local\Temp\ccwBJjMd.s 			page 178


 6364              		.set	.LANCHOR10,. + 0
 6367              	filterCutoffSmartKnob:
 6368 0000 00000000 		.space	24
 6368      00000000 
 6368      00000000 
 6368      00000000 
 6368      00000000 
 6369              		.section	.bss.filterPolesSmartKnob,"aw",%nobits
 6370              		.align	2
 6371              		.set	.LANCHOR16,. + 0
 6374              	filterPolesSmartKnob:
 6375 0000 00000000 		.space	24
 6375      00000000 
 6375      00000000 
 6375      00000000 
 6375      00000000 
 6376              		.section	.bss.filterResSmartKnob,"aw",%nobits
 6377              		.align	2
 6378              		.set	.LANCHOR23,. + 0
 6381              	filterResSmartKnob:
 6382 0000 00000000 		.space	24
 6382      00000000 
 6382      00000000 
 6382      00000000 
 6382      00000000 
 6383              		.section	.bss.filterTypeSmartKnob,"aw",%nobits
 6384              		.align	2
 6385              		.set	.LANCHOR15,. + 0
 6388              	filterTypeSmartKnob:
 6389 0000 00000000 		.space	24
 6389      00000000 
 6389      00000000 
 6389      00000000 
 6389      00000000 
 6390              		.section	.bss.hw,"aw",%nobits
 6391              		.align	2
 6392              		.set	.LANCHOR21,. + 0
 6395              	hw:
 6396 0000 00000000 		.space	60
 6396      00000000 
 6396      00000000 
 6396      00000000 
 6396      00000000 
 6397              		.section	.bss.lfo,"aw",%nobits
 6398              		.align	2
 6399              		.set	.LANCHOR8,. + 0
 6402              	lfo:
 6403 0000 00000000 		.space	40
 6403      00000000 
 6403      00000000 
 6403      00000000 
 6403      00000000 
 6404              		.section	.bss.midi,"aw",%nobits
 6405              		.align	2
 6408              	midi:
 6409 0000 00000000 		.space	37044
 6409      00000000 
ARM GAS  C:\Users\danst\AppData\Local\Temp\ccwBJjMd.s 			page 179


 6409      00000000 
 6409      00000000 
 6409      00000000 
 6410              		.section	.bss.midiFreq,"aw",%nobits
 6411              		.align	2
 6412              		.set	.LANCHOR11,. + 0
 6415              	midiFreq:
 6416 0000 00000000 		.space	4
 6417              		.section	.bss.modeSwitch,"aw",%nobits
 6418              		.align	2
 6419              		.set	.LANCHOR36,. + 0
 6422              	modeSwitch:
 6423 0000 00000000 		.space	16
 6423      00000000 
 6423      00000000 
 6423      00000000 
 6424              		.section	.bss.pounce,"aw",%nobits
 6425              		.align	2
 6426              		.set	.LANCHOR1,. + 0
 6429              	pounce:
 6430 0000 00000000 		.space	48
 6430      00000000 
 6430      00000000 
 6430      00000000 
 6430      00000000 
 6431              		.section	.bss.pounceAttackSmartKnob,"aw",%nobits
 6432              		.align	2
 6433              		.set	.LANCHOR24,. + 0
 6436              	pounceAttackSmartKnob:
 6437 0000 00000000 		.space	24
 6437      00000000 
 6437      00000000 
 6437      00000000 
 6437      00000000 
 6438              		.section	.bss.pounceDecaySmartKnob,"aw",%nobits
 6439              		.align	2
 6440              		.set	.LANCHOR28,. + 0
 6443              	pounceDecaySmartKnob:
 6444 0000 00000000 		.space	24
 6444      00000000 
 6444      00000000 
 6444      00000000 
 6444      00000000 
 6445              		.section	.bss.pounceSustainSmartKnob,"aw",%nobits
 6446              		.align	2
 6447              		.set	.LANCHOR26,. + 0
 6450              	pounceSustainSmartKnob:
 6451 0000 00000000 		.space	24
 6451      00000000 
 6451      00000000 
 6451      00000000 
 6451      00000000 
 6452              		.section	.bss.shiftValue,"aw",%nobits
 6453              		.align	2
 6454              		.set	.LANCHOR5,. + 0
 6457              	shiftValue:
 6458 0000 00000000 		.space	4
ARM GAS  C:\Users\danst\AppData\Local\Temp\ccwBJjMd.s 			page 180


 6459              		.section	.bss.slitherDriftModValue,"aw",%nobits
 6460              		.align	2
 6461              		.set	.LANCHOR31,. + 0
 6464              	slitherDriftModValue:
 6465 0000 00000000 		.space	4
 6466              		.section	.bss.slitherValue,"aw",%nobits
 6467              		.align	2
 6468              		.set	.LANCHOR4,. + 0
 6471              	slitherValue:
 6472 0000 00000000 		.space	4
 6473              		.section	.bss.subMixSmartKnob,"aw",%nobits
 6474              		.align	2
 6475              		.set	.LANCHOR6,. + 0
 6478              	subMixSmartKnob:
 6479 0000 00000000 		.space	24
 6479      00000000 
 6479      00000000 
 6479      00000000 
 6479      00000000 
 6480              		.section	.bss.subOsc,"aw",%nobits
 6481              		.align	2
 6482              		.set	.LANCHOR7,. + 0
 6485              	subOsc:
 6486 0000 00000000 		.space	40
 6486      00000000 
 6486      00000000 
 6486      00000000 
 6486      00000000 
 6487              		.section	.bss.subTypeSmartKnob,"aw",%nobits
 6488              		.align	2
 6489              		.set	.LANCHOR22,. + 0
 6492              	subTypeSmartKnob:
 6493 0000 00000000 		.space	24
 6493      00000000 
 6493      00000000 
 6493      00000000 
 6493      00000000 
 6494              		.section	.bss.superSaw,"aw",%nobits
 6495              		.align	2
 6496              		.set	.LANCHOR3,. + 0
 6499              	superSaw:
 6500 0000 00000000 		.space	548
 6500      00000000 
 6500      00000000 
 6500      00000000 
 6500      00000000 
 6501              		.section	.data.lastOperationMode,"aw"
 6502              		.set	.LANCHOR37,. + 0
 6505              	lastOperationMode:
 6506 0000 01       		.byte	1
 6507              		.section	.data.midiNote,"aw"
 6508              		.align	2
 6509              		.set	.LANCHOR34,. + 0
 6512              	midiNote:
 6513 0000 30000000 		.word	48
 6514              		.section	.data.operationMode,"aw"
 6515              		.set	.LANCHOR33,. + 0
ARM GAS  C:\Users\danst\AppData\Local\Temp\ccwBJjMd.s 			page 181


 6518              	operationMode:
 6519 0000 01       		.byte	1
 6520              		.section	.data.subOscOctave,"aw"
 6521              		.align	2
 6522              		.set	.LANCHOR32,. + 0
 6525              	subOscOctave:
 6526 0000 01000000 		.word	1
 6527              		.text
 6528              	.Letext0:
 6529              		.file 26 "c:\\users\\danst\\documents\\daisytoolchain-0.3.3\\windows\\arm-none-eabi\\include\\mach
 6530              		.file 27 "c:\\users\\danst\\documents\\daisytoolchain-0.3.3\\windows\\arm-none-eabi\\include\\sys\
 6531              		.file 28 "c:\\users\\danst\\documents\\daisytoolchain-0.3.3\\windows\\arm-none-eabi\\include\\stdi
 6532              		.file 29 "c:\\users\\danst\\documents\\daisytoolchain-0.3.3\\windows\\lib\\gcc\\arm-none-eabi\\10.
 6533              		.file 30 "c:\\users\\danst\\documents\\daisytoolchain-0.3.3\\windows\\arm-none-eabi\\include\\c++\
 6534              		.file 31 "c:\\users\\danst\\documents\\daisytoolchain-0.3.3\\windows\\arm-none-eabi\\include\\c++\
 6535              		.file 32 "c:\\users\\danst\\documents\\daisytoolchain-0.3.3\\windows\\arm-none-eabi\\include\\c++\
 6536              		.file 33 "c:\\users\\danst\\documents\\daisytoolchain-0.3.3\\windows\\arm-none-eabi\\include\\c++\
 6537              		.file 34 "c:\\users\\danst\\documents\\daisytoolchain-0.3.3\\windows\\arm-none-eabi\\include\\c++\
 6538              		.file 35 "c:\\users\\danst\\documents\\daisytoolchain-0.3.3\\windows\\arm-none-eabi\\include\\c++\
 6539              		.file 36 "c:\\users\\danst\\documents\\daisytoolchain-0.3.3\\windows\\arm-none-eabi\\include\\c++\
 6540              		.file 37 "c:\\users\\danst\\documents\\daisytoolchain-0.3.3\\windows\\arm-none-eabi\\include\\c++\
 6541              		.file 38 "c:\\users\\danst\\documents\\daisytoolchain-0.3.3\\windows\\arm-none-eabi\\include\\c++\
 6542              		.file 39 "c:\\users\\danst\\documents\\daisytoolchain-0.3.3\\windows\\arm-none-eabi\\include\\c++\
 6543              		.file 40 "c:\\users\\danst\\documents\\daisytoolchain-0.3.3\\windows\\arm-none-eabi\\include\\c++\
 6544              		.file 41 "c:\\users\\danst\\documents\\daisytoolchain-0.3.3\\windows\\arm-none-eabi\\include\\c++\
 6545              		.file 42 "c:\\users\\danst\\documents\\daisytoolchain-0.3.3\\windows\\arm-none-eabi\\include\\c++\
 6546              		.file 43 "c:\\users\\danst\\documents\\daisytoolchain-0.3.3\\windows\\arm-none-eabi\\include\\c++\
 6547              		.file 44 "c:\\users\\danst\\documents\\daisytoolchain-0.3.3\\windows\\arm-none-eabi\\include\\c++\
 6548              		.file 45 "c:\\users\\danst\\documents\\daisytoolchain-0.3.3\\windows\\arm-none-eabi\\include\\c++\
 6549              		.file 46 "c:\\users\\danst\\documents\\daisytoolchain-0.3.3\\windows\\arm-none-eabi\\include\\c++\
 6550              		.file 47 "c:\\users\\danst\\documents\\daisytoolchain-0.3.3\\windows\\arm-none-eabi\\include\\sys\
 6551              		.file 48 "c:\\users\\danst\\documents\\daisytoolchain-0.3.3\\windows\\arm-none-eabi\\include\\sys\
 6552              		.file 49 "c:\\users\\danst\\documents\\daisytoolchain-0.3.3\\windows\\arm-none-eabi\\include\\sys\
 6553              		.file 50 "c:\\users\\danst\\documents\\daisytoolchain-0.3.3\\windows\\arm-none-eabi\\include\\math
 6554              		.file 51 "c:\\users\\danst\\documents\\daisytoolchain-0.3.3\\windows\\arm-none-eabi\\include\\stdl
 6555              		.file 52 "c:\\users\\danst\\documents\\daisytoolchain-0.3.3\\windows\\arm-none-eabi\\include\\c++\
 6556              		.file 53 "c:\\users\\danst\\documents\\daisytoolchain-0.3.3\\windows\\arm-none-eabi\\include\\c++\
 6557              		.file 54 "../../libDaisy//src/per/tim.h"
 6558              		.file 55 "../../libDaisy//src/per/sai.h"
 6559              		.file 56 "../../libDaisy//src/hid/logger_impl.h"
 6560              		.file 57 "../../libDaisy//src/util/wav_format.h"
 6561              		.file 58 "../../libDaisy//src/dev/max11300.h"
 6562              		.file 59 "../../libDaisy//src/hid/logger.h"
 6563              		.file 60 "../../libDaisy//src/per/gpio.h"
 6564              		.file 61 "../../libDaisy//src/dev/sdram.h"
 6565              		.file 62 "c:\\users\\danst\\documents\\daisytoolchain-0.3.3\\windows\\lib\\gcc\\arm-none-eabi\\10.
 6566              		.file 63 "c:\\users\\danst\\documents\\daisytoolchain-0.3.3\\windows\\arm-none-eabi\\include\\stdi
 6567              		.file 64 "c:\\users\\danst\\documents\\daisytoolchain-0.3.3\\windows\\arm-none-eabi\\include\\stri
 6568              		.file 65 "../../DaisySP//Source/Control/adenv.h"
 6569              		.file 66 "c:\\users\\danst\\documents\\daisytoolchain-0.3.3\\windows\\arm-none-eabi\\include\\wcha
 6570              		.file 67 "c:\\users\\danst\\documents\\daisytoolchain-0.3.3\\windows\\arm-none-eabi\\include\\loca
 6571              		.file 68 "../../libDaisy//src/dev/sr_595.h"
 6572              		.file 69 "<built-in>"
ARM GAS  C:\Users\danst\AppData\Local\Temp\ccwBJjMd.s 			page 182


DEFINED SYMBOLS
                            *ABS*:00000000 takshaka.cpp
C:\Users\danst\AppData\Local\Temp\ccwBJjMd.s:17     .text._ZN5daisy6SwitchD2Ev:00000000 $t
C:\Users\danst\AppData\Local\Temp\ccwBJjMd.s:26     .text._ZN5daisy6SwitchD2Ev:00000000 _ZN5daisy6SwitchD2Ev
C:\Users\danst\AppData\Local\Temp\ccwBJjMd.s:26     .text._ZN5daisy6SwitchD2Ev:00000000 _ZN5daisy6SwitchD1Ev
C:\Users\danst\AppData\Local\Temp\ccwBJjMd.s:43     .text._ZN5daisy9DaisySeedD2Ev:00000000 $t
C:\Users\danst\AppData\Local\Temp\ccwBJjMd.s:51     .text._ZN5daisy9DaisySeedD2Ev:00000000 _ZN5daisy9DaisySeedD2Ev
C:\Users\danst\AppData\Local\Temp\ccwBJjMd.s:51     .text._ZN5daisy9DaisySeedD2Ev:00000000 _ZN5daisy9DaisySeedD1Ev
C:\Users\danst\AppData\Local\Temp\ccwBJjMd.s:92     .text._ZN7daisysp4AdsrD2Ev:00000000 $t
C:\Users\danst\AppData\Local\Temp\ccwBJjMd.s:100    .text._ZN7daisysp4AdsrD2Ev:00000000 _ZN7daisysp4AdsrD2Ev
C:\Users\danst\AppData\Local\Temp\ccwBJjMd.s:100    .text._ZN7daisysp4AdsrD2Ev:00000000 _ZN7daisysp4AdsrD1Ev
C:\Users\danst\AppData\Local\Temp\ccwBJjMd.s:117    .text._ZN7daisysp10OscillatorD2Ev:00000000 $t
C:\Users\danst\AppData\Local\Temp\ccwBJjMd.s:125    .text._ZN7daisysp10OscillatorD2Ev:00000000 _ZN7daisysp10OscillatorD2Ev
C:\Users\danst\AppData\Local\Temp\ccwBJjMd.s:125    .text._ZN7daisysp10OscillatorD2Ev:00000000 _ZN7daisysp10OscillatorD1Ev
C:\Users\danst\AppData\Local\Temp\ccwBJjMd.s:142    .text._ZN7daisysp3SvfD2Ev:00000000 $t
C:\Users\danst\AppData\Local\Temp\ccwBJjMd.s:150    .text._ZN7daisysp3SvfD2Ev:00000000 _ZN7daisysp3SvfD2Ev
C:\Users\danst\AppData\Local\Temp\ccwBJjMd.s:150    .text._ZN7daisysp3SvfD2Ev:00000000 _ZN7daisysp3SvfD1Ev
C:\Users\danst\AppData\Local\Temp\ccwBJjMd.s:167    .text._ZN7daisysp9OverdriveD2Ev:00000000 $t
C:\Users\danst\AppData\Local\Temp\ccwBJjMd.s:175    .text._ZN7daisysp9OverdriveD2Ev:00000000 _ZN7daisysp9OverdriveD2Ev
C:\Users\danst\AppData\Local\Temp\ccwBJjMd.s:175    .text._ZN7daisysp9OverdriveD2Ev:00000000 _ZN7daisysp9OverdriveD1Ev
C:\Users\danst\AppData\Local\Temp\ccwBJjMd.s:192    .text._ZN7daisysp4CombD2Ev:00000000 $t
C:\Users\danst\AppData\Local\Temp\ccwBJjMd.s:200    .text._ZN7daisysp4CombD2Ev:00000000 _ZN7daisysp4CombD2Ev
C:\Users\danst\AppData\Local\Temp\ccwBJjMd.s:200    .text._ZN7daisysp4CombD2Ev:00000000 _ZN7daisysp4CombD1Ev
C:\Users\danst\AppData\Local\Temp\ccwBJjMd.s:217    .text._ZN7daisysp11SuperSawOscD2Ev:00000000 $t
C:\Users\danst\AppData\Local\Temp\ccwBJjMd.s:225    .text._ZN7daisysp11SuperSawOscD2Ev:00000000 _ZN7daisysp11SuperSawOscD2Ev
C:\Users\danst\AppData\Local\Temp\ccwBJjMd.s:225    .text._ZN7daisysp11SuperSawOscD2Ev:00000000 _ZN7daisysp11SuperSawOscD1Ev
C:\Users\danst\AppData\Local\Temp\ccwBJjMd.s:248    .text._ZN5daisy11MidiHandlerINS_16MidiUsbTransportEED2Ev:00000000 $t
C:\Users\danst\AppData\Local\Temp\ccwBJjMd.s:256    .text._ZN5daisy11MidiHandlerINS_16MidiUsbTransportEED2Ev:00000000 _ZN5daisy11MidiHandlerINS_16MidiUsbTransportEED2Ev
C:\Users\danst\AppData\Local\Temp\ccwBJjMd.s:256    .text._ZN5daisy11MidiHandlerINS_16MidiUsbTransportEED2Ev:00000000 _ZN5daisy11MidiHandlerINS_16MidiUsbTransportEED1Ev
C:\Users\danst\AppData\Local\Temp\ccwBJjMd.s:279    .text._Z13AudioCallbackPKPKfPPfj:00000000 $t
C:\Users\danst\AppData\Local\Temp\ccwBJjMd.s:287    .text._Z13AudioCallbackPKPKfPPfj:00000000 _Z13AudioCallbackPKPKfPPfj
C:\Users\danst\AppData\Local\Temp\ccwBJjMd.s:749    .text._Z13AudioCallbackPKPKfPPfj:0000014a $d
C:\Users\danst\AppData\Local\Temp\ccwBJjMd.s:753    .text._Z13AudioCallbackPKPKfPPfj:0000014e $t
C:\Users\danst\AppData\Local\Temp\ccwBJjMd.s:1090   .text._Z13AudioCallbackPKPKfPPfj:0000023c $d
C:\Users\danst\AppData\Local\Temp\ccwBJjMd.s:1120   .text._ZN7daisysp11SuperSawOscC2Ev:00000000 $t
C:\Users\danst\AppData\Local\Temp\ccwBJjMd.s:1128   .text._ZN7daisysp11SuperSawOscC2Ev:00000000 _ZN7daisysp11SuperSawOscC2Ev
C:\Users\danst\AppData\Local\Temp\ccwBJjMd.s:1192   .text._ZN7daisysp11SuperSawOscC2Ev:00000058 $d
C:\Users\danst\AppData\Local\Temp\ccwBJjMd.s:1128   .text._ZN7daisysp11SuperSawOscC2Ev:00000000 _ZN7daisysp11SuperSawOscC1Ev
C:\Users\danst\AppData\Local\Temp\ccwBJjMd.s:1199   .text._Z11handleKnobsv:00000000 $t
C:\Users\danst\AppData\Local\Temp\ccwBJjMd.s:1207   .text._Z11handleKnobsv:00000000 _Z11handleKnobsv
C:\Users\danst\AppData\Local\Temp\ccwBJjMd.s:1440   .text._Z11handleKnobsv:00000150 $d
C:\Users\danst\AppData\Local\Temp\ccwBJjMd.s:1464   .text._Z16updateSubOscWavev:00000000 $t
C:\Users\danst\AppData\Local\Temp\ccwBJjMd.s:1472   .text._Z16updateSubOscWavev:00000000 _Z16updateSubOscWavev
C:\Users\danst\AppData\Local\Temp\ccwBJjMd.s:1500   .text._Z16updateSubOscWavev:00000020 $d
C:\Users\danst\AppData\Local\Temp\ccwBJjMd.s:1506   .text._Z16updateSubOscWavev:00000026 $t
C:\Users\danst\AppData\Local\Temp\ccwBJjMd.s:1696   .text._Z16updateSubOscWavev:0000007c $d
C:\Users\danst\AppData\Local\Temp\ccwBJjMd.s:1703   .text._Z7initADCv:00000000 $t
C:\Users\danst\AppData\Local\Temp\ccwBJjMd.s:1711   .text._Z7initADCv:00000000 _Z7initADCv
C:\Users\danst\AppData\Local\Temp\ccwBJjMd.s:2066   .text._Z7initADCv:00000100 $d
C:\Users\danst\AppData\Local\Temp\ccwBJjMd.s:2071   .text._Z24handleSmartKnobSwitchingv:00000000 $t
C:\Users\danst\AppData\Local\Temp\ccwBJjMd.s:2079   .text._Z24handleSmartKnobSwitchingv:00000000 _Z24handleSmartKnobSwitchingv
C:\Users\danst\AppData\Local\Temp\ccwBJjMd.s:2254   .text._Z24handleSmartKnobSwitchingv:000000b8 $d
C:\Users\danst\AppData\Local\Temp\ccwBJjMd.s:2273   .text._Z14updateSuperSawv:00000000 $t
C:\Users\danst\AppData\Local\Temp\ccwBJjMd.s:2281   .text._Z14updateSuperSawv:00000000 _Z14updateSuperSawv
C:\Users\danst\AppData\Local\Temp\ccwBJjMd.s:2315   .text._Z14updateSuperSawv:00000020 $d
C:\Users\danst\AppData\Local\Temp\ccwBJjMd.s:2322   .text._Z12updateSubOscv:00000000 $t
C:\Users\danst\AppData\Local\Temp\ccwBJjMd.s:2330   .text._Z12updateSubOscv:00000000 _Z12updateSubOscv
ARM GAS  C:\Users\danst\AppData\Local\Temp\ccwBJjMd.s 			page 183


C:\Users\danst\AppData\Local\Temp\ccwBJjMd.s:2384   .text._Z12updateSubOscv:0000002c $d
C:\Users\danst\AppData\Local\Temp\ccwBJjMd.s:2391   .text._Z16updateDistortionv:00000000 $t
C:\Users\danst\AppData\Local\Temp\ccwBJjMd.s:2399   .text._Z16updateDistortionv:00000000 _Z16updateDistortionv
C:\Users\danst\AppData\Local\Temp\ccwBJjMd.s:2500   .text._Z16updateDistortionv:00000028 $d
C:\Users\danst\AppData\Local\Temp\ccwBJjMd.s:2508   .text._Z13updateFiltersv:00000000 $t
C:\Users\danst\AppData\Local\Temp\ccwBJjMd.s:2516   .text._Z13updateFiltersv:00000000 _Z13updateFiltersv
C:\Users\danst\AppData\Local\Temp\ccwBJjMd.s:2739   .text._Z13updateFiltersv:00000060 $d
C:\Users\danst\AppData\Local\Temp\ccwBJjMd.s:2749   .text._Z12updatePouncev:00000000 $t
C:\Users\danst\AppData\Local\Temp\ccwBJjMd.s:2757   .text._Z12updatePouncev:00000000 _Z12updatePouncev
C:\Users\danst\AppData\Local\Temp\ccwBJjMd.s:3098   .text._Z12updatePouncev:000000ac $d
C:\Users\danst\AppData\Local\Temp\ccwBJjMd.s:3112   .text._Z12updateAmpEnvv:00000000 $t
C:\Users\danst\AppData\Local\Temp\ccwBJjMd.s:3120   .text._Z12updateAmpEnvv:00000000 _Z12updateAmpEnvv
C:\Users\danst\AppData\Local\Temp\ccwBJjMd.s:3461   .text._Z12updateAmpEnvv:000000ac $d
C:\Users\danst\AppData\Local\Temp\ccwBJjMd.s:3475   .text._ZN5daisy11MidiHandlerINS_16MidiUsbTransportEE5ParseEh:00000000 $t
C:\Users\danst\AppData\Local\Temp\ccwBJjMd.s:3483   .text._ZN5daisy11MidiHandlerINS_16MidiUsbTransportEE5ParseEh:00000000 _ZN5daisy11MidiHandlerINS_16MidiUsbTransportEE5ParseEh
C:\Users\danst\AppData\Local\Temp\ccwBJjMd.s:3562   .text._ZN5daisy11MidiHandlerINS_16MidiUsbTransportEE5ParseEh:00000050 $d
C:\Users\danst\AppData\Local\Temp\ccwBJjMd.s:3566   .text._ZN5daisy11MidiHandlerINS_16MidiUsbTransportEE5ParseEh:00000054 $t
C:\Users\danst\AppData\Local\Temp\ccwBJjMd.s:4143   .text._Z10handleMidiv:00000000 $t
C:\Users\danst\AppData\Local\Temp\ccwBJjMd.s:4151   .text._Z10handleMidiv:00000000 _Z10handleMidiv
C:\Users\danst\AppData\Local\Temp\ccwBJjMd.s:4455   .text._Z10handleMidiv:000000bc $d
C:\Users\danst\AppData\Local\Temp\ccwBJjMd.s:6408   .bss.midi:00000000 midi
C:\Users\danst\AppData\Local\Temp\ccwBJjMd.s:4468   .rodata.main.str1.4:00000000 $d
C:\Users\danst\AppData\Local\Temp\ccwBJjMd.s:4475   .text.startup.main:00000000 $t
C:\Users\danst\AppData\Local\Temp\ccwBJjMd.s:4483   .text.startup.main:00000000 main
C:\Users\danst\AppData\Local\Temp\ccwBJjMd.s:4856   .text.startup.main:000001d8 $d
C:\Users\danst\AppData\Local\Temp\ccwBJjMd.s:6313   .bss.combFilterBuffer:00000000 combFilterBuffer
C:\Users\danst\AppData\Local\Temp\ccwBJjMd.s:4898   .text.startup.main:00000274 $t
C:\Users\danst\AppData\Local\Temp\ccwBJjMd.s:5403   .text.startup.main:00000410 $d
C:\Users\danst\AppData\Local\Temp\ccwBJjMd.s:5427   .text.startup._GLOBAL__sub_I_driftValue:00000000 $t
C:\Users\danst\AppData\Local\Temp\ccwBJjMd.s:5434   .text.startup._GLOBAL__sub_I_driftValue:00000000 _GLOBAL__sub_I_driftValue
C:\Users\danst\AppData\Local\Temp\ccwBJjMd.s:6120   .text.startup._GLOBAL__sub_I_driftValue:000001ac $d
C:\Users\danst\AppData\Local\Temp\ccwBJjMd.s:6164   .init_array:00000000 $d
C:\Users\danst\AppData\Local\Temp\ccwBJjMd.s:6265   .bss.ampEnv:00000000 ampEnv
C:\Users\danst\AppData\Local\Temp\ccwBJjMd.s:6429   .bss.pounce:00000000 pounce
C:\Users\danst\AppData\Local\Temp\ccwBJjMd.s:6326   .bss.distortion:00000000 distortion
C:\Users\danst\AppData\Local\Temp\ccwBJjMd.s:6307   .bss.combFilter:00000000 combFilter
C:\Users\danst\AppData\Local\Temp\ccwBJjMd.s:6360   .bss.filter2:00000000 filter2
C:\Users\danst\AppData\Local\Temp\ccwBJjMd.s:6353   .bss.filter1:00000000 filter1
C:\Users\danst\AppData\Local\Temp\ccwBJjMd.s:6402   .bss.lfo:00000000 lfo
C:\Users\danst\AppData\Local\Temp\ccwBJjMd.s:6485   .bss.subOsc:00000000 subOsc
C:\Users\danst\AppData\Local\Temp\ccwBJjMd.s:6499   .bss.superSaw:00000000 superSaw
C:\Users\danst\AppData\Local\Temp\ccwBJjMd.s:6286   .bss.ampEnvModSmartKnob:00000000 ampEnvModSmartKnob
C:\Users\danst\AppData\Local\Temp\ccwBJjMd.s:6300   .bss.ampSmartKnob:00000000 ampSmartKnob
C:\Users\danst\AppData\Local\Temp\ccwBJjMd.s:6279   .bss.ampEnvDecaySmartKnob:00000000 ampEnvDecaySmartKnob
C:\Users\danst\AppData\Local\Temp\ccwBJjMd.s:6443   .bss.pounceDecaySmartKnob:00000000 pounceDecaySmartKnob
C:\Users\danst\AppData\Local\Temp\ccwBJjMd.s:6293   .bss.ampEnvSustainSmartKnob:00000000 ampEnvSustainSmartKnob
C:\Users\danst\AppData\Local\Temp\ccwBJjMd.s:6450   .bss.pounceSustainSmartKnob:00000000 pounceSustainSmartKnob
C:\Users\danst\AppData\Local\Temp\ccwBJjMd.s:6272   .bss.ampEnvAttackSmartKnob:00000000 ampEnvAttackSmartKnob
C:\Users\danst\AppData\Local\Temp\ccwBJjMd.s:6436   .bss.pounceAttackSmartKnob:00000000 pounceAttackSmartKnob
C:\Users\danst\AppData\Local\Temp\ccwBJjMd.s:6374   .bss.filterPolesSmartKnob:00000000 filterPolesSmartKnob
C:\Users\danst\AppData\Local\Temp\ccwBJjMd.s:6381   .bss.filterResSmartKnob:00000000 filterResSmartKnob
C:\Users\danst\AppData\Local\Temp\ccwBJjMd.s:6388   .bss.filterTypeSmartKnob:00000000 filterTypeSmartKnob
C:\Users\danst\AppData\Local\Temp\ccwBJjMd.s:6367   .bss.filterCutoffSmartKnob:00000000 filterCutoffSmartKnob
C:\Users\danst\AppData\Local\Temp\ccwBJjMd.s:6492   .bss.subTypeSmartKnob:00000000 subTypeSmartKnob
C:\Users\danst\AppData\Local\Temp\ccwBJjMd.s:6478   .bss.subMixSmartKnob:00000000 subMixSmartKnob
C:\Users\danst\AppData\Local\Temp\ccwBJjMd.s:6422   .bss.modeSwitch:00000000 modeSwitch
C:\Users\danst\AppData\Local\Temp\ccwBJjMd.s:6395   .bss.hw:00000000 hw
ARM GAS  C:\Users\danst\AppData\Local\Temp\ccwBJjMd.s 			page 184


C:\Users\danst\AppData\Local\Temp\ccwBJjMd.s:6346   .bss.envGate:00000000 envGate
C:\Users\danst\AppData\Local\Temp\ccwBJjMd.s:6505   .data.lastOperationMode:00000000 lastOperationMode
C:\Users\danst\AppData\Local\Temp\ccwBJjMd.s:6518   .data.operationMode:00000000 operationMode
C:\Users\danst\AppData\Local\Temp\ccwBJjMd.s:6319   .bss.debugMode:00000000 debugMode
C:\Users\danst\AppData\Local\Temp\ccwBJjMd.s:6512   .data.midiNote:00000000 midiNote
C:\Users\danst\AppData\Local\Temp\ccwBJjMd.s:6525   .data.subOscOctave:00000000 subOscOctave
C:\Users\danst\AppData\Local\Temp\ccwBJjMd.s:6464   .bss.slitherDriftModValue:00000000 slitherDriftModValue
C:\Users\danst\AppData\Local\Temp\ccwBJjMd.s:6471   .bss.slitherValue:00000000 slitherValue
C:\Users\danst\AppData\Local\Temp\ccwBJjMd.s:6415   .bss.midiFreq:00000000 midiFreq
C:\Users\danst\AppData\Local\Temp\ccwBJjMd.s:6340   .bss.driveValue:00000000 driveValue
C:\Users\danst\AppData\Local\Temp\ccwBJjMd.s:6457   .bss.shiftValue:00000000 shiftValue
C:\Users\danst\AppData\Local\Temp\ccwBJjMd.s:6333   .bss.driftValue:00000000 driftValue
C:\Users\danst\AppData\Local\Temp\ccwBJjMd.s:6206   .rodata:00000000 $d
C:\Users\danst\AppData\Local\Temp\ccwBJjMd.s:6261   .bss.ampEnv:00000000 $d
C:\Users\danst\AppData\Local\Temp\ccwBJjMd.s:6268   .bss.ampEnvAttackSmartKnob:00000000 $d
C:\Users\danst\AppData\Local\Temp\ccwBJjMd.s:6275   .bss.ampEnvDecaySmartKnob:00000000 $d
C:\Users\danst\AppData\Local\Temp\ccwBJjMd.s:6282   .bss.ampEnvModSmartKnob:00000000 $d
C:\Users\danst\AppData\Local\Temp\ccwBJjMd.s:6289   .bss.ampEnvSustainSmartKnob:00000000 $d
C:\Users\danst\AppData\Local\Temp\ccwBJjMd.s:6296   .bss.ampSmartKnob:00000000 $d
C:\Users\danst\AppData\Local\Temp\ccwBJjMd.s:6303   .bss.combFilter:00000000 $d
C:\Users\danst\AppData\Local\Temp\ccwBJjMd.s:6310   .bss.combFilterBuffer:00000000 $d
C:\Users\danst\AppData\Local\Temp\ccwBJjMd.s:6320   .bss.debugMode:00000000 $d
C:\Users\danst\AppData\Local\Temp\ccwBJjMd.s:6322   .bss.distortion:00000000 $d
C:\Users\danst\AppData\Local\Temp\ccwBJjMd.s:6329   .bss.driftValue:00000000 $d
C:\Users\danst\AppData\Local\Temp\ccwBJjMd.s:6336   .bss.driveValue:00000000 $d
C:\Users\danst\AppData\Local\Temp\ccwBJjMd.s:6347   .bss.envGate:00000000 $d
C:\Users\danst\AppData\Local\Temp\ccwBJjMd.s:6349   .bss.filter1:00000000 $d
C:\Users\danst\AppData\Local\Temp\ccwBJjMd.s:6356   .bss.filter2:00000000 $d
C:\Users\danst\AppData\Local\Temp\ccwBJjMd.s:6363   .bss.filterCutoffSmartKnob:00000000 $d
C:\Users\danst\AppData\Local\Temp\ccwBJjMd.s:6370   .bss.filterPolesSmartKnob:00000000 $d
C:\Users\danst\AppData\Local\Temp\ccwBJjMd.s:6377   .bss.filterResSmartKnob:00000000 $d
C:\Users\danst\AppData\Local\Temp\ccwBJjMd.s:6384   .bss.filterTypeSmartKnob:00000000 $d
C:\Users\danst\AppData\Local\Temp\ccwBJjMd.s:6391   .bss.hw:00000000 $d
C:\Users\danst\AppData\Local\Temp\ccwBJjMd.s:6398   .bss.lfo:00000000 $d
C:\Users\danst\AppData\Local\Temp\ccwBJjMd.s:6405   .bss.midi:00000000 $d
C:\Users\danst\AppData\Local\Temp\ccwBJjMd.s:6411   .bss.midiFreq:00000000 $d
C:\Users\danst\AppData\Local\Temp\ccwBJjMd.s:6418   .bss.modeSwitch:00000000 $d
C:\Users\danst\AppData\Local\Temp\ccwBJjMd.s:6425   .bss.pounce:00000000 $d
C:\Users\danst\AppData\Local\Temp\ccwBJjMd.s:6432   .bss.pounceAttackSmartKnob:00000000 $d
C:\Users\danst\AppData\Local\Temp\ccwBJjMd.s:6439   .bss.pounceDecaySmartKnob:00000000 $d
C:\Users\danst\AppData\Local\Temp\ccwBJjMd.s:6446   .bss.pounceSustainSmartKnob:00000000 $d
C:\Users\danst\AppData\Local\Temp\ccwBJjMd.s:6453   .bss.shiftValue:00000000 $d
C:\Users\danst\AppData\Local\Temp\ccwBJjMd.s:6460   .bss.slitherDriftModValue:00000000 $d
C:\Users\danst\AppData\Local\Temp\ccwBJjMd.s:6467   .bss.slitherValue:00000000 $d
C:\Users\danst\AppData\Local\Temp\ccwBJjMd.s:6474   .bss.subMixSmartKnob:00000000 $d
C:\Users\danst\AppData\Local\Temp\ccwBJjMd.s:6481   .bss.subOsc:00000000 $d
C:\Users\danst\AppData\Local\Temp\ccwBJjMd.s:6488   .bss.subTypeSmartKnob:00000000 $d
C:\Users\danst\AppData\Local\Temp\ccwBJjMd.s:6495   .bss.superSaw:00000000 $d
C:\Users\danst\AppData\Local\Temp\ccwBJjMd.s:6508   .data.midiNote:00000000 $d
C:\Users\danst\AppData\Local\Temp\ccwBJjMd.s:6521   .data.subOscOctave:00000000 $d
                           .group:00000000 _ZN5daisy6SwitchD5Ev
                           .group:00000000 _ZN5daisy9DaisySeedD5Ev
                           .group:00000000 _ZN7daisysp4AdsrD5Ev
                           .group:00000000 _ZN7daisysp10OscillatorD5Ev
                           .group:00000000 _ZN7daisysp3SvfD5Ev
                           .group:00000000 _ZN7daisysp9OverdriveD5Ev
                           .group:00000000 _ZN7daisysp4CombD5Ev
ARM GAS  C:\Users\danst\AppData\Local\Temp\ccwBJjMd.s 			page 185


                           .group:00000000 _ZN7daisysp11SuperSawOscD5Ev
                           .group:00000000 _ZN5daisy11MidiHandlerINS_16MidiUsbTransportEED5Ev
                           .group:00000000 _ZN7daisysp11SuperSawOscC5Ev

UNDEFINED SYMBOLS
_ZN7daisysp4Adsr7ProcessEb
_ZN7daisysp11SuperSawOsc8SetDriftEf
_ZN7daisysp11SuperSawOsc8SetShiftEf
_ZN7daisysp9SmartKnob8GetValueEv
_ZN7daisysp11SuperSawOsc7ProcessEv
_ZN7daisysp10Oscillator7ProcessEv
_ZN7daisysp9Overdrive7ProcessEf
_ZN7daisysp3Svf7SetFreqEf
_ZN7daisysp4Comb9SetPeriodEf
_ZN7daisysp3Svf7ProcessEf
_ZN7daisysp4Comb7ProcessEf
memcpy
_ZNK5daisy9AdcHandle8GetFloatEh
_ZN7daisysp9SmartKnob6UpdateEf
_ZN5daisy16AdcChannelConfig10InitSingleE12dsy_gpio_pin
_ZN5daisy9AdcHandle4InitEPNS_16AdcChannelConfigEjNS0_12OverSamplingE
_ZN5daisy9AdcHandle5StartEv
_ZN7daisysp9SmartKnob8ActivateEv
_ZN7daisysp9SmartKnob10DeactivateEv
_ZN7daisysp11SuperSawOsc7SetFreqEf
_ZN7daisysp10Oscillator12CalcPhaseIncEf
_ZN7daisysp9Overdrive8SetDriveEf
_ZN7daisysp3Svf6SetResEf
_ZN7daisysp4Adsr13SetAttackTimeEff
_ZN7daisysp4Adsr12SetDecayTimeEf
_ZN7daisysp4Adsr14SetReleaseTimeEf
_ZN5daisy6System6GetNowEv
_ZN5daisy16MidiUsbTransport2RxEv
_ZN5daisy16MidiUsbTransport8ReadableEv
_ZN5daisy16MidiUsbTransport8RxActiveEv
_ZN5daisy16MidiUsbTransport7FlushRxEv
_ZN5daisy16MidiUsbTransport7StartRxEv
_ZN5daisy9DaisySeed4InitEb
_ZN5daisy16MidiUsbTransport4InitENS0_6ConfigE
_ZN7daisysp9SmartKnob4InitEbf
_ZN7daisysp11SuperSawOsc4InitEf
_ZN7daisysp9Overdrive4InitEv
_ZN7daisysp3Svf4InitEf
_ZN7daisysp3Svf8SetDriveEf
memset
_ZN7daisysp4Comb4InitEfPfj
_ZN7daisysp4Adsr4InitEfi
_ZN5daisy9DaisySeed6GetPinEh
_ZN5daisy6Switch4InitE12dsy_gpio_pinf
_ZN5daisy9DaisySeed18SetAudioSampleRateENS_9SaiHandle6Config10SampleRateE
_ZN5daisy9DaisySeed10StartAudioEPFvPKPKfPPfjE
powf
_ZN5daisy6Switch8DebounceEv
_ZN5daisy9DaisySeed6SetLedEb
_ZN5daisy6LoggerILNS_17LoggerDestinationE1EE5PrintEPKcz
_ZN5daisy6LoggerILNS_17LoggerDestinationE1EE9PrintLineEPKcz
_ZN5daisy6System5DelayEm
ARM GAS  C:\Users\danst\AppData\Local\Temp\ccwBJjMd.s 			page 186


_ZN5daisy6LoggerILNS_17LoggerDestinationE1EE8StartLogEb
__aeabi_atexit
__dso_handle
