ARM GAS  C:\Users\danst\AppData\Local\Temp\ccwBJjMd.s 			page 1


   1              		.cpu cortex-m7
   2              		.eabi_attribute 28, 1
   3              		.eabi_attribute 20, 1
   4              		.eabi_attribute 21, 1
   5              		.eabi_attribute 23, 3
   6              		.eabi_attribute 24, 1
   7              		.eabi_attribute 25, 1
   8              		.eabi_attribute 26, 1
   9              		.eabi_attribute 30, 2
  10              		.eabi_attribute 34, 1
  11              		.eabi_attribute 18, 4
  12              		.file	"takshaka.cpp"
  13              		.text
  14              	.Ltext0:
  15              		.cfi_sections	.debug_frame
  16              		.section	.text._ZN5daisy6SwitchD2Ev,"axG",%progbits,_ZN5daisy6SwitchD5Ev,comdat
  17              		.align	1
  18              		.p2align 2,,3
  19              		.weak	_ZN5daisy6SwitchD2Ev
  20              		.arch armv7e-m
  21              		.syntax unified
  22              		.thumb
  23              		.thumb_func
  24              		.fpu fpv5-d16
  26              	_ZN5daisy6SwitchD2Ev:
  27              	.LVL0:
  28              	.LFB1605:
  29              		.file 1 "../../libDaisy//src/hid/switch.h"
   1:../../libDaisy//src/hid/switch.h **** #pragma once
   2:../../libDaisy//src/hid/switch.h **** #ifndef DSY_SWITCH_H
   3:../../libDaisy//src/hid/switch.h **** #define DSY_SWITCH_H
   4:../../libDaisy//src/hid/switch.h **** #include "daisy_core.h"
   5:../../libDaisy//src/hid/switch.h **** #include "per/gpio.h"
   6:../../libDaisy//src/hid/switch.h **** #include "sys/system.h"
   7:../../libDaisy//src/hid/switch.h **** 
   8:../../libDaisy//src/hid/switch.h **** namespace daisy
   9:../../libDaisy//src/hid/switch.h **** {
  10:../../libDaisy//src/hid/switch.h **** /** 
  11:../../libDaisy//src/hid/switch.h ****     Generic Class for handling momentary/latching switches \n 
  12:../../libDaisy//src/hid/switch.h ****     Inspired/influenced by Mutable Instruments (pichenettes) Switch classes
  13:../../libDaisy//src/hid/switch.h ****     @author Stephen Hensley
  14:../../libDaisy//src/hid/switch.h ****     @date December 2019
  15:../../libDaisy//src/hid/switch.h ****     @ingroup controls
  16:../../libDaisy//src/hid/switch.h **** */
  17:../../libDaisy//src/hid/switch.h **** class Switch
  18:../../libDaisy//src/hid/switch.h **** {
  19:../../libDaisy//src/hid/switch.h ****   public:
  20:../../libDaisy//src/hid/switch.h ****     /** Specifies the expected behavior of the switch */
  21:../../libDaisy//src/hid/switch.h ****     enum Type
  22:../../libDaisy//src/hid/switch.h ****     {
  23:../../libDaisy//src/hid/switch.h ****         TYPE_TOGGLE,    /**< & */
  24:../../libDaisy//src/hid/switch.h ****         TYPE_MOMENTARY, /**< & */
  25:../../libDaisy//src/hid/switch.h ****     };
  26:../../libDaisy//src/hid/switch.h ****     /** Specifies whether the pressed is HIGH or LOW. */
  27:../../libDaisy//src/hid/switch.h ****     enum Polarity
  28:../../libDaisy//src/hid/switch.h ****     {
  29:../../libDaisy//src/hid/switch.h ****         POLARITY_NORMAL,   /**< & */
ARM GAS  C:\Users\danst\AppData\Local\Temp\ccwBJjMd.s 			page 2


  30:../../libDaisy//src/hid/switch.h ****         POLARITY_INVERTED, /**< & */
  31:../../libDaisy//src/hid/switch.h ****     };
  32:../../libDaisy//src/hid/switch.h **** 
  33:../../libDaisy//src/hid/switch.h ****     /** Specifies whether to use built-in Pull Up/Down resistors to hold button at a given state wh
  34:../../libDaisy//src/hid/switch.h ****     enum Pull
  35:../../libDaisy//src/hid/switch.h ****     {
  36:../../libDaisy//src/hid/switch.h ****         PULL_UP,   /**< & */
  37:../../libDaisy//src/hid/switch.h ****         PULL_DOWN, /**< & */
  38:../../libDaisy//src/hid/switch.h ****         PULL_NONE, /**< & */
  39:../../libDaisy//src/hid/switch.h ****     };
  40:../../libDaisy//src/hid/switch.h **** 
  41:../../libDaisy//src/hid/switch.h ****     Switch() {}
  42:../../libDaisy//src/hid/switch.h ****     ~Switch() {}
  30              		.loc 1 42 5 view -0
  31              		.cfi_startproc
  32              		@ args = 0, pretend = 0, frame = 0
  33              		@ frame_needed = 0, uses_anonymous_args = 0
  34              		@ link register save eliminated.
  35              		.loc 1 42 16 is_stmt 0 view .LVU1
  36 0000 7047     		bx	lr
  37              		.cfi_endproc
  38              	.LFE1605:
  40              		.weak	_ZN5daisy6SwitchD1Ev
  41              		.thumb_set _ZN5daisy6SwitchD1Ev,_ZN5daisy6SwitchD2Ev
  42 0002 00BF     		.section	.text._ZN5daisy9DaisySeedD2Ev,"axG",%progbits,_ZN5daisy9DaisySeedD5Ev,comdat
  43              		.align	1
  44              		.p2align 2,,3
  45              		.weak	_ZN5daisy9DaisySeedD2Ev
  46              		.syntax unified
  47              		.thumb
  48              		.thumb_func
  49              		.fpu fpv5-d16
  51              	_ZN5daisy9DaisySeedD2Ev:
  52              	.LVL1:
  53              	.LFB2528:
  54              		.file 2 "../../libDaisy//src/daisy_seed.h"
   1:../../libDaisy//src/daisy_seed.h **** #pragma once
   2:../../libDaisy//src/daisy_seed.h **** #ifndef DSY_SEED_H
   3:../../libDaisy//src/daisy_seed.h **** #define DSY_SEED_H
   4:../../libDaisy//src/daisy_seed.h **** 
   5:../../libDaisy//src/daisy_seed.h **** #include "daisy.h"
   6:../../libDaisy//src/daisy_seed.h **** 
   7:../../libDaisy//src/daisy_seed.h **** //Uncomment this out if you're still using the rev2 hardware
   8:../../libDaisy//src/daisy_seed.h **** //#define SEED_REV2
   9:../../libDaisy//src/daisy_seed.h **** 
  10:../../libDaisy//src/daisy_seed.h **** namespace daisy
  11:../../libDaisy//src/daisy_seed.h **** {
  12:../../libDaisy//src/daisy_seed.h **** /**
  13:../../libDaisy//src/daisy_seed.h ****    @brief This is the higher-level interface for the Daisy board. \n 
  14:../../libDaisy//src/daisy_seed.h ****     All basic peripheral configuration/initialization is setup here. \n
  15:../../libDaisy//src/daisy_seed.h **** 
  16:../../libDaisy//src/daisy_seed.h ****    @ingroup boards
  17:../../libDaisy//src/daisy_seed.h **** */
  18:../../libDaisy//src/daisy_seed.h **** class DaisySeed
  19:../../libDaisy//src/daisy_seed.h **** {
  20:../../libDaisy//src/daisy_seed.h ****   public:
  21:../../libDaisy//src/daisy_seed.h ****     DaisySeed() {}
ARM GAS  C:\Users\danst\AppData\Local\Temp\ccwBJjMd.s 			page 3


  22:../../libDaisy//src/daisy_seed.h ****     ~DaisySeed() {}
  55              		.loc 2 22 5 is_stmt 1 view -0
  56              		.cfi_startproc
  57              		@ args = 0, pretend = 0, frame = 0
  58              		@ frame_needed = 0, uses_anonymous_args = 0
  59              		@ link register save eliminated.
  60              	.LBB556:
  61              	.LBI556:
  62              		.file 3 "../../libDaisy//src/sys/system.h"
   1:../../libDaisy//src/sys/system.h **** #ifndef DSY_SYSTEM_H
   2:../../libDaisy//src/sys/system.h **** #define DSY_SYSTEM_H
   3:../../libDaisy//src/sys/system.h **** 
   4:../../libDaisy//src/sys/system.h **** #ifndef UNIT_TEST // for unit tests, a dummy implementation is provided below
   5:../../libDaisy//src/sys/system.h **** 
   6:../../libDaisy//src/sys/system.h **** #include <cstdint>
   7:../../libDaisy//src/sys/system.h **** #include "per/tim.h"
   8:../../libDaisy//src/sys/system.h **** 
   9:../../libDaisy//src/sys/system.h **** namespace daisy
  10:../../libDaisy//src/sys/system.h **** {
  11:../../libDaisy//src/sys/system.h **** /** A handle for interacting with the Core System. 
  12:../../libDaisy//src/sys/system.h ****  ** This includes the Clock tree, MPU, global DMA initialization,
  13:../../libDaisy//src/sys/system.h ****  ** cache handling, and any other necessary global initiailzation
  14:../../libDaisy//src/sys/system.h ****  **
  15:../../libDaisy//src/sys/system.h ****  ** @author shensley
  16:../../libDaisy//src/sys/system.h ****  ** @ingroup system
  17:../../libDaisy//src/sys/system.h ****  */
  18:../../libDaisy//src/sys/system.h **** class System
  19:../../libDaisy//src/sys/system.h **** {
  20:../../libDaisy//src/sys/system.h ****   public:
  21:../../libDaisy//src/sys/system.h ****     /** Contains settings for initializing the System */
  22:../../libDaisy//src/sys/system.h ****     struct Config
  23:../../libDaisy//src/sys/system.h ****     {
  24:../../libDaisy//src/sys/system.h ****         /** Specifies the system clock frequency that feeds APB/AHB clocks, etc. */
  25:../../libDaisy//src/sys/system.h ****         enum class SysClkFreq
  26:../../libDaisy//src/sys/system.h ****         {
  27:../../libDaisy//src/sys/system.h ****             FREQ_400MHZ,
  28:../../libDaisy//src/sys/system.h ****             FREQ_480MHZ,
  29:../../libDaisy//src/sys/system.h ****         };
  30:../../libDaisy//src/sys/system.h **** 
  31:../../libDaisy//src/sys/system.h ****         /** Method to call on the struct to set to defaults
  32:../../libDaisy//src/sys/system.h ****          ** CPU Freq set to 400MHz
  33:../../libDaisy//src/sys/system.h ****          ** Cache Enabled 
  34:../../libDaisy//src/sys/system.h ****          ** */
  35:../../libDaisy//src/sys/system.h ****         void Defaults()
  36:../../libDaisy//src/sys/system.h ****         {
  37:../../libDaisy//src/sys/system.h ****             cpu_freq    = SysClkFreq::FREQ_400MHZ;
  38:../../libDaisy//src/sys/system.h ****             use_dcache  = true;
  39:../../libDaisy//src/sys/system.h ****             use_icache  = true;
  40:../../libDaisy//src/sys/system.h ****             skip_clocks = false;
  41:../../libDaisy//src/sys/system.h ****         }
  42:../../libDaisy//src/sys/system.h **** 
  43:../../libDaisy//src/sys/system.h ****         /** Method to call on the struct to set to boost mode:
  44:../../libDaisy//src/sys/system.h ****          ** CPU Freq set to 480MHz
  45:../../libDaisy//src/sys/system.h ****          ** Cache Enabled 
  46:../../libDaisy//src/sys/system.h ****          ** */
  47:../../libDaisy//src/sys/system.h ****         void Boost()
  48:../../libDaisy//src/sys/system.h ****         {
ARM GAS  C:\Users\danst\AppData\Local\Temp\ccwBJjMd.s 			page 4


  49:../../libDaisy//src/sys/system.h ****             cpu_freq    = SysClkFreq::FREQ_480MHZ;
  50:../../libDaisy//src/sys/system.h ****             use_dcache  = true;
  51:../../libDaisy//src/sys/system.h ****             use_icache  = true;
  52:../../libDaisy//src/sys/system.h ****             skip_clocks = false;
  53:../../libDaisy//src/sys/system.h ****         }
  54:../../libDaisy//src/sys/system.h **** 
  55:../../libDaisy//src/sys/system.h ****         SysClkFreq cpu_freq;
  56:../../libDaisy//src/sys/system.h ****         bool       use_dcache;
  57:../../libDaisy//src/sys/system.h ****         bool       use_icache;
  58:../../libDaisy//src/sys/system.h ****         bool       skip_clocks;
  59:../../libDaisy//src/sys/system.h ****     };
  60:../../libDaisy//src/sys/system.h **** 
  61:../../libDaisy//src/sys/system.h ****     /** Describes the different regions of memory available to the Daisy
  62:../../libDaisy//src/sys/system.h ****      * 
  63:../../libDaisy//src/sys/system.h ****      */
  64:../../libDaisy//src/sys/system.h ****     enum MemoryRegion
  65:../../libDaisy//src/sys/system.h ****     {
  66:../../libDaisy//src/sys/system.h ****         INTERNAL_FLASH = 0,
  67:../../libDaisy//src/sys/system.h ****         ITCMRAM,
  68:../../libDaisy//src/sys/system.h ****         DTCMRAM,
  69:../../libDaisy//src/sys/system.h ****         SRAM_D1,
  70:../../libDaisy//src/sys/system.h ****         SRAM_D2,
  71:../../libDaisy//src/sys/system.h ****         SRAM_D3,
  72:../../libDaisy//src/sys/system.h ****         SDRAM,
  73:../../libDaisy//src/sys/system.h ****         QSPI,
  74:../../libDaisy//src/sys/system.h ****         INVALID_ADDRESS,
  75:../../libDaisy//src/sys/system.h ****     };
  76:../../libDaisy//src/sys/system.h **** 
  77:../../libDaisy//src/sys/system.h ****     System() {}
  78:../../libDaisy//src/sys/system.h ****     ~System() {}
  63              		.loc 3 78 5 view .LVU3
  64              		.loc 3 78 5 is_stmt 0 view .LVU4
  65              	.LBE556:
  66              	.LBB557:
  67              	.LBI557:
  68              		.file 4 "../../libDaisy//src/hid/usb.h"
   1:../../libDaisy//src/hid/usb.h **** #pragma once
   2:../../libDaisy//src/hid/usb.h **** #ifndef DSY_HID_USB_H
   3:../../libDaisy//src/hid/usb.h **** #define DSY_HID_USB_H
   4:../../libDaisy//src/hid/usb.h **** #include <stdint.h>
   5:../../libDaisy//src/hid/usb.h **** #include <stdlib.h>
   6:../../libDaisy//src/hid/usb.h **** 
   7:../../libDaisy//src/hid/usb.h **** namespace daisy
   8:../../libDaisy//src/hid/usb.h **** /** @addtogroup human_interface
   9:../../libDaisy//src/hid/usb.h ****     @{
  10:../../libDaisy//src/hid/usb.h **** */
  11:../../libDaisy//src/hid/usb.h **** 
  12:../../libDaisy//src/hid/usb.h **** {
  13:../../libDaisy//src/hid/usb.h **** /** 
  14:../../libDaisy//src/hid/usb.h ****     @brief Interface for initializing and using the USB Peripherals on the daisy
  15:../../libDaisy//src/hid/usb.h ****     @author Stephen Hensley
  16:../../libDaisy//src/hid/usb.h ****     @date December 2019
  17:../../libDaisy//src/hid/usb.h **** */
  18:../../libDaisy//src/hid/usb.h **** class UsbHandle
  19:../../libDaisy//src/hid/usb.h **** {
  20:../../libDaisy//src/hid/usb.h ****   public:
  21:../../libDaisy//src/hid/usb.h ****     /** Return values for USBHandle Functions */
ARM GAS  C:\Users\danst\AppData\Local\Temp\ccwBJjMd.s 			page 5


  22:../../libDaisy//src/hid/usb.h ****     enum class Result
  23:../../libDaisy//src/hid/usb.h ****     {
  24:../../libDaisy//src/hid/usb.h ****         OK,
  25:../../libDaisy//src/hid/usb.h ****         ERR,
  26:../../libDaisy//src/hid/usb.h ****     };
  27:../../libDaisy//src/hid/usb.h **** 
  28:../../libDaisy//src/hid/usb.h ****     /** Specified which of the two USB Peripherals to initialize. */
  29:../../libDaisy//src/hid/usb.h ****     enum UsbPeriph
  30:../../libDaisy//src/hid/usb.h ****     {
  31:../../libDaisy//src/hid/usb.h ****         FS_INTERNAL, /**< Internal pin */
  32:../../libDaisy//src/hid/usb.h ****         FS_EXTERNAL, /**< FS External D+ pin is Pin 38 (GPIO32). FS External D- pin is Pin 37 (GPIO
  33:../../libDaisy//src/hid/usb.h ****         FS_BOTH,     /**< Both */
  34:../../libDaisy//src/hid/usb.h ****     };
  35:../../libDaisy//src/hid/usb.h **** 
  36:../../libDaisy//src/hid/usb.h **** 
  37:../../libDaisy//src/hid/usb.h ****     /** Function called upon reception of a buffer */
  38:../../libDaisy//src/hid/usb.h ****     typedef void (*ReceiveCallback)(uint8_t* buff, uint32_t* len);
  39:../../libDaisy//src/hid/usb.h **** 
  40:../../libDaisy//src/hid/usb.h ****     UsbHandle() {}
  41:../../libDaisy//src/hid/usb.h **** 
  42:../../libDaisy//src/hid/usb.h ****     ~UsbHandle() {}
  69              		.loc 4 42 5 is_stmt 1 view .LVU5
  70              		.loc 4 42 5 is_stmt 0 view .LVU6
  71              	.LBE557:
  72              	.LBB558:
  73              	.LBI558:
  74              		.file 5 "../../libDaisy//src/per/adc.h"
   1:../../libDaisy//src/per/adc.h **** #pragma once
   2:../../libDaisy//src/per/adc.h **** #ifndef DSY_ADC_H
   3:../../libDaisy//src/per/adc.h **** #define DSY_ADC_H /**< Macro */
   4:../../libDaisy//src/per/adc.h **** #include <stdint.h>
   5:../../libDaisy//src/per/adc.h **** #include <stdlib.h>
   6:../../libDaisy//src/per/adc.h **** #include "daisy_core.h"
   7:../../libDaisy//src/per/adc.h **** #include "per/gpio.h"
   8:../../libDaisy//src/per/adc.h **** 
   9:../../libDaisy//src/per/adc.h **** #define DSY_ADC_MAX_CHANNELS 16 /**< Maximum number of ADC channels */
  10:../../libDaisy//src/per/adc.h **** 
  11:../../libDaisy//src/per/adc.h **** namespace daisy
  12:../../libDaisy//src/per/adc.h **** {
  13:../../libDaisy//src/per/adc.h **** /** @addtogroup per_analog
  14:../../libDaisy//src/per/adc.h ****     @{
  15:../../libDaisy//src/per/adc.h **** */
  16:../../libDaisy//src/per/adc.h **** 
  17:../../libDaisy//src/per/adc.h **** /* While there may not be many configuration options here,
  18:../../libDaisy//src/per/adc.h **** using a struct like this allows us to add more configuration
  19:../../libDaisy//src/per/adc.h **** later without breaking existing functionality.
  20:../../libDaisy//src/per/adc.h **** */
  21:../../libDaisy//src/per/adc.h **** 
  22:../../libDaisy//src/per/adc.h **** /** @brief   Configuration Structure for an ADC Channel 
  23:../../libDaisy//src/per/adc.h ****  *  @details This can be used to configure a a single input, 
  24:../../libDaisy//src/per/adc.h ****  *           or a multiplexed input, allowing up to 8 inputs on 
  25:../../libDaisy//src/per/adc.h ****  *           one channel.
  26:../../libDaisy//src/per/adc.h ****  *  @note    Sharing data lines to multiple muxes _is_ possible, but
  27:../../libDaisy//src/per/adc.h ****  *           each channel sharing data lines must be set to the maximum
  28:../../libDaisy//src/per/adc.h ****  *           number of channels, even if some multiplexers have fewer
  29:../../libDaisy//src/per/adc.h ****  *           inputs connected.
  30:../../libDaisy//src/per/adc.h **** */
ARM GAS  C:\Users\danst\AppData\Local\Temp\ccwBJjMd.s 			page 6


  31:../../libDaisy//src/per/adc.h **** struct AdcChannelConfig
  32:../../libDaisy//src/per/adc.h **** {
  33:../../libDaisy//src/per/adc.h ****     /** Which pin to use for multiplexing */
  34:../../libDaisy//src/per/adc.h ****     enum MuxPin
  35:../../libDaisy//src/per/adc.h ****     {
  36:../../libDaisy//src/per/adc.h ****         MUX_SEL_0,    /**< & */
  37:../../libDaisy//src/per/adc.h ****         MUX_SEL_1,    /**< & */
  38:../../libDaisy//src/per/adc.h ****         MUX_SEL_2,    /**< & */
  39:../../libDaisy//src/per/adc.h ****         MUX_SEL_LAST, /**< & */
  40:../../libDaisy//src/per/adc.h ****     };
  41:../../libDaisy//src/per/adc.h **** 
  42:../../libDaisy//src/per/adc.h ****     /** Initializes a single ADC pin as an ADC. 
  43:../../libDaisy//src/per/adc.h ****     \param pin Pin to init.
  44:../../libDaisy//src/per/adc.h ****      */
  45:../../libDaisy//src/per/adc.h ****     void InitSingle(dsy_gpio_pin pin);
  46:../../libDaisy//src/per/adc.h **** 
  47:../../libDaisy//src/per/adc.h ****     /** 
  48:../../libDaisy//src/per/adc.h ****     Initializes a single ADC pin as a Multiplexed ADC.
  49:../../libDaisy//src/per/adc.h ****     Requires a CD405X Multiplexer connected to the pin.
  50:../../libDaisy//src/per/adc.h ****     You only need to supply the mux pins that are required,
  51:../../libDaisy//src/per/adc.h ****     e.g. a 4052 mux would only require mux_0 and mux_1.
  52:../../libDaisy//src/per/adc.h ****     Internal Callbacks handle the pin addressing.
  53:../../libDaisy//src/per/adc.h ****     \param mux_channels must be 1-8
  54:../../libDaisy//src/per/adc.h ****     \param mux_0 First mux pin
  55:../../libDaisy//src/per/adc.h ****     \param mux_1 Second mux pin
  56:../../libDaisy//src/per/adc.h ****     \param mux_2 Third mux pin
  57:../../libDaisy//src/per/adc.h ****     \param adc_pin &
  58:../../libDaisy//src/per/adc.h ****     */
  59:../../libDaisy//src/per/adc.h ****     void InitMux(dsy_gpio_pin adc_pin,
  60:../../libDaisy//src/per/adc.h ****                  size_t       mux_channels,
  61:../../libDaisy//src/per/adc.h ****                  dsy_gpio_pin mux_0,
  62:../../libDaisy//src/per/adc.h ****                  dsy_gpio_pin mux_1 = {DSY_GPIOX, 0},
  63:../../libDaisy//src/per/adc.h ****                  dsy_gpio_pin mux_2 = {DSY_GPIOX, 0});
  64:../../libDaisy//src/per/adc.h **** 
  65:../../libDaisy//src/per/adc.h ****     dsy_gpio pin_;                   /**< & */
  66:../../libDaisy//src/per/adc.h ****     dsy_gpio mux_pin_[MUX_SEL_LAST]; /**< & */
  67:../../libDaisy//src/per/adc.h ****     uint8_t  mux_channels_;          /**< & */
  68:../../libDaisy//src/per/adc.h **** };
  69:../../libDaisy//src/per/adc.h **** 
  70:../../libDaisy//src/per/adc.h **** /**
  71:../../libDaisy//src/per/adc.h ****    @brief Handler for analog to digital conversion
  72:../../libDaisy//src/per/adc.h **** */
  73:../../libDaisy//src/per/adc.h **** class AdcHandle
  74:../../libDaisy//src/per/adc.h **** {
  75:../../libDaisy//src/per/adc.h ****   public:
  76:../../libDaisy//src/per/adc.h ****     /** Supported oversampling amounts */
  77:../../libDaisy//src/per/adc.h ****     enum OverSampling
  78:../../libDaisy//src/per/adc.h ****     {
  79:../../libDaisy//src/per/adc.h ****         OVS_NONE, /**< & */
  80:../../libDaisy//src/per/adc.h ****         OVS_4,    /**< & */
  81:../../libDaisy//src/per/adc.h ****         OVS_8,    /**< & */
  82:../../libDaisy//src/per/adc.h ****         OVS_16,   /**< & */
  83:../../libDaisy//src/per/adc.h ****         OVS_32,   /**< & */
  84:../../libDaisy//src/per/adc.h ****         OVS_64,   /**< & */
  85:../../libDaisy//src/per/adc.h ****         OVS_128,  /**< & */
  86:../../libDaisy//src/per/adc.h ****         OVS_256,  /**< & */
  87:../../libDaisy//src/per/adc.h ****         OVS_512,  /**< & */
ARM GAS  C:\Users\danst\AppData\Local\Temp\ccwBJjMd.s 			page 7


  88:../../libDaisy//src/per/adc.h ****         OVS_1024, /**< & */
  89:../../libDaisy//src/per/adc.h ****         OVS_LAST, /**< & */
  90:../../libDaisy//src/per/adc.h ****     };
  91:../../libDaisy//src/per/adc.h **** 
  92:../../libDaisy//src/per/adc.h ****     AdcHandle() {}
  93:../../libDaisy//src/per/adc.h ****     ~AdcHandle() {}
  75              		.loc 5 93 5 is_stmt 1 view .LVU7
  76              		.loc 5 93 5 is_stmt 0 view .LVU8
  77              	.LBE558:
  78              	.LBB559:
  79              	.LBI559:
  80              		.file 6 "../../libDaisy//src/hid/audio.h"
   1:../../libDaisy//src/hid/audio.h **** #ifndef DSY_AUDIO_H
   2:../../libDaisy//src/hid/audio.h **** #define DSY_AUDIO_H /**< & */
   3:../../libDaisy//src/hid/audio.h **** 
   4:../../libDaisy//src/hid/audio.h **** #include "per/sai.h"
   5:../../libDaisy//src/hid/audio.h **** 
   6:../../libDaisy//src/hid/audio.h **** namespace daisy
   7:../../libDaisy//src/hid/audio.h **** {
   8:../../libDaisy//src/hid/audio.h **** /** @brief Audio Engine Handle
   9:../../libDaisy//src/hid/audio.h ****  *  @ingroup audio 
  10:../../libDaisy//src/hid/audio.h ****  *  @details This class allows for higher level access to an audio engine.
  11:../../libDaisy//src/hid/audio.h ****  *           If you're using a SOM like the DaisySeed or DaisyPatchSM (or any 
  12:../../libDaisy//src/hid/audio.h ****  *            board that includes one of those objects) then the intialization
  13:../../libDaisy//src/hid/audio.h ****  *            is already taken  care of.
  14:../../libDaisy//src/hid/audio.h ****  *           If you're setting up your own custom hardware, or need to make changes
  15:../../libDaisy//src/hid/audio.h ****  *           you will have to take the following steps:
  16:../../libDaisy//src/hid/audio.h ****  *             1. Create and Initialize an SaiHandle or two depending on your requirements
  17:../../libDaisy//src/hid/audio.h ****  *             2. Initialize the Audio Handle with the desired settings and the Initialized SaiHand
  18:../../libDaisy//src/hid/audio.h ****  *             3. If the connected codec requires special configuration or initialization, do so
  19:../../libDaisy//src/hid/audio.h ****  *             4. Write a callback method using either the AudioCallback or the InterleavingAudioCa
  20:../../libDaisy//src/hid/audio.h ****  *             5. Start the Audio using one of the StartAudio function
  21:../../libDaisy//src/hid/audio.h ****  */
  22:../../libDaisy//src/hid/audio.h **** class AudioHandle
  23:../../libDaisy//src/hid/audio.h **** {
  24:../../libDaisy//src/hid/audio.h ****   public:
  25:../../libDaisy//src/hid/audio.h ****     /** Manually configurable details about the Audio Engine */
  26:../../libDaisy//src/hid/audio.h ****     /** TODO: Figure out how to get samplerate in here. */
  27:../../libDaisy//src/hid/audio.h ****     struct Config
  28:../../libDaisy//src/hid/audio.h ****     {
  29:../../libDaisy//src/hid/audio.h ****         /** number of samples to process per callback */
  30:../../libDaisy//src/hid/audio.h ****         size_t blocksize;
  31:../../libDaisy//src/hid/audio.h **** 
  32:../../libDaisy//src/hid/audio.h ****         /**< Sample rate of audio */
  33:../../libDaisy//src/hid/audio.h ****         SaiHandle::Config::SampleRate samplerate;
  34:../../libDaisy//src/hid/audio.h **** 
  35:../../libDaisy//src/hid/audio.h ****         /** factor for adjustment before and after callback for hardware that may have extra headro
  36:../../libDaisy//src/hid/audio.h ****         float postgain;
  37:../../libDaisy//src/hid/audio.h **** 
  38:../../libDaisy//src/hid/audio.h ****         /** factor for additional one-sided compensation to audio path for hardware that may
  39:../../libDaisy//src/hid/audio.h ****          *  have unequal input/output ranges
  40:../../libDaisy//src/hid/audio.h ****          */
  41:../../libDaisy//src/hid/audio.h ****         float output_compensation;
  42:../../libDaisy//src/hid/audio.h **** 
  43:../../libDaisy//src/hid/audio.h ****         /** Sets default values for config struct */
  44:../../libDaisy//src/hid/audio.h ****         Config()
  45:../../libDaisy//src/hid/audio.h ****         : blocksize(48),
ARM GAS  C:\Users\danst\AppData\Local\Temp\ccwBJjMd.s 			page 8


  46:../../libDaisy//src/hid/audio.h ****           samplerate(SaiHandle::Config::SampleRate::SAI_48KHZ),
  47:../../libDaisy//src/hid/audio.h ****           postgain(1.f),
  48:../../libDaisy//src/hid/audio.h ****           output_compensation(1.f)
  49:../../libDaisy//src/hid/audio.h ****         {
  50:../../libDaisy//src/hid/audio.h ****         }
  51:../../libDaisy//src/hid/audio.h ****     };
  52:../../libDaisy//src/hid/audio.h **** 
  53:../../libDaisy//src/hid/audio.h ****     enum class Result
  54:../../libDaisy//src/hid/audio.h ****     {
  55:../../libDaisy//src/hid/audio.h ****         OK,
  56:../../libDaisy//src/hid/audio.h ****         ERR,
  57:../../libDaisy//src/hid/audio.h ****     };
  58:../../libDaisy//src/hid/audio.h **** 
  59:../../libDaisy//src/hid/audio.h ****     /** Non-Interleaving input buffer
  60:../../libDaisy//src/hid/audio.h ****      * Buffer arranged by float[chn][sample] 
  61:../../libDaisy//src/hid/audio.h ****      * const so that the user can't modify the input
  62:../../libDaisy//src/hid/audio.h ****      */
  63:../../libDaisy//src/hid/audio.h ****     typedef const float* const* InputBuffer;
  64:../../libDaisy//src/hid/audio.h **** 
  65:../../libDaisy//src/hid/audio.h ****     /** Non-Interleaving output buffer
  66:../../libDaisy//src/hid/audio.h ****      * Arranged by float[chn][sample] 
  67:../../libDaisy//src/hid/audio.h ****      */
  68:../../libDaisy//src/hid/audio.h ****     typedef float** OutputBuffer;
  69:../../libDaisy//src/hid/audio.h **** 
  70:../../libDaisy//src/hid/audio.h ****     /** Type for a Non-Interleaving audio callback 
  71:../../libDaisy//src/hid/audio.h ****      * Non-Interleaving audio callbacks in daisy will be of this type
  72:../../libDaisy//src/hid/audio.h ****      */
  73:../../libDaisy//src/hid/audio.h ****     typedef void (*AudioCallback)(InputBuffer  in,
  74:../../libDaisy//src/hid/audio.h ****                                   OutputBuffer out,
  75:../../libDaisy//src/hid/audio.h ****                                   size_t       size);
  76:../../libDaisy//src/hid/audio.h **** 
  77:../../libDaisy//src/hid/audio.h ****     /** Interleaving Input buffer
  78:../../libDaisy//src/hid/audio.h ****      ** audio is prepared as { L0, R0, L1, R1, . . . LN, RN }]
  79:../../libDaisy//src/hid/audio.h ****      ** this is const, as the user shouldn't modify it
  80:../../libDaisy//src/hid/audio.h ****     */
  81:../../libDaisy//src/hid/audio.h ****     typedef const float* InterleavingInputBuffer;
  82:../../libDaisy//src/hid/audio.h **** 
  83:../../libDaisy//src/hid/audio.h ****     /** Interleaving Output buffer 
  84:../../libDaisy//src/hid/audio.h ****      ** audio is prepared as { L0, R0, L1, R1, . . . LN, RN }
  85:../../libDaisy//src/hid/audio.h ****     */
  86:../../libDaisy//src/hid/audio.h ****     typedef float* InterleavingOutputBuffer;
  87:../../libDaisy//src/hid/audio.h **** 
  88:../../libDaisy//src/hid/audio.h ****     /** Interleaving Audio Callback 
  89:../../libDaisy//src/hid/audio.h ****      * Interleaving audio callbacks in daisy must be of this type
  90:../../libDaisy//src/hid/audio.h ****      */
  91:../../libDaisy//src/hid/audio.h ****     typedef void (*InterleavingAudioCallback)(InterleavingInputBuffer  in,
  92:../../libDaisy//src/hid/audio.h ****                                               InterleavingOutputBuffer out,
  93:../../libDaisy//src/hid/audio.h ****                                               size_t                   size);
  94:../../libDaisy//src/hid/audio.h **** 
  95:../../libDaisy//src/hid/audio.h ****     AudioHandle() : pimpl_(nullptr) {}
  96:../../libDaisy//src/hid/audio.h ****     ~AudioHandle() {}
  81              		.loc 6 96 5 is_stmt 1 view .LVU9
  82              		.loc 6 96 5 is_stmt 0 view .LVU10
  83              	.LBE559:
  84              		.loc 2 22 19 view .LVU11
  85 0000 7047     		bx	lr
  86              		.cfi_endproc
ARM GAS  C:\Users\danst\AppData\Local\Temp\ccwBJjMd.s 			page 9


  87              	.LFE2528:
  89              		.weak	_ZN5daisy9DaisySeedD1Ev
  90              		.thumb_set _ZN5daisy9DaisySeedD1Ev,_ZN5daisy9DaisySeedD2Ev
  91 0002 00BF     		.section	.text._ZN7daisysp4AdsrD2Ev,"axG",%progbits,_ZN7daisysp4AdsrD5Ev,comdat
  92              		.align	1
  93              		.p2align 2,,3
  94              		.weak	_ZN7daisysp4AdsrD2Ev
  95              		.syntax unified
  96              		.thumb
  97              		.thumb_func
  98              		.fpu fpv5-d16
 100              	_ZN7daisysp4AdsrD2Ev:
 101              	.LVL2:
 102              	.LFB2551:
 103              		.file 7 "../../DaisySP//Source/Control/adsr.h"
   1:../../DaisySP//Source/Control/adsr.h **** #pragma once
   2:../../DaisySP//Source/Control/adsr.h **** #ifndef DSY_ADSR_H
   3:../../DaisySP//Source/Control/adsr.h **** #define DSY_ADSR_H
   4:../../DaisySP//Source/Control/adsr.h **** 
   5:../../DaisySP//Source/Control/adsr.h **** #include <stdint.h>
   6:../../DaisySP//Source/Control/adsr.h **** #ifdef __cplusplus
   7:../../DaisySP//Source/Control/adsr.h **** 
   8:../../DaisySP//Source/Control/adsr.h **** namespace daisysp
   9:../../DaisySP//Source/Control/adsr.h **** {
  10:../../DaisySP//Source/Control/adsr.h **** /** Distinct stages that the phase of the envelope can be located in.
  11:../../DaisySP//Source/Control/adsr.h **** - IDLE   = located at phase location 0, and not currently running
  12:../../DaisySP//Source/Control/adsr.h **** - ATTACK  = First segment of envelope where phase moves from 0 to 1
  13:../../DaisySP//Source/Control/adsr.h **** - DECAY   = Second segment of envelope where phase moves from 1 to SUSTAIN value
  14:../../DaisySP//Source/Control/adsr.h **** - RELEASE =     Fourth segment of envelop where phase moves from SUSTAIN to 0
  15:../../DaisySP//Source/Control/adsr.h **** */
  16:../../DaisySP//Source/Control/adsr.h **** enum
  17:../../DaisySP//Source/Control/adsr.h **** {
  18:../../DaisySP//Source/Control/adsr.h ****     ADSR_SEG_IDLE    = 0,
  19:../../DaisySP//Source/Control/adsr.h ****     ADSR_SEG_ATTACK  = 1,
  20:../../DaisySP//Source/Control/adsr.h ****     ADSR_SEG_DECAY   = 2,
  21:../../DaisySP//Source/Control/adsr.h ****     ADSR_SEG_RELEASE = 4
  22:../../DaisySP//Source/Control/adsr.h **** };
  23:../../DaisySP//Source/Control/adsr.h **** 
  24:../../DaisySP//Source/Control/adsr.h **** 
  25:../../DaisySP//Source/Control/adsr.h **** /** adsr envelope module
  26:../../DaisySP//Source/Control/adsr.h **** 
  27:../../DaisySP//Source/Control/adsr.h **** Original author(s) : Paul Batchelor
  28:../../DaisySP//Source/Control/adsr.h **** 
  29:../../DaisySP//Source/Control/adsr.h **** Ported from Soundpipe by Ben Sergentanis, May 2020
  30:../../DaisySP//Source/Control/adsr.h ****  
  31:../../DaisySP//Source/Control/adsr.h **** Remake by Steffan DIedrichsen, May 2021
  32:../../DaisySP//Source/Control/adsr.h **** */
  33:../../DaisySP//Source/Control/adsr.h **** class Adsr
  34:../../DaisySP//Source/Control/adsr.h **** {
  35:../../DaisySP//Source/Control/adsr.h ****   public:
  36:../../DaisySP//Source/Control/adsr.h ****     Adsr() {}
  37:../../DaisySP//Source/Control/adsr.h ****     ~Adsr() {}
 104              		.loc 7 37 5 is_stmt 1 view -0
 105              		.cfi_startproc
 106              		@ args = 0, pretend = 0, frame = 0
 107              		@ frame_needed = 0, uses_anonymous_args = 0
 108              		@ link register save eliminated.
ARM GAS  C:\Users\danst\AppData\Local\Temp\ccwBJjMd.s 			page 10


 109              		.loc 7 37 14 is_stmt 0 view .LVU13
 110 0000 7047     		bx	lr
 111              		.cfi_endproc
 112              	.LFE2551:
 114              		.weak	_ZN7daisysp4AdsrD1Ev
 115              		.thumb_set _ZN7daisysp4AdsrD1Ev,_ZN7daisysp4AdsrD2Ev
 116              		.section	.text._ZN7daisysp10OscillatorD2Ev,"axG",%progbits,_ZN7daisysp10OscillatorD5Ev,comdat
 117              		.align	1
 118              		.p2align 2,,3
 119              		.weak	_ZN7daisysp10OscillatorD2Ev
 120              		.syntax unified
 121              		.thumb
 122              		.thumb_func
 123              		.fpu fpv5-d16
 125              	_ZN7daisysp10OscillatorD2Ev:
 126              	.LVL3:
 127              	.LFB4218:
 128              		.file 8 "../../DaisySP//Source/Synthesis/oscillator.h"
   1:../../DaisySP//Source/Synthesis/oscillator.h **** #pragma once
   2:../../DaisySP//Source/Synthesis/oscillator.h **** #ifndef DSY_OSCILLATOR_H
   3:../../DaisySP//Source/Synthesis/oscillator.h **** #define DSY_OSCILLATOR_H
   4:../../DaisySP//Source/Synthesis/oscillator.h **** #include <stdint.h>
   5:../../DaisySP//Source/Synthesis/oscillator.h **** #include "Utility/dsp.h"
   6:../../DaisySP//Source/Synthesis/oscillator.h **** #ifdef __cplusplus
   7:../../DaisySP//Source/Synthesis/oscillator.h **** 
   8:../../DaisySP//Source/Synthesis/oscillator.h **** namespace daisysp
   9:../../DaisySP//Source/Synthesis/oscillator.h **** {
  10:../../DaisySP//Source/Synthesis/oscillator.h **** /** Synthesis of several waveforms, including polyBLEP bandlimited waveforms.
  11:../../DaisySP//Source/Synthesis/oscillator.h **** */
  12:../../DaisySP//Source/Synthesis/oscillator.h **** class Oscillator
  13:../../DaisySP//Source/Synthesis/oscillator.h **** {
  14:../../DaisySP//Source/Synthesis/oscillator.h ****   public:
  15:../../DaisySP//Source/Synthesis/oscillator.h ****     Oscillator() {}
  16:../../DaisySP//Source/Synthesis/oscillator.h ****     ~Oscillator() {}
 129              		.loc 8 16 5 is_stmt 1 view -0
 130              		.cfi_startproc
 131              		@ args = 0, pretend = 0, frame = 0
 132              		@ frame_needed = 0, uses_anonymous_args = 0
 133              		@ link register save eliminated.
 134              		.loc 8 16 20 is_stmt 0 view .LVU15
 135 0000 7047     		bx	lr
 136              		.cfi_endproc
 137              	.LFE4218:
 139              		.weak	_ZN7daisysp10OscillatorD1Ev
 140              		.thumb_set _ZN7daisysp10OscillatorD1Ev,_ZN7daisysp10OscillatorD2Ev
 141              		.section	.text._ZN7daisysp3SvfD2Ev,"axG",%progbits,_ZN7daisysp3SvfD5Ev,comdat
 142              		.align	1
 143              		.p2align 2,,3
 144              		.weak	_ZN7daisysp3SvfD2Ev
 145              		.syntax unified
 146              		.thumb
 147              		.thumb_func
 148              		.fpu fpv5-d16
 150              	_ZN7daisysp3SvfD2Ev:
 151              	.LVL4:
 152              	.LFB4234:
 153              		.file 9 "../../DaisySP//Source/Filters/svf.h"
ARM GAS  C:\Users\danst\AppData\Local\Temp\ccwBJjMd.s 			page 11


   1:../../DaisySP//Source/Filters/svf.h **** #pragma once
   2:../../DaisySP//Source/Filters/svf.h **** #ifndef DSY_SVF_H
   3:../../DaisySP//Source/Filters/svf.h **** #define DSY_SVF_H
   4:../../DaisySP//Source/Filters/svf.h **** 
   5:../../DaisySP//Source/Filters/svf.h **** namespace daisysp
   6:../../DaisySP//Source/Filters/svf.h **** {
   7:../../DaisySP//Source/Filters/svf.h **** /**      Double Sampled, Stable State Variable Filter
   8:../../DaisySP//Source/Filters/svf.h **** 
   9:../../DaisySP//Source/Filters/svf.h **** Credit to Andrew Simper from musicdsp.org
  10:../../DaisySP//Source/Filters/svf.h **** 
  11:../../DaisySP//Source/Filters/svf.h **** This is his "State Variable Filter (Double Sampled, Stable)"
  12:../../DaisySP//Source/Filters/svf.h **** 
  13:../../DaisySP//Source/Filters/svf.h **** Additional thanks to Laurent de Soras for stability limit, and 
  14:../../DaisySP//Source/Filters/svf.h **** Stefan Diedrichsen for the correct notch output
  15:../../DaisySP//Source/Filters/svf.h **** 
  16:../../DaisySP//Source/Filters/svf.h **** Ported by: Stephen Hensley
  17:../../DaisySP//Source/Filters/svf.h **** */
  18:../../DaisySP//Source/Filters/svf.h **** class Svf
  19:../../DaisySP//Source/Filters/svf.h **** {
  20:../../DaisySP//Source/Filters/svf.h ****   public:
  21:../../DaisySP//Source/Filters/svf.h ****     Svf() {}
  22:../../DaisySP//Source/Filters/svf.h ****     ~Svf() {}
 154              		.loc 9 22 5 is_stmt 1 view -0
 155              		.cfi_startproc
 156              		@ args = 0, pretend = 0, frame = 0
 157              		@ frame_needed = 0, uses_anonymous_args = 0
 158              		@ link register save eliminated.
 159              		.loc 9 22 13 is_stmt 0 view .LVU17
 160 0000 7047     		bx	lr
 161              		.cfi_endproc
 162              	.LFE4234:
 164              		.weak	_ZN7daisysp3SvfD1Ev
 165              		.thumb_set _ZN7daisysp3SvfD1Ev,_ZN7daisysp3SvfD2Ev
 166              		.section	.text._ZN7daisysp9OverdriveD2Ev,"axG",%progbits,_ZN7daisysp9OverdriveD5Ev,comdat
 167              		.align	1
 168              		.p2align 2,,3
 169              		.weak	_ZN7daisysp9OverdriveD2Ev
 170              		.syntax unified
 171              		.thumb
 172              		.thumb_func
 173              		.fpu fpv5-d16
 175              	_ZN7daisysp9OverdriveD2Ev:
 176              	.LVL5:
 177              	.LFB4415:
 178              		.file 10 "../../DaisySP//Source/Effects/overdrive.h"
   1:../../DaisySP//Source/Effects/overdrive.h **** #pragma once
   2:../../DaisySP//Source/Effects/overdrive.h **** #ifndef DSY_OVERDRIVE_H
   3:../../DaisySP//Source/Effects/overdrive.h **** #define DSY_OVERDRIVE_H
   4:../../DaisySP//Source/Effects/overdrive.h **** 
   5:../../DaisySP//Source/Effects/overdrive.h **** #include <stdint.h>
   6:../../DaisySP//Source/Effects/overdrive.h **** #ifdef __cplusplus
   7:../../DaisySP//Source/Effects/overdrive.h **** 
   8:../../DaisySP//Source/Effects/overdrive.h **** /** @file overdrive.h */
   9:../../DaisySP//Source/Effects/overdrive.h **** 
  10:../../DaisySP//Source/Effects/overdrive.h **** namespace daisysp
  11:../../DaisySP//Source/Effects/overdrive.h **** {
  12:../../DaisySP//Source/Effects/overdrive.h **** /**  
ARM GAS  C:\Users\danst\AppData\Local\Temp\ccwBJjMd.s 			page 12


  13:../../DaisySP//Source/Effects/overdrive.h ****        @brief Distortion / Overdrive Module
  14:../../DaisySP//Source/Effects/overdrive.h ****        @author Ported by Ben Sergentanis 
  15:../../DaisySP//Source/Effects/overdrive.h ****        @date Jan 2021 
  16:../../DaisySP//Source/Effects/overdrive.h ****        Ported from pichenettes/eurorack/plaits/dsp/fx/overdrive.h \n
  17:../../DaisySP//Source/Effects/overdrive.h ****        to an independent module. \n
  18:../../DaisySP//Source/Effects/overdrive.h ****        Original code written by Emilie Gillet in 2014. \n
  19:../../DaisySP//Source/Effects/overdrive.h **** */
  20:../../DaisySP//Source/Effects/overdrive.h **** class Overdrive
  21:../../DaisySP//Source/Effects/overdrive.h **** {
  22:../../DaisySP//Source/Effects/overdrive.h ****   public:
  23:../../DaisySP//Source/Effects/overdrive.h ****     Overdrive() {}
  24:../../DaisySP//Source/Effects/overdrive.h ****     ~Overdrive() {}
 179              		.loc 10 24 5 is_stmt 1 view -0
 180              		.cfi_startproc
 181              		@ args = 0, pretend = 0, frame = 0
 182              		@ frame_needed = 0, uses_anonymous_args = 0
 183              		@ link register save eliminated.
 184              		.loc 10 24 19 is_stmt 0 view .LVU19
 185 0000 7047     		bx	lr
 186              		.cfi_endproc
 187              	.LFE4415:
 189              		.weak	_ZN7daisysp9OverdriveD1Ev
 190              		.thumb_set _ZN7daisysp9OverdriveD1Ev,_ZN7daisysp9OverdriveD2Ev
 191              		.section	.text._ZN7daisysp4CombD2Ev,"axG",%progbits,_ZN7daisysp4CombD5Ev,comdat
 192              		.align	1
 193              		.p2align 2,,3
 194              		.weak	_ZN7daisysp4CombD2Ev
 195              		.syntax unified
 196              		.thumb
 197              		.thumb_func
 198              		.fpu fpv5-d16
 200              	_ZN7daisysp4CombD2Ev:
 201              	.LVL6:
 202              	.LFB4490:
 203              		.file 11 "../../DaisySP//Source/Filters/comb.h"
   1:../../DaisySP//Source/Filters/comb.h **** #pragma once
   2:../../DaisySP//Source/Filters/comb.h **** #ifndef DSY_COMB_H
   3:../../DaisySP//Source/Filters/comb.h **** #define DSY_COMB_H
   4:../../DaisySP//Source/Filters/comb.h **** #ifdef __cplusplus
   5:../../DaisySP//Source/Filters/comb.h **** 
   6:../../DaisySP//Source/Filters/comb.h **** #include "Utility/dsp.h"
   7:../../DaisySP//Source/Filters/comb.h **** 
   8:../../DaisySP//Source/Filters/comb.h **** namespace daisysp
   9:../../DaisySP//Source/Filters/comb.h **** {
  10:../../DaisySP//Source/Filters/comb.h **** /** Comb filter module
  11:../../DaisySP//Source/Filters/comb.h **** 
  12:../../DaisySP//Source/Filters/comb.h ****     Original author(s) :
  13:../../DaisySP//Source/Filters/comb.h **** 
  14:../../DaisySP//Source/Filters/comb.h ****     Ported from soundpipe by Ben Sergentanis, May 2020
  15:../../DaisySP//Source/Filters/comb.h **** */
  16:../../DaisySP//Source/Filters/comb.h **** class Comb
  17:../../DaisySP//Source/Filters/comb.h **** {
  18:../../DaisySP//Source/Filters/comb.h ****   public:
  19:../../DaisySP//Source/Filters/comb.h ****     Comb() {}
  20:../../DaisySP//Source/Filters/comb.h ****     ~Comb() {}
 204              		.loc 11 20 5 is_stmt 1 view -0
 205              		.cfi_startproc
ARM GAS  C:\Users\danst\AppData\Local\Temp\ccwBJjMd.s 			page 13


 206              		@ args = 0, pretend = 0, frame = 0
 207              		@ frame_needed = 0, uses_anonymous_args = 0
 208              		@ link register save eliminated.
 209              		.loc 11 20 14 is_stmt 0 view .LVU21
 210 0000 7047     		bx	lr
 211              		.cfi_endproc
 212              	.LFE4490:
 214              		.weak	_ZN7daisysp4CombD1Ev
 215              		.thumb_set _ZN7daisysp4CombD1Ev,_ZN7daisysp4CombD2Ev
 216              		.section	.text._ZN7daisysp11SuperSawOscD2Ev,"axG",%progbits,_ZN7daisysp11SuperSawOscD5Ev,comdat
 217              		.align	1
 218              		.p2align 2,,3
 219              		.weak	_ZN7daisysp11SuperSawOscD2Ev
 220              		.syntax unified
 221              		.thumb
 222              		.thumb_func
 223              		.fpu fpv5-d16
 225              	_ZN7daisysp11SuperSawOscD2Ev:
 226              	.LVL7:
 227              	.LFB4783:
 228              		.file 12 "SuperSawOsc.h"
   1:SuperSawOsc.h **** #pragma once
   2:SuperSawOsc.h **** #ifndef DSY_SN_SUPERSAW_H
   3:SuperSawOsc.h **** #include "daisy_seed.h"
   4:SuperSawOsc.h **** #include "daisysp.h"
   5:SuperSawOsc.h **** #ifdef __cplusplus
   6:SuperSawOsc.h **** /* 
   7:SuperSawOsc.h **** IMPLEMENTED USING DETAILS FROM:
   8:SuperSawOsc.h **** https://forum.orthogonaldevices.com/uploads/short-url/rLjREzRcZvvK2527rFnTGvuwY1b.pdf
   9:SuperSawOsc.h **** */
  10:SuperSawOsc.h **** namespace daisysp {
  11:SuperSawOsc.h ****     #define DSY_SN_SUPERSAW_H
  12:SuperSawOsc.h ****     #define NUMBER_OF_SAWS 7
  13:SuperSawOsc.h ****     #define CURVE_POINTS 17
  14:SuperSawOsc.h ****     #define DRIFT_LOOKUP_TABLE { 0.0, 0.00967268, 0.0220363, 0.0339636, 0.0467636, 0.0591273, 0.071
  15:SuperSawOsc.h ****     #define SHIFT_LOOKUP_TABLE { 0.03836, 0.12, 0.19, 0.25, 0.31, 0.37, 0.42, 0.46, 0.5, 0.53, 0.56
  16:SuperSawOsc.h ****     #define DETUNE_AMOUNTS { -0.11002314, -0.0628844, -0.01952357, 0.0, 0.01991221, 0.06216538, 0.1
  17:SuperSawOsc.h ****     #define AMP_AMOUNTS { 0.4, 0.4, 0.4, 0.4, 0.5, 0.5, 0.45 }
  18:SuperSawOsc.h ****     class SuperSawOsc {
  19:SuperSawOsc.h ****         public:
  20:SuperSawOsc.h ****             SuperSawOsc(){}
  21:SuperSawOsc.h ****             ~SuperSawOsc(){}
 229              		.loc 12 21 13 is_stmt 1 view -0
 230              		.cfi_startproc
 231              		@ args = 0, pretend = 0, frame = 0
 232              		@ frame_needed = 0, uses_anonymous_args = 0
 233              		@ link register save eliminated.
 234              	.LBB560:
 235              	.LBI560:
 236              		.file 13 "../../DaisySP//Source/Filters/atone.h"
   1:../../DaisySP//Source/Filters/atone.h **** #pragma once
   2:../../DaisySP//Source/Filters/atone.h **** #ifndef DSY_ATONE_H
   3:../../DaisySP//Source/Filters/atone.h **** #define DSY_ATONE_H
   4:../../DaisySP//Source/Filters/atone.h **** 
   5:../../DaisySP//Source/Filters/atone.h **** #include <stdint.h>
   6:../../DaisySP//Source/Filters/atone.h **** #ifdef __cplusplus
   7:../../DaisySP//Source/Filters/atone.h **** 
ARM GAS  C:\Users\danst\AppData\Local\Temp\ccwBJjMd.s 			page 14


   8:../../DaisySP//Source/Filters/atone.h **** namespace daisysp
   9:../../DaisySP//Source/Filters/atone.h **** {
  10:../../DaisySP//Source/Filters/atone.h **** /** A first-order recursive high-pass filter with variable frequency response.
  11:../../DaisySP//Source/Filters/atone.h ****      Original Author(s): Barry Vercoe, John FFitch, Gabriel Maldonado
  12:../../DaisySP//Source/Filters/atone.h **** 
  13:../../DaisySP//Source/Filters/atone.h ****      Year: 1991
  14:../../DaisySP//Source/Filters/atone.h **** 
  15:../../DaisySP//Source/Filters/atone.h ****      Original Location: Csound -- OOps/ugens5.c
  16:../../DaisySP//Source/Filters/atone.h **** 
  17:../../DaisySP//Source/Filters/atone.h ****      Ported from soundpipe by Ben Sergentanis, May 2020
  18:../../DaisySP//Source/Filters/atone.h ****     */
  19:../../DaisySP//Source/Filters/atone.h **** class ATone
  20:../../DaisySP//Source/Filters/atone.h **** {
  21:../../DaisySP//Source/Filters/atone.h ****   public:
  22:../../DaisySP//Source/Filters/atone.h ****     ATone() {}
  23:../../DaisySP//Source/Filters/atone.h ****     ~ATone() {}
 237              		.loc 13 23 5 view .LVU23
 238              		.loc 13 23 5 is_stmt 0 view .LVU24
 239              	.LBE560:
 240              		.loc 12 21 28 view .LVU25
 241 0000 7047     		bx	lr
 242              		.cfi_endproc
 243              	.LFE4783:
 245              		.weak	_ZN7daisysp11SuperSawOscD1Ev
 246              		.thumb_set _ZN7daisysp11SuperSawOscD1Ev,_ZN7daisysp11SuperSawOscD2Ev
 247 0002 00BF     		.section	.text._ZN5daisy11MidiHandlerINS_16MidiUsbTransportEED2Ev,"axG",%progbits,_ZN5daisy11MidiH
 248              		.align	1
 249              		.p2align 2,,3
 250              		.weak	_ZN5daisy11MidiHandlerINS_16MidiUsbTransportEED2Ev
 251              		.syntax unified
 252              		.thumb
 253              		.thumb_func
 254              		.fpu fpv5-d16
 256              	_ZN5daisy11MidiHandlerINS_16MidiUsbTransportEED2Ev:
 257              	.LVL8:
 258              	.LFB5384:
 259              		.file 14 "../../libDaisy//src/hid/midi.h"
   1:../../libDaisy//src/hid/midi.h **** #pragma once
   2:../../libDaisy//src/hid/midi.h **** #ifndef DSY_MIDI_H
   3:../../libDaisy//src/hid/midi.h **** #define DSY_MIDI_H
   4:../../libDaisy//src/hid/midi.h **** 
   5:../../libDaisy//src/hid/midi.h **** // TODO: make this adjustable
   6:../../libDaisy//src/hid/midi.h **** #define SYSEX_BUFFER_LEN 128
   7:../../libDaisy//src/hid/midi.h **** 
   8:../../libDaisy//src/hid/midi.h **** #include <stdint.h>
   9:../../libDaisy//src/hid/midi.h **** #include <stdlib.h>
  10:../../libDaisy//src/hid/midi.h **** #include "per/uart.h"
  11:../../libDaisy//src/hid/midi.h **** #include "util/ringbuffer.h"
  12:../../libDaisy//src/hid/midi.h **** #include "hid/MidiEvent.h"
  13:../../libDaisy//src/hid/midi.h **** #include "hid/usb_midi.h"
  14:../../libDaisy//src/hid/midi.h **** #include "sys/system.h"
  15:../../libDaisy//src/hid/midi.h **** 
  16:../../libDaisy//src/hid/midi.h **** namespace daisy
  17:../../libDaisy//src/hid/midi.h **** {
  18:../../libDaisy//src/hid/midi.h **** /** @brief   Transport layer for sending and receiving MIDI data over UART 
  19:../../libDaisy//src/hid/midi.h ****  *  @details This is the mode of communication used for TRS and DIN MIDI
  20:../../libDaisy//src/hid/midi.h ****  *  @ingroup midi
ARM GAS  C:\Users\danst\AppData\Local\Temp\ccwBJjMd.s 			page 15


  21:../../libDaisy//src/hid/midi.h **** */
  22:../../libDaisy//src/hid/midi.h **** class MidiUartTransport
  23:../../libDaisy//src/hid/midi.h **** {
  24:../../libDaisy//src/hid/midi.h ****   public:
  25:../../libDaisy//src/hid/midi.h ****     MidiUartTransport() {}
  26:../../libDaisy//src/hid/midi.h ****     ~MidiUartTransport() {}
  27:../../libDaisy//src/hid/midi.h **** 
  28:../../libDaisy//src/hid/midi.h ****     struct Config
  29:../../libDaisy//src/hid/midi.h ****     {
  30:../../libDaisy//src/hid/midi.h ****         UartHandler::Config::Peripheral periph;
  31:../../libDaisy//src/hid/midi.h ****         dsy_gpio_pin                    rx;
  32:../../libDaisy//src/hid/midi.h ****         dsy_gpio_pin                    tx;
  33:../../libDaisy//src/hid/midi.h **** 
  34:../../libDaisy//src/hid/midi.h ****         Config()
  35:../../libDaisy//src/hid/midi.h ****         {
  36:../../libDaisy//src/hid/midi.h ****             periph = UartHandler::Config::Peripheral::USART_1;
  37:../../libDaisy//src/hid/midi.h ****             rx     = {DSY_GPIOB, 7};
  38:../../libDaisy//src/hid/midi.h ****             tx     = {DSY_GPIOB, 6};
  39:../../libDaisy//src/hid/midi.h ****         }
  40:../../libDaisy//src/hid/midi.h ****     };
  41:../../libDaisy//src/hid/midi.h **** 
  42:../../libDaisy//src/hid/midi.h ****     inline void Init(Config config)
  43:../../libDaisy//src/hid/midi.h ****     {
  44:../../libDaisy//src/hid/midi.h ****         UartHandler::Config uart_config;
  45:../../libDaisy//src/hid/midi.h **** 
  46:../../libDaisy//src/hid/midi.h ****         //defaults
  47:../../libDaisy//src/hid/midi.h ****         uart_config.baudrate   = 31250;
  48:../../libDaisy//src/hid/midi.h ****         uart_config.stopbits   = UartHandler::Config::StopBits::BITS_1;
  49:../../libDaisy//src/hid/midi.h ****         uart_config.parity     = UartHandler::Config::Parity::NONE;
  50:../../libDaisy//src/hid/midi.h ****         uart_config.mode       = UartHandler::Config::Mode::TX_RX;
  51:../../libDaisy//src/hid/midi.h ****         uart_config.wordlength = UartHandler::Config::WordLength::BITS_8;
  52:../../libDaisy//src/hid/midi.h **** 
  53:../../libDaisy//src/hid/midi.h ****         //user settings
  54:../../libDaisy//src/hid/midi.h ****         uart_config.periph        = config.periph;
  55:../../libDaisy//src/hid/midi.h ****         uart_config.pin_config.rx = config.rx;
  56:../../libDaisy//src/hid/midi.h ****         uart_config.pin_config.tx = config.tx;
  57:../../libDaisy//src/hid/midi.h **** 
  58:../../libDaisy//src/hid/midi.h ****         uart_.Init(uart_config);
  59:../../libDaisy//src/hid/midi.h ****     }
  60:../../libDaisy//src/hid/midi.h **** 
  61:../../libDaisy//src/hid/midi.h ****     inline void    StartRx() { uart_.StartRx(); }
  62:../../libDaisy//src/hid/midi.h ****     inline size_t  Readable() { return uart_.Readable(); }
  63:../../libDaisy//src/hid/midi.h ****     inline uint8_t Rx() { return uart_.PopRx(); }
  64:../../libDaisy//src/hid/midi.h ****     inline bool    RxActive() { return uart_.RxActive(); }
  65:../../libDaisy//src/hid/midi.h ****     inline void    FlushRx() { uart_.FlushRx(); }
  66:../../libDaisy//src/hid/midi.h ****     inline void    Tx(uint8_t* buff, size_t size) { uart_.PollTx(buff, size); }
  67:../../libDaisy//src/hid/midi.h **** 
  68:../../libDaisy//src/hid/midi.h ****   private:
  69:../../libDaisy//src/hid/midi.h ****     UartHandler uart_;
  70:../../libDaisy//src/hid/midi.h **** };
  71:../../libDaisy//src/hid/midi.h **** 
  72:../../libDaisy//src/hid/midi.h **** /** 
  73:../../libDaisy//src/hid/midi.h ****     @brief Simple MIDI Handler \n 
  74:../../libDaisy//src/hid/midi.h ****     Parses bytes from an input into valid MidiEvents. \n 
  75:../../libDaisy//src/hid/midi.h ****     The MidiEvents fill a FIFO queue that the user can pop messages from.
  76:../../libDaisy//src/hid/midi.h ****     @author shensley
  77:../../libDaisy//src/hid/midi.h ****     @date March 2020
ARM GAS  C:\Users\danst\AppData\Local\Temp\ccwBJjMd.s 			page 16


  78:../../libDaisy//src/hid/midi.h ****     @ingroup midi
  79:../../libDaisy//src/hid/midi.h **** */
  80:../../libDaisy//src/hid/midi.h **** template <typename Transport>
  81:../../libDaisy//src/hid/midi.h **** class MidiHandler
  82:../../libDaisy//src/hid/midi.h **** {
  83:../../libDaisy//src/hid/midi.h ****   public:
  84:../../libDaisy//src/hid/midi.h ****     MidiHandler() {}
  85:../../libDaisy//src/hid/midi.h ****     ~MidiHandler() {}
 260              		.loc 14 85 5 is_stmt 1 view -0
 261              		.cfi_startproc
 262              		@ args = 0, pretend = 0, frame = 0
 263              		@ frame_needed = 0, uses_anonymous_args = 0
 264              		@ link register save eliminated.
 265              	.LBB561:
 266              	.LBI561:
 267              		.file 15 "../../libDaisy//src/hid/usb_midi.h"
   1:../../libDaisy//src/hid/usb_midi.h **** #pragma once
   2:../../libDaisy//src/hid/usb_midi.h **** #ifndef __DSY_MIDIUSBTRANSPORT_H__
   3:../../libDaisy//src/hid/usb_midi.h **** #define __DSY_MIDIUSBTRANSPORT_H__
   4:../../libDaisy//src/hid/usb_midi.h **** 
   5:../../libDaisy//src/hid/usb_midi.h **** #include "hid/usb.h"
   6:../../libDaisy//src/hid/usb_midi.h **** #include "sys/system.h"
   7:../../libDaisy//src/hid/usb_midi.h **** #include "util/ringbuffer.h"
   8:../../libDaisy//src/hid/usb_midi.h **** 
   9:../../libDaisy//src/hid/usb_midi.h **** namespace daisy
  10:../../libDaisy//src/hid/usb_midi.h **** {
  11:../../libDaisy//src/hid/usb_midi.h **** /** @brief USB Transport for MIDI 
  12:../../libDaisy//src/hid/usb_midi.h ****  *  @ingroup midi
  13:../../libDaisy//src/hid/usb_midi.h ****  */
  14:../../libDaisy//src/hid/usb_midi.h **** class MidiUsbTransport
  15:../../libDaisy//src/hid/usb_midi.h **** {
  16:../../libDaisy//src/hid/usb_midi.h ****   public:
  17:../../libDaisy//src/hid/usb_midi.h ****     // MidiUsbTransport() {}
  18:../../libDaisy//src/hid/usb_midi.h ****     ~MidiUsbTransport() {}
 268              		.loc 15 18 5 view .LVU27
 269              		.loc 15 18 5 is_stmt 0 view .LVU28
 270              	.LBE561:
 271              		.loc 14 85 21 view .LVU29
 272 0000 7047     		bx	lr
 273              		.cfi_endproc
 274              	.LFE5384:
 276              		.weak	_ZN5daisy11MidiHandlerINS_16MidiUsbTransportEED1Ev
 277              		.thumb_set _ZN5daisy11MidiHandlerINS_16MidiUsbTransportEED1Ev,_ZN5daisy11MidiHandlerINS_16MidiUsbT
 278 0002 00BF     		.section	.text._Z13AudioCallbackPKPKfPPfj,"ax",%progbits
 279              		.align	1
 280              		.p2align 2,,3
 281              		.global	_Z13AudioCallbackPKPKfPPfj
 282              		.syntax unified
 283              		.thumb
 284              		.thumb_func
 285              		.fpu fpv5-d16
 287              	_Z13AudioCallbackPKPKfPPfj:
 288              	.LVL9:
 289              	.LFB4788:
 290              		.file 16 "takshaka.cpp"
   1:takshaka.cpp  **** #include "daisy_seed.h"
   2:takshaka.cpp  **** #include "daisysp.h"
ARM GAS  C:\Users\danst\AppData\Local\Temp\ccwBJjMd.s 			page 17


   3:takshaka.cpp  **** #include "SuperSawOsc.h"
   4:takshaka.cpp  **** #include "SmartKnob.h"
   5:takshaka.cpp  **** #define ROOT_MIDI_NOTE 48
   6:takshaka.cpp  **** #define SAMPLE_RATE 48000.0
   7:takshaka.cpp  **** using namespace daisy;
   8:takshaka.cpp  **** using namespace daisysp;
   9:takshaka.cpp  **** enum AdcChannel { 
  10:takshaka.cpp  **** 	driftKnob, 
  11:takshaka.cpp  **** 	shiftKnob, 
  12:takshaka.cpp  **** 	growlKnob,
  13:takshaka.cpp  **** 	howlKnob,
  14:takshaka.cpp  **** 	resKnob,
  15:takshaka.cpp  **** 	driveKnob,
  16:takshaka.cpp  **** 	attackKnob,
  17:takshaka.cpp  **** 	sustainKnob,
  18:takshaka.cpp  **** 	decayKnob,
  19:takshaka.cpp  **** 	clawsKnob,
  20:takshaka.cpp  **** 	slitherKnob,
  21:takshaka.cpp  **** 	slitherDriftModKnob,
  22:takshaka.cpp  **** 	ADC_CHANNELS_COUNT 
  23:takshaka.cpp  **** };
  24:takshaka.cpp  **** enum SubOscWaveforms {
  25:takshaka.cpp  **** 	SUBOSC_SINE_1,
  26:takshaka.cpp  **** 	SUBOSC_SINE_2,
  27:takshaka.cpp  **** 	SUBOSC_TRI_1,
  28:takshaka.cpp  **** 	SUBOSC_TRI_2,
  29:takshaka.cpp  **** 	SUBOSC_SQUARE_1,
  30:takshaka.cpp  **** 	SUBOSC_SQUARE_2,
  31:takshaka.cpp  **** 	SUBOSC_WAVEFORMS_COUNT
  32:takshaka.cpp  **** };
  33:takshaka.cpp  **** enum FilterModes {
  34:takshaka.cpp  **** 	FILTER_MODE_LP, 
  35:takshaka.cpp  **** 	FILTER_MODE_HP, 
  36:takshaka.cpp  **** 	FILTER_MODE_BP, 
  37:takshaka.cpp  **** 	FILTER_MODE_COMB,
  38:takshaka.cpp  **** 	FILTER_MODES_COUNT
  39:takshaka.cpp  **** };
  40:takshaka.cpp  **** enum operationModes { OP_MODE_ALT, OP_MODE_NORMAL };
  41:takshaka.cpp  **** float driftValue,
  42:takshaka.cpp  **** 	shiftValue,
  43:takshaka.cpp  **** 	driveValue,
  44:takshaka.cpp  **** 	midiFreq,
  45:takshaka.cpp  **** 	slitherValue,
  46:takshaka.cpp  **** 	slitherDriftModValue,
  47:takshaka.cpp  **** 	combFilterBuffer[ 9600 ];
  48:takshaka.cpp  **** int subOscOctave = 1,
  49:takshaka.cpp  **** 	midiNote = ROOT_MIDI_NOTE;
  50:takshaka.cpp  **** bool debugMode = false,
  51:takshaka.cpp  **** 	operationMode = OP_MODE_NORMAL,
  52:takshaka.cpp  **** 	lastOperationMode = OP_MODE_NORMAL,
  53:takshaka.cpp  **** 	envGate = false;
  54:takshaka.cpp  **** DaisySeed hw;
  55:takshaka.cpp  **** MidiUsbHandler midi;
  56:takshaka.cpp  **** Switch modeSwitch;
  57:takshaka.cpp  **** SmartKnob subMixSmartKnob,
  58:takshaka.cpp  **** 	subTypeSmartKnob,
  59:takshaka.cpp  **** 	filterCutoffSmartKnob,
ARM GAS  C:\Users\danst\AppData\Local\Temp\ccwBJjMd.s 			page 18


  60:takshaka.cpp  **** 	filterTypeSmartKnob,
  61:takshaka.cpp  **** 	filterResSmartKnob,
  62:takshaka.cpp  **** 	filterPolesSmartKnob,	
  63:takshaka.cpp  **** 	pounceAttackSmartKnob,
  64:takshaka.cpp  **** 	ampEnvAttackSmartKnob,
  65:takshaka.cpp  **** 	pounceSustainSmartKnob,
  66:takshaka.cpp  **** 	ampEnvSustainSmartKnob,
  67:takshaka.cpp  **** 	pounceDecaySmartKnob,
  68:takshaka.cpp  **** 	ampEnvDecaySmartKnob,
  69:takshaka.cpp  **** 	ampSmartKnob, 
  70:takshaka.cpp  **** 	ampEnvModSmartKnob;
  71:takshaka.cpp  **** SuperSawOsc superSaw;
  72:takshaka.cpp  **** Oscillator subOsc, lfo;
  73:takshaka.cpp  **** Svf filter1, filter2;
  74:takshaka.cpp  **** Comb combFilter;
  75:takshaka.cpp  **** Overdrive distortion;
  76:takshaka.cpp  **** Adsr pounce, ampEnv;
  77:takshaka.cpp  **** void AudioCallback( AudioHandle::InputBuffer in, AudioHandle::OutputBuffer out, size_t size ){
 291              		.loc 16 77 94 is_stmt 1 view -0
 292              		.cfi_startproc
 293              		@ args = 0, pretend = 0, frame = 0
 294              		@ frame_needed = 0, uses_anonymous_args = 0
  78:takshaka.cpp  **** 	for( size_t i = 0; i < size; i++ ){
 295              		.loc 16 78 2 view .LVU31
 296              	.LBB562:
 297              		.loc 16 78 23 view .LVU32
 298 0000 002A     		cmp	r2, #0
 299 0002 00F01981 		beq	.L32
 300              	.LBE562:
  77:takshaka.cpp  **** 	for( size_t i = 0; i < size; i++ ){
 301              		.loc 16 77 94 is_stmt 0 view .LVU33
 302 0006 2DE9F84F 		push	{r3, r4, r5, r6, r7, r8, r9, r10, fp, lr}
 303              		.cfi_def_cfa_offset 40
 304              		.cfi_offset 3, -40
 305              		.cfi_offset 4, -36
 306              		.cfi_offset 5, -32
 307              		.cfi_offset 6, -28
 308              		.cfi_offset 7, -24
 309              		.cfi_offset 8, -20
 310              		.cfi_offset 9, -16
 311              		.cfi_offset 10, -12
 312              		.cfi_offset 11, -8
 313              		.cfi_offset 14, -4
 314 000a 0E46     		mov	r6, r1
 315 000c 1746     		mov	r7, r2
 316              	.LBB654:
 317              		.loc 16 78 14 view .LVU34
 318 000e 0024     		movs	r4, #0
 319 0010 8A4D     		ldr	r5, .L36
 320 0012 DFF878B2 		ldr	fp, .L36+80
 321 0016 DFF878A2 		ldr	r10, .L36+84
 322 001a DFF87892 		ldr	r9, .L36+88
 323 001e DFF87882 		ldr	r8, .L36+92
 324              	.LBE654:
  77:takshaka.cpp  **** 	for( size_t i = 0; i < size; i++ ){
 325              		.loc 16 77 94 view .LVU35
 326 0022 2DED048B 		vpush.64	{d8, d9}
ARM GAS  C:\Users\danst\AppData\Local\Temp\ccwBJjMd.s 			page 19


 327              		.cfi_def_cfa_offset 56
 328              		.cfi_offset 80, -56
 329              		.cfi_offset 81, -52
 330              		.cfi_offset 82, -48
 331              		.cfi_offset 83, -44
 332              	.LVL10:
 333              	.L25:
 334              	.LBB655:
 335              	.LBB563:
  79:takshaka.cpp  **** 		float pounceValue = pounce.Process( envGate );
 336              		.loc 16 79 3 is_stmt 1 view .LVU36
 337              		.loc 16 79 37 is_stmt 0 view .LVU37
 338 0026 2978     		ldrb	r1, [r5]	@ zero_extendqisi2
 339              	.LBB564:
 340              	.LBB565:
 341              		.file 17 "../../DaisySP//Source/Utility/dsp.h"
   1:../../DaisySP//Source/Utility/dsp.h **** /** Helpful defines, functions, and other utilities for use in/with daisysp modules.
   2:../../DaisySP//Source/Utility/dsp.h **** */
   3:../../DaisySP//Source/Utility/dsp.h **** #pragma once
   4:../../DaisySP//Source/Utility/dsp.h **** #ifndef DSY_CORE_DSP
   5:../../DaisySP//Source/Utility/dsp.h **** #define DSY_CORE_DSP
   6:../../DaisySP//Source/Utility/dsp.h **** #include <cassert>
   7:../../DaisySP//Source/Utility/dsp.h **** #include <cstdint>
   8:../../DaisySP//Source/Utility/dsp.h **** #include <random>
   9:../../DaisySP//Source/Utility/dsp.h **** #include <cmath>
  10:../../DaisySP//Source/Utility/dsp.h **** 
  11:../../DaisySP//Source/Utility/dsp.h **** /** PIs
  12:../../DaisySP//Source/Utility/dsp.h **** */
  13:../../DaisySP//Source/Utility/dsp.h **** #define PI_F 3.1415927410125732421875f
  14:../../DaisySP//Source/Utility/dsp.h **** #define TWOPI_F (2.0f * PI_F)
  15:../../DaisySP//Source/Utility/dsp.h **** #define HALFPI_F (PI_F * 0.5f)
  16:../../DaisySP//Source/Utility/dsp.h **** #define DSY_MIN(in, mn) (in < mn ? in : mn)
  17:../../DaisySP//Source/Utility/dsp.h **** #define DSY_MAX(in, mx) (in > mx ? in : mx)
  18:../../DaisySP//Source/Utility/dsp.h **** #define DSY_CLAMP(in, mn, mx) (DSY_MIN(DSY_MAX(in, mn), mx))
  19:../../DaisySP//Source/Utility/dsp.h **** #define DSY_COUNTOF(_arr) (sizeof(_arr) / sizeof(_arr[0]))
  20:../../DaisySP//Source/Utility/dsp.h **** 
  21:../../DaisySP//Source/Utility/dsp.h **** namespace daisysp
  22:../../DaisySP//Source/Utility/dsp.h **** {
  23:../../DaisySP//Source/Utility/dsp.h **** //Avoids division for random floats. e.g. rand() * kRandFrac
  24:../../DaisySP//Source/Utility/dsp.h **** static constexpr float kRandFrac = 1.f / (float)RAND_MAX;
  25:../../DaisySP//Source/Utility/dsp.h **** 
  26:../../DaisySP//Source/Utility/dsp.h **** //Convert from semitones to other units. e.g. 2 ^ (kOneTwelfth * x)
  27:../../DaisySP//Source/Utility/dsp.h **** static constexpr float kOneTwelfth = 1.f / 12.f;
  28:../../DaisySP//Source/Utility/dsp.h **** 
  29:../../DaisySP//Source/Utility/dsp.h **** /** efficient floating point min/max
  30:../../DaisySP//Source/Utility/dsp.h **** c/o stephen mccaul
  31:../../DaisySP//Source/Utility/dsp.h **** */
  32:../../DaisySP//Source/Utility/dsp.h **** inline float fmax(float a, float b)
  33:../../DaisySP//Source/Utility/dsp.h **** {
  34:../../DaisySP//Source/Utility/dsp.h ****     float r;
  35:../../DaisySP//Source/Utility/dsp.h **** #ifdef __arm__
  36:../../DaisySP//Source/Utility/dsp.h ****     asm("vmaxnm.f32 %[d], %[n], %[m]" : [d] "=t"(r) : [n] "t"(a), [m] "t"(b) :);
  37:../../DaisySP//Source/Utility/dsp.h **** #else
  38:../../DaisySP//Source/Utility/dsp.h ****     r = (a > b) ? a : b;
  39:../../DaisySP//Source/Utility/dsp.h **** #endif // __arm__
  40:../../DaisySP//Source/Utility/dsp.h ****     return r;
  41:../../DaisySP//Source/Utility/dsp.h **** }
ARM GAS  C:\Users\danst\AppData\Local\Temp\ccwBJjMd.s 			page 20


  42:../../DaisySP//Source/Utility/dsp.h **** 
  43:../../DaisySP//Source/Utility/dsp.h **** inline float fmin(float a, float b)
  44:../../DaisySP//Source/Utility/dsp.h **** {
  45:../../DaisySP//Source/Utility/dsp.h ****     float r;
  46:../../DaisySP//Source/Utility/dsp.h **** #ifdef __arm__
  47:../../DaisySP//Source/Utility/dsp.h ****     asm("vminnm.f32 %[d], %[n], %[m]" : [d] "=t"(r) : [n] "t"(a), [m] "t"(b) :);
  48:../../DaisySP//Source/Utility/dsp.h **** #else
  49:../../DaisySP//Source/Utility/dsp.h ****     r = (a < b) ? a : b;
  50:../../DaisySP//Source/Utility/dsp.h **** #endif // __arm__
  51:../../DaisySP//Source/Utility/dsp.h ****     return r;
  52:../../DaisySP//Source/Utility/dsp.h **** }
  53:../../DaisySP//Source/Utility/dsp.h **** 
  54:../../DaisySP//Source/Utility/dsp.h **** /** quick fp clamp
  55:../../DaisySP//Source/Utility/dsp.h **** */
  56:../../DaisySP//Source/Utility/dsp.h **** inline float fclamp(float in, float min, float max)
  57:../../DaisySP//Source/Utility/dsp.h **** {
  58:../../DaisySP//Source/Utility/dsp.h ****     return fmin(fmax(in, min), max);
  59:../../DaisySP//Source/Utility/dsp.h **** }
  60:../../DaisySP//Source/Utility/dsp.h **** 
  61:../../DaisySP//Source/Utility/dsp.h **** /** From Musicdsp.org "Fast power and root estimates for 32bit floats)
  62:../../DaisySP//Source/Utility/dsp.h **** Original code by Stefan Stenzel
  63:../../DaisySP//Source/Utility/dsp.h **** These are approximations
  64:../../DaisySP//Source/Utility/dsp.h **** */
  65:../../DaisySP//Source/Utility/dsp.h **** inline float fastpower(float f, int n)
  66:../../DaisySP//Source/Utility/dsp.h **** {
  67:../../DaisySP//Source/Utility/dsp.h ****     long *lp, l;
  68:../../DaisySP//Source/Utility/dsp.h ****     lp = (long *)(&f);
  69:../../DaisySP//Source/Utility/dsp.h ****     l  = *lp;
  70:../../DaisySP//Source/Utility/dsp.h ****     l -= 0x3F800000;
  71:../../DaisySP//Source/Utility/dsp.h ****     l <<= (n - 1);
  72:../../DaisySP//Source/Utility/dsp.h ****     l += 0x3F800000;
  73:../../DaisySP//Source/Utility/dsp.h ****     *lp = l;
  74:../../DaisySP//Source/Utility/dsp.h ****     return f;
  75:../../DaisySP//Source/Utility/dsp.h **** }
  76:../../DaisySP//Source/Utility/dsp.h **** 
  77:../../DaisySP//Source/Utility/dsp.h **** inline float fastroot(float f, int n)
  78:../../DaisySP//Source/Utility/dsp.h **** {
  79:../../DaisySP//Source/Utility/dsp.h ****     long *lp, l;
  80:../../DaisySP//Source/Utility/dsp.h ****     lp = (long *)(&f);
  81:../../DaisySP//Source/Utility/dsp.h ****     l  = *lp;
  82:../../DaisySP//Source/Utility/dsp.h ****     l -= 0x3F800000;
  83:../../DaisySP//Source/Utility/dsp.h ****     l >>= (n = 1);
  84:../../DaisySP//Source/Utility/dsp.h ****     l += 0x3F800000;
  85:../../DaisySP//Source/Utility/dsp.h ****     *lp = l;
  86:../../DaisySP//Source/Utility/dsp.h ****     return f;
  87:../../DaisySP//Source/Utility/dsp.h **** }
  88:../../DaisySP//Source/Utility/dsp.h **** 
  89:../../DaisySP//Source/Utility/dsp.h **** /** From http://openaudio.blogspot.com/2017/02/faster-log10-and-pow.html
  90:../../DaisySP//Source/Utility/dsp.h **** No approximation, pow10f(x) gives a 90% speed increase over powf(10.f, x)
  91:../../DaisySP//Source/Utility/dsp.h **** */
  92:../../DaisySP//Source/Utility/dsp.h **** inline float pow10f(float f)
  93:../../DaisySP//Source/Utility/dsp.h **** {
  94:../../DaisySP//Source/Utility/dsp.h ****     return expf(2.302585092994046f * f);
  95:../../DaisySP//Source/Utility/dsp.h **** }
  96:../../DaisySP//Source/Utility/dsp.h **** 
  97:../../DaisySP//Source/Utility/dsp.h **** /* Original code for fastlog2f by Dr. Paul Beckmann from the ARM community forum, adapted from the 
  98:../../DaisySP//Source/Utility/dsp.h **** About 25% performance increase over std::log10f
ARM GAS  C:\Users\danst\AppData\Local\Temp\ccwBJjMd.s 			page 21


  99:../../DaisySP//Source/Utility/dsp.h **** */
 100:../../DaisySP//Source/Utility/dsp.h **** inline float fastlog2f(float f)
 101:../../DaisySP//Source/Utility/dsp.h **** {
 102:../../DaisySP//Source/Utility/dsp.h ****     float frac;
 103:../../DaisySP//Source/Utility/dsp.h ****     int   exp;
 104:../../DaisySP//Source/Utility/dsp.h ****     frac = frexpf(fabsf(f), &exp);
 105:../../DaisySP//Source/Utility/dsp.h ****     f    = 1.23149591368684f;
 106:../../DaisySP//Source/Utility/dsp.h ****     f *= frac;
 107:../../DaisySP//Source/Utility/dsp.h ****     f += -4.11852516267426f;
 108:../../DaisySP//Source/Utility/dsp.h ****     f *= frac;
 109:../../DaisySP//Source/Utility/dsp.h ****     f += 6.02197014179219f;
 110:../../DaisySP//Source/Utility/dsp.h ****     f *= frac;
 111:../../DaisySP//Source/Utility/dsp.h ****     f += -3.13396450166353f;
 112:../../DaisySP//Source/Utility/dsp.h ****     f += exp;
 113:../../DaisySP//Source/Utility/dsp.h ****     return (f);
 114:../../DaisySP//Source/Utility/dsp.h **** }
 115:../../DaisySP//Source/Utility/dsp.h **** 
 116:../../DaisySP//Source/Utility/dsp.h **** inline float fastlog10f(float f)
 117:../../DaisySP//Source/Utility/dsp.h **** {
 118:../../DaisySP//Source/Utility/dsp.h ****     return fastlog2f(f) * 0.3010299956639812f;
 119:../../DaisySP//Source/Utility/dsp.h **** }
 120:../../DaisySP//Source/Utility/dsp.h **** 
 121:../../DaisySP//Source/Utility/dsp.h **** /** Midi to frequency helper
 122:../../DaisySP//Source/Utility/dsp.h **** */
 123:../../DaisySP//Source/Utility/dsp.h **** inline float mtof(float m)
 124:../../DaisySP//Source/Utility/dsp.h **** {
 125:../../DaisySP//Source/Utility/dsp.h ****     return powf(2, (m - 69.0f) / 12.0f) * 440.0f;
 126:../../DaisySP//Source/Utility/dsp.h **** }
 127:../../DaisySP//Source/Utility/dsp.h **** 
 128:../../DaisySP//Source/Utility/dsp.h **** 
 129:../../DaisySP//Source/Utility/dsp.h **** /** one pole lpf
 130:../../DaisySP//Source/Utility/dsp.h **** out is passed by reference, and must be retained between
 131:../../DaisySP//Source/Utility/dsp.h **** calls to properly filter the signal
 132:../../DaisySP//Source/Utility/dsp.h **** coeff can be calculated:
 133:../../DaisySP//Source/Utility/dsp.h **** coeff = 1.0 / (time * sample_rate) ; where time is in seconds
 134:../../DaisySP//Source/Utility/dsp.h **** */
 135:../../DaisySP//Source/Utility/dsp.h **** inline void fonepole(float &out, float in, float coeff)
 136:../../DaisySP//Source/Utility/dsp.h **** {
 137:../../DaisySP//Source/Utility/dsp.h ****     out += coeff * (in - out);
 138:../../DaisySP//Source/Utility/dsp.h **** }
 139:../../DaisySP//Source/Utility/dsp.h **** 
 140:../../DaisySP//Source/Utility/dsp.h **** /** Curves to use with the fmap function */
 141:../../DaisySP//Source/Utility/dsp.h **** enum class Mapping
 142:../../DaisySP//Source/Utility/dsp.h **** {
 143:../../DaisySP//Source/Utility/dsp.h ****     LINEAR,
 144:../../DaisySP//Source/Utility/dsp.h ****     EXP,
 145:../../DaisySP//Source/Utility/dsp.h ****     LOG,
 146:../../DaisySP//Source/Utility/dsp.h **** };
 147:../../DaisySP//Source/Utility/dsp.h **** 
 148:../../DaisySP//Source/Utility/dsp.h **** /** Maps a float between a specified range, using a specified curve. 
 149:../../DaisySP//Source/Utility/dsp.h ****  * 
 150:../../DaisySP//Source/Utility/dsp.h ****  *  \param in a value between 0 to 1 that will be mapped to the new range.
 151:../../DaisySP//Source/Utility/dsp.h ****  *  \param min the new minimum value
 152:../../DaisySP//Source/Utility/dsp.h ****  *  \param max the new maxmimum value
 153:../../DaisySP//Source/Utility/dsp.h ****  *  \param curve a Mapping Value to adjust the response curve of the transformation
 154:../../DaisySP//Source/Utility/dsp.h ****  *               defaults to Linear. @see Mapping
 155:../../DaisySP//Source/Utility/dsp.h ****  * 
ARM GAS  C:\Users\danst\AppData\Local\Temp\ccwBJjMd.s 			page 22


 156:../../DaisySP//Source/Utility/dsp.h ****  *  When using the log curve min and max, must be greater than zero.
 157:../../DaisySP//Source/Utility/dsp.h ****  * 
 158:../../DaisySP//Source/Utility/dsp.h ****  *  \retval returns the transformed float within the new range.
 159:../../DaisySP//Source/Utility/dsp.h **** */
 160:../../DaisySP//Source/Utility/dsp.h **** inline float
 161:../../DaisySP//Source/Utility/dsp.h **** fmap(float in, float min, float max, Mapping curve = Mapping::LINEAR)
 162:../../DaisySP//Source/Utility/dsp.h **** {
 163:../../DaisySP//Source/Utility/dsp.h ****     switch(curve)
 164:../../DaisySP//Source/Utility/dsp.h ****     {
 165:../../DaisySP//Source/Utility/dsp.h ****         case Mapping::EXP:
 166:../../DaisySP//Source/Utility/dsp.h ****             return fclamp(min + (in * in) * (max - min), min, max);
 167:../../DaisySP//Source/Utility/dsp.h ****         case Mapping::LOG:
 168:../../DaisySP//Source/Utility/dsp.h ****         {
 169:../../DaisySP//Source/Utility/dsp.h ****             const float a = 1.f / log10f(max / min);
 170:../../DaisySP//Source/Utility/dsp.h ****             return fclamp(min * powf(10, in / a), min, max);
 171:../../DaisySP//Source/Utility/dsp.h ****         }
 172:../../DaisySP//Source/Utility/dsp.h ****         case Mapping::LINEAR:
 173:../../DaisySP//Source/Utility/dsp.h ****         default: return fclamp(min + in * (max - min), min, max);
 342              		.loc 17 173 31 view .LVU38
 343 0028 F7EE008A 		vmov.f32	s17, #1.0e+0
 344              	.LBE565:
 345              	.LBE564:
 346              		.loc 16 79 37 view .LVU39
 347 002c 8448     		ldr	r0, .L36+4
 348 002e FFF7FEFF 		bl	_ZN7daisysp4Adsr7ProcessEb
 349              	.LVL11:
  80:takshaka.cpp  **** 		// MUX: float modDriftValue = driftValue + ( pounceValue * pounceDriftModValue );
  81:takshaka.cpp  **** 		float modDriftValue = driftValue;
  82:takshaka.cpp  **** 		superSaw.SetDrift( modDriftValue );
 350              		.loc 16 82 20 view .LVU40
 351 0032 8448     		ldr	r0, .L36+8
  79:takshaka.cpp  **** 		// MUX: float modDriftValue = driftValue + ( pounceValue * pounceDriftModValue );
 352              		.loc 16 79 37 view .LVU41
 353 0034 B0EE408A 		vmov.f32	s16, s0
 354              		.loc 16 82 20 view .LVU42
 355 0038 9BED000A 		vldr.32	s0, [fp]
 356              	.LVL12:
  81:takshaka.cpp  **** 		superSaw.SetDrift( modDriftValue );
 357              		.loc 16 81 3 is_stmt 1 view .LVU43
 358              		.loc 16 82 3 view .LVU44
 359              		.loc 16 82 20 is_stmt 0 view .LVU45
 360 003c FFF7FEFF 		bl	_ZN7daisysp11SuperSawOsc8SetDriftEf
 361              	.LVL13:
  83:takshaka.cpp  **** 
  84:takshaka.cpp  **** 		float modShiftValue = shiftValue + ( pounceValue * slitherValue );
 362              		.loc 16 84 3 is_stmt 1 view .LVU46
 363              		.loc 16 84 9 is_stmt 0 view .LVU47
 364 0040 DAED007A 		vldr.32	s15, [r10]
 365 0044 99ED000A 		vldr.32	s0, [r9]
 366              	.LVL14:
  85:takshaka.cpp  **** 		superSaw.SetShift( modShiftValue );
 367              		.loc 16 85 3 is_stmt 1 view .LVU48
 368              		.loc 16 85 20 is_stmt 0 view .LVU49
 369 0048 7E48     		ldr	r0, .L36+8
 370 004a A7EE880A 		vfma.f32	s0, s15, s16
 371              	.LVL15:
 372              		.loc 16 85 20 view .LVU50
ARM GAS  C:\Users\danst\AppData\Local\Temp\ccwBJjMd.s 			page 23


 373 004e FFF7FEFF 		bl	_ZN7daisysp11SuperSawOsc8SetShiftEf
 374              	.LVL16:
  86:takshaka.cpp  **** 		
  87:takshaka.cpp  **** 		// SET ADJUST TO 1.0 - 0.8 DEPENDING ON THE SUB KNOB
  88:takshaka.cpp  **** 		float superSawAdjust = fmap( 1.0 - subMixSmartKnob.GetValue(), 0.8, 1.0 );
 375              		.loc 16 88 3 is_stmt 1 view .LVU51
 376              		.loc 16 88 62 is_stmt 0 view .LVU52
 377 0052 7D48     		ldr	r0, .L36+12
 378 0054 FFF7FEFF 		bl	_ZN7daisysp9SmartKnob8GetValueEv
 379              	.LVL17:
 380              	.LBB579:
 381              	.LBI564:
 161:../../DaisySP//Source/Utility/dsp.h **** {
 382              		.loc 17 161 1 is_stmt 1 view .LVU53
 383              	.LBE579:
 384              	.LBE563:
 385              	.LBE655:
 163:../../DaisySP//Source/Utility/dsp.h ****     {
 386              		.loc 17 163 5 view .LVU54
 387              	.LBB656:
 388              	.LBB645:
 389              	.LBB580:
 390              	.LBB575:
 172:../../DaisySP//Source/Utility/dsp.h ****         default: return fclamp(min + in * (max - min), min, max);
 391              		.loc 17 172 9 view .LVU55
 392              		.loc 17 173 9 view .LVU56
 393              		.loc 17 173 18 view .LVU57
 394              		.loc 17 173 31 is_stmt 0 view .LVU58
 395 0058 DFED7C7A 		vldr.32	s15, .L36+16
 396 005c 38EEC00A 		vsub.f32	s0, s17, s0
 397              	.LVL18:
 398              		.loc 17 173 31 view .LVU59
 399 0060 9FED7B7A 		vldr.32	s14, .L36+20
 400 0064 B0EE679A 		vmov.f32	s18, s15
 401              	.LBE575:
 402              	.LBE580:
  89:takshaka.cpp  **** 		float mixedSignal = superSaw.Process() * superSawAdjust;
 403              		.loc 16 89 39 view .LVU60
 404 0068 7648     		ldr	r0, .L36+8
 405              	.LBB581:
 406              	.LBB576:
 407              		.loc 17 173 31 view .LVU61
 408 006a A0EE079A 		vfma.f32	s18, s0, s14
 409              	.LVL19:
 410              	.LBB566:
 411              	.LBI566:
  56:../../DaisySP//Source/Utility/dsp.h **** {
 412              		.loc 17 56 14 is_stmt 1 view .LVU62
 413              	.LBE566:
 414              	.LBE576:
 415              	.LBE581:
 416              	.LBE645:
 417              	.LBE656:
  58:../../DaisySP//Source/Utility/dsp.h **** }
 418              		.loc 17 58 5 view .LVU63
 419              	.LBB657:
 420              	.LBB646:
ARM GAS  C:\Users\danst\AppData\Local\Temp\ccwBJjMd.s 			page 24


 421              	.LBB582:
 422              	.LBB577:
 423              	.LBB573:
 424              	.LBB567:
 425              	.LBI567:
  32:../../DaisySP//Source/Utility/dsp.h **** {
 426              		.loc 17 32 14 view .LVU64
 427              	.LBB568:
  34:../../DaisySP//Source/Utility/dsp.h **** #ifdef __arm__
 428              		.loc 17 34 5 view .LVU65
  36:../../DaisySP//Source/Utility/dsp.h **** #else
 429              		.loc 17 36 5 view .LVU66
 430              		.syntax unified
 431              	@ 36 "../../DaisySP//Source/Utility/dsp.h" 1
 432 006e 89FE279A 		vmaxnm.f32 s18, s18, s15
 433              	@ 0 "" 2
 434              	.LVL20:
  40:../../DaisySP//Source/Utility/dsp.h **** }
 435              		.loc 17 40 5 view .LVU67
  40:../../DaisySP//Source/Utility/dsp.h **** }
 436              		.loc 17 40 5 is_stmt 0 view .LVU68
 437              		.thumb
 438              		.syntax unified
 439              	.LBE568:
 440              	.LBE567:
 441              	.LBB569:
 442              	.LBI569:
  43:../../DaisySP//Source/Utility/dsp.h **** {
 443              		.loc 17 43 14 is_stmt 1 view .LVU69
 444              	.LBB570:
  45:../../DaisySP//Source/Utility/dsp.h **** #ifdef __arm__
 445              		.loc 17 45 5 view .LVU70
  47:../../DaisySP//Source/Utility/dsp.h **** #else
 446              		.loc 17 47 5 view .LVU71
 447              	.LBE570:
 448              	.LBE569:
 449              	.LBE573:
 450              	.LBE577:
 451              	.LBE582:
 452              		.loc 16 89 39 is_stmt 0 view .LVU72
 453 0072 FFF7FEFF 		bl	_ZN7daisysp11SuperSawOsc7ProcessEv
 454              	.LVL21:
  90:takshaka.cpp  **** 		float subSignal = subOsc.Process();
 455              		.loc 16 90 35 view .LVU73
 456 0076 7748     		ldr	r0, .L36+24
  89:takshaka.cpp  **** 		float subSignal = subOsc.Process();
 457              		.loc 16 89 39 view .LVU74
 458 0078 F0EE409A 		vmov.f32	s19, s0
 459              		.loc 16 90 35 view .LVU75
 460 007c FFF7FEFF 		bl	_ZN7daisysp10Oscillator7ProcessEv
 461              	.LVL22:
 462 0080 B0EE408A 		vmov.f32	s16, s0
 463              	.LVL23:
  91:takshaka.cpp  **** 		mixedSignal += subSignal * subMixSmartKnob.GetValue();
 464              		.loc 16 91 54 view .LVU76
 465 0084 7048     		ldr	r0, .L36+12
 466 0086 FFF7FEFF 		bl	_ZN7daisysp9SmartKnob8GetValueEv
ARM GAS  C:\Users\danst\AppData\Local\Temp\ccwBJjMd.s 			page 25


 467              	.LVL24:
  92:takshaka.cpp  **** 		float lfoSignal = lfo.Process();		
 468              		.loc 16 92 32 view .LVU77
 469 008a 7348     		ldr	r0, .L36+28
 470              	.LBB583:
 471              	.LBB578:
 472              	.LBB574:
 473              	.LBB572:
 474              	.LBB571:
  47:../../DaisySP//Source/Utility/dsp.h **** #else
 475              		.loc 17 47 5 view .LVU78
 476              		.syntax unified
 477              	@ 47 "../../DaisySP//Source/Utility/dsp.h" 1
 478 008c 89FE689A 		vminnm.f32 s18, s18, s17
 479              	@ 0 "" 2
 480              	.LVL25:
  51:../../DaisySP//Source/Utility/dsp.h **** }
 481              		.loc 17 51 5 is_stmt 1 view .LVU79
  51:../../DaisySP//Source/Utility/dsp.h **** }
 482              		.loc 17 51 5 is_stmt 0 view .LVU80
 483              		.thumb
 484              		.syntax unified
 485              	.LBE571:
 486              	.LBE572:
 487              	.LBE574:
 488              	.LBE578:
 489              	.LBE583:
  89:takshaka.cpp  **** 		float subSignal = subOsc.Process();
 490              		.loc 16 89 3 is_stmt 1 view .LVU81
  90:takshaka.cpp  **** 		mixedSignal += subSignal * subMixSmartKnob.GetValue();
 491              		.loc 16 90 3 view .LVU82
  91:takshaka.cpp  **** 		float lfoSignal = lfo.Process();		
 492              		.loc 16 91 3 view .LVU83
  91:takshaka.cpp  **** 		float lfoSignal = lfo.Process();		
 493              		.loc 16 91 28 is_stmt 0 view .LVU84
 494 0090 20EE088A 		vmul.f32	s16, s0, s16
 495              	.LVL26:
 496              		.loc 16 92 32 view .LVU85
 497 0094 FFF7FEFF 		bl	_ZN7daisysp10Oscillator7ProcessEv
 498              	.LVL27:
  93:takshaka.cpp  **** 		mixedSignal = distortion.Process( mixedSignal );
 499              		.loc 16 93 35 view .LVU86
 500 0098 7048     		ldr	r0, .L36+32
  91:takshaka.cpp  **** 		float lfoSignal = lfo.Process();		
 501              		.loc 16 91 15 view .LVU87
 502 009a A9EE898A 		vfma.f32	s16, s19, s18
 503              	.LVL28:
  92:takshaka.cpp  **** 		mixedSignal = distortion.Process( mixedSignal );
 504              		.loc 16 92 3 is_stmt 1 view .LVU88
 505              		.loc 16 93 3 view .LVU89
 506              		.loc 16 93 35 is_stmt 0 view .LVU90
 507 009e B0EE480A 		vmov.f32	s0, s16
 508 00a2 FFF7FEFF 		bl	_ZN7daisysp9Overdrive7ProcessEf
 509              	.LVL29:
  94:takshaka.cpp  **** 		// MUX: float cutoffMod = pounceValue * pounceHowlModValue;
  95:takshaka.cpp  **** 		float cutoffMod = pounce.Process( envGate ) * 0.5;
 510              		.loc 16 95 35 view .LVU91
ARM GAS  C:\Users\danst\AppData\Local\Temp\ccwBJjMd.s 			page 26


 511 00a6 2978     		ldrb	r1, [r5]	@ zero_extendqisi2
 512 00a8 6548     		ldr	r0, .L36+4
  93:takshaka.cpp  **** 		// MUX: float cutoffMod = pounceValue * pounceHowlModValue;
 513              		.loc 16 93 35 view .LVU92
 514 00aa B0EE409A 		vmov.f32	s18, s0
 515              	.LVL30:
 516              		.loc 16 95 3 is_stmt 1 view .LVU93
 517              		.loc 16 95 35 is_stmt 0 view .LVU94
 518 00ae FFF7FEFF 		bl	_ZN7daisysp4Adsr7ProcessEb
 519              	.LVL31:
  96:takshaka.cpp  **** 		cutoffMod += filterCutoffSmartKnob.GetValue();
 520              		.loc 16 96 46 view .LVU95
 521 00b2 6B48     		ldr	r0, .L36+36
  95:takshaka.cpp  **** 		cutoffMod += filterCutoffSmartKnob.GetValue();
 522              		.loc 16 95 35 view .LVU96
 523 00b4 B0EE408A 		vmov.f32	s16, s0
 524              	.LVL32:
 525              		.loc 16 96 3 is_stmt 1 view .LVU97
 526              		.loc 16 96 46 is_stmt 0 view .LVU98
 527 00b8 FFF7FEFF 		bl	_ZN7daisysp9SmartKnob8GetValueEv
 528              	.LVL33:
 529              		.loc 16 96 13 view .LVU99
 530 00bc F6EE005A 		vmov.f32	s11, #5.0e-1
  97:takshaka.cpp  **** 		float filterFreq = fmap( cutoffMod, 1.0, fclamp( midiFreq * 16.0, 20.0, 20000.0 ) );
 531              		.loc 16 97 26 view .LVU100
 532 00c0 98ED007A 		vldr.32	s14, [r8]
 533 00c4 F3EE007A 		vmov.f32	s15, #1.6e+1
 534              	.LBB584:
 535              	.LBB585:
 536              	.LBB586:
  47:../../DaisySP//Source/Utility/dsp.h **** #else
 537              		.loc 17 47 5 view .LVU101
 538 00c8 DFED666A 		vldr.32	s13, .L36+40
 539              	.LBE586:
 540              	.LBE585:
 541              	.LBB588:
 542              	.LBB589:
  36:../../DaisySP//Source/Utility/dsp.h **** #else
 543              		.loc 17 36 5 view .LVU102
 544 00cc B3EE046A 		vmov.f32	s12, #2.0e+1
 545              	.LBE589:
 546              	.LBE588:
 547              	.LBE584:
  98:takshaka.cpp  **** 		filter1.SetFreq( filterFreq );
 548              		.loc 16 98 18 view .LVU103
 549 00d0 6548     		ldr	r0, .L36+44
  96:takshaka.cpp  **** 		float filterFreq = fmap( cutoffMod, 1.0, fclamp( midiFreq * 16.0, 20.0, 20000.0 ) );
 550              		.loc 16 96 13 view .LVU104
 551 00d2 A8EE250A 		vfma.f32	s0, s16, s11
 552              	.LVL34:
  97:takshaka.cpp  **** 		filter1.SetFreq( filterFreq );
 553              		.loc 16 97 3 is_stmt 1 view .LVU105
 554              	.LBB595:
 555              	.LBI584:
  56:../../DaisySP//Source/Utility/dsp.h **** {
 556              		.loc 17 56 14 view .LVU106
 557              	.LBE595:
ARM GAS  C:\Users\danst\AppData\Local\Temp\ccwBJjMd.s 			page 27


 558              	.LBE646:
 559              	.LBE657:
  58:../../DaisySP//Source/Utility/dsp.h **** }
 560              		.loc 17 58 5 view .LVU107
 561              	.LBB658:
 562              	.LBB647:
 563              	.LBB596:
 564              	.LBB592:
 565              	.LBI588:
  32:../../DaisySP//Source/Utility/dsp.h **** {
 566              		.loc 17 32 14 view .LVU108
 567              	.LBB590:
  34:../../DaisySP//Source/Utility/dsp.h **** #ifdef __arm__
 568              		.loc 17 34 5 view .LVU109
  36:../../DaisySP//Source/Utility/dsp.h **** #else
 569              		.loc 17 36 5 view .LVU110
 570              	.LBE590:
 571              	.LBE592:
 572              	.LBE596:
  97:takshaka.cpp  **** 		filter1.SetFreq( filterFreq );
 573              		.loc 16 97 26 is_stmt 0 view .LVU111
 574 00d6 67EE277A 		vmul.f32	s15, s14, s15
 575              	.LVL35:
 576              	.LBB597:
 577              	.LBB598:
 578              		.loc 17 173 31 view .LVU112
 579 00da B0EE688A 		vmov.f32	s16, s17
 580              	.LBE598:
 581              	.LBE597:
 582              	.LBB607:
 583              	.LBB593:
 584              	.LBB591:
  36:../../DaisySP//Source/Utility/dsp.h **** #else
 585              		.loc 17 36 5 view .LVU113
 586              		.syntax unified
 587              	@ 36 "../../DaisySP//Source/Utility/dsp.h" 1
 588 00de C7FE867A 		vmaxnm.f32 s15, s15, s12
 589              	@ 0 "" 2
 590              	.LVL36:
  40:../../DaisySP//Source/Utility/dsp.h **** }
 591              		.loc 17 40 5 is_stmt 1 view .LVU114
  40:../../DaisySP//Source/Utility/dsp.h **** }
 592              		.loc 17 40 5 is_stmt 0 view .LVU115
 593              		.thumb
 594              		.syntax unified
 595              	.LBE591:
 596              	.LBE593:
 597              	.LBB594:
 598              	.LBI585:
  43:../../DaisySP//Source/Utility/dsp.h **** {
 599              		.loc 17 43 14 is_stmt 1 view .LVU116
 600              	.LBB587:
  45:../../DaisySP//Source/Utility/dsp.h **** #ifdef __arm__
 601              		.loc 17 45 5 view .LVU117
  47:../../DaisySP//Source/Utility/dsp.h **** #else
 602              		.loc 17 47 5 view .LVU118
 603              		.syntax unified
ARM GAS  C:\Users\danst\AppData\Local\Temp\ccwBJjMd.s 			page 28


 604              	@ 47 "../../DaisySP//Source/Utility/dsp.h" 1
 605 00e2 C7FEE67A 		vminnm.f32 s15, s15, s13
 606              	@ 0 "" 2
 607              	.LVL37:
  51:../../DaisySP//Source/Utility/dsp.h **** }
 608              		.loc 17 51 5 view .LVU119
  51:../../DaisySP//Source/Utility/dsp.h **** }
 609              		.loc 17 51 5 is_stmt 0 view .LVU120
 610              		.thumb
 611              		.syntax unified
 612              	.LBE587:
 613              	.LBE594:
 614              	.LBE607:
 615              	.LBB608:
 616              	.LBI597:
 161:../../DaisySP//Source/Utility/dsp.h **** {
 617              		.loc 17 161 1 is_stmt 1 view .LVU121
 618              	.LBE608:
 619              	.LBE647:
 620              	.LBE658:
 163:../../DaisySP//Source/Utility/dsp.h ****     {
 621              		.loc 17 163 5 view .LVU122
 622              	.LBB659:
 623              	.LBB648:
 624              	.LBB609:
 625              	.LBB605:
 172:../../DaisySP//Source/Utility/dsp.h ****         default: return fclamp(min + in * (max - min), min, max);
 626              		.loc 17 172 9 view .LVU123
 627              		.loc 17 173 9 view .LVU124
 628              		.loc 17 173 18 view .LVU125
 629              		.loc 17 173 48 is_stmt 0 view .LVU126
 630 00e6 37EEE87A 		vsub.f32	s14, s15, s17
 631              		.loc 17 173 31 view .LVU127
 632 00ea A0EE078A 		vfma.f32	s16, s0, s14
 633              	.LVL38:
 634              	.LBB599:
 635              	.LBI599:
  56:../../DaisySP//Source/Utility/dsp.h **** {
 636              		.loc 17 56 14 is_stmt 1 view .LVU128
 637              	.LBE599:
 638              	.LBE605:
 639              	.LBE609:
 640              	.LBE648:
 641              	.LBE659:
  58:../../DaisySP//Source/Utility/dsp.h **** }
 642              		.loc 17 58 5 view .LVU129
 643              	.LBB660:
 644              	.LBB649:
 645              	.LBB610:
 646              	.LBB606:
 647              	.LBB604:
 648              	.LBB600:
 649              	.LBI600:
  32:../../DaisySP//Source/Utility/dsp.h **** {
 650              		.loc 17 32 14 view .LVU130
 651              	.LBB601:
  34:../../DaisySP//Source/Utility/dsp.h **** #ifdef __arm__
ARM GAS  C:\Users\danst\AppData\Local\Temp\ccwBJjMd.s 			page 29


 652              		.loc 17 34 5 view .LVU131
  36:../../DaisySP//Source/Utility/dsp.h **** #else
 653              		.loc 17 36 5 view .LVU132
 654              		.syntax unified
 655              	@ 36 "../../DaisySP//Source/Utility/dsp.h" 1
 656 00ee 88FE288A 		vmaxnm.f32 s16, s16, s17
 657              	@ 0 "" 2
 658              	.LVL39:
  40:../../DaisySP//Source/Utility/dsp.h **** }
 659              		.loc 17 40 5 view .LVU133
  40:../../DaisySP//Source/Utility/dsp.h **** }
 660              		.loc 17 40 5 is_stmt 0 view .LVU134
 661              		.thumb
 662              		.syntax unified
 663              	.LBE601:
 664              	.LBE600:
 665              	.LBB602:
 666              	.LBI602:
  43:../../DaisySP//Source/Utility/dsp.h **** {
 667              		.loc 17 43 14 is_stmt 1 view .LVU135
 668              	.LBB603:
  45:../../DaisySP//Source/Utility/dsp.h **** #ifdef __arm__
 669              		.loc 17 45 5 view .LVU136
  47:../../DaisySP//Source/Utility/dsp.h **** #else
 670              		.loc 17 47 5 view .LVU137
 671              		.syntax unified
 672              	@ 47 "../../DaisySP//Source/Utility/dsp.h" 1
 673 00f2 88FE678A 		vminnm.f32 s16, s16, s15
 674              	@ 0 "" 2
 675              	.LVL40:
  51:../../DaisySP//Source/Utility/dsp.h **** }
 676              		.loc 17 51 5 view .LVU138
  51:../../DaisySP//Source/Utility/dsp.h **** }
 677              		.loc 17 51 5 is_stmt 0 view .LVU139
 678              		.thumb
 679              		.syntax unified
 680              	.LBE603:
 681              	.LBE602:
 682              	.LBE604:
 683              	.LBE606:
 684              	.LBE610:
 685              		.loc 16 98 3 is_stmt 1 view .LVU140
 686              		.loc 16 98 18 is_stmt 0 view .LVU141
 687 00f6 B0EE480A 		vmov.f32	s0, s16
 688              	.LVL41:
 689              		.loc 16 98 18 view .LVU142
 690 00fa FFF7FEFF 		bl	_ZN7daisysp3Svf7SetFreqEf
 691              	.LVL42:
  99:takshaka.cpp  **** 		filter2.SetFreq( filterFreq );
 692              		.loc 16 99 3 is_stmt 1 view .LVU143
 693              		.loc 16 99 18 is_stmt 0 view .LVU144
 694 00fe B0EE480A 		vmov.f32	s0, s16
 695 0102 5A48     		ldr	r0, .L36+48
 696 0104 FFF7FEFF 		bl	_ZN7daisysp3Svf7SetFreqEf
 697              	.LVL43:
 100:takshaka.cpp  **** 		combFilter.SetFreq( filterFreq );
 698              		.loc 16 100 3 is_stmt 1 view .LVU145
ARM GAS  C:\Users\danst\AppData\Local\Temp\ccwBJjMd.s 			page 30


 699              	.LBB611:
 700              	.LBI611:
  21:../../DaisySP//Source/Filters/comb.h **** 
  22:../../DaisySP//Source/Filters/comb.h ****     /** Initializes the Comb module.
  23:../../DaisySP//Source/Filters/comb.h ****         \param sample_rate - The sample rate of the audio engine being run. 
  24:../../DaisySP//Source/Filters/comb.h ****         \param buff - input buffer, kept in either main() or global space
  25:../../DaisySP//Source/Filters/comb.h ****         \param size - size of buff
  26:../../DaisySP//Source/Filters/comb.h ****     */
  27:../../DaisySP//Source/Filters/comb.h ****     void Init(float sample_rate, float* buff, size_t size);
  28:../../DaisySP//Source/Filters/comb.h **** 
  29:../../DaisySP//Source/Filters/comb.h **** 
  30:../../DaisySP//Source/Filters/comb.h ****     /** processes the comb filter
  31:../../DaisySP//Source/Filters/comb.h ****     */
  32:../../DaisySP//Source/Filters/comb.h ****     float Process(float in);
  33:../../DaisySP//Source/Filters/comb.h **** 
  34:../../DaisySP//Source/Filters/comb.h **** 
  35:../../DaisySP//Source/Filters/comb.h ****     /** Sets the period of the comb filter in seconds
  36:../../DaisySP//Source/Filters/comb.h ****     */
  37:../../DaisySP//Source/Filters/comb.h ****     void SetPeriod(float looptime);
  38:../../DaisySP//Source/Filters/comb.h **** 
  39:../../DaisySP//Source/Filters/comb.h ****     /** Sets the frequency of the comb filter in Hz
  40:../../DaisySP//Source/Filters/comb.h ****     */
  41:../../DaisySP//Source/Filters/comb.h ****     inline void SetFreq(float freq)
 701              		.loc 11 41 17 view .LVU146
 702              	.LBB612:
  42:../../DaisySP//Source/Filters/comb.h ****     {
  43:../../DaisySP//Source/Filters/comb.h ****         if(freq > 0)
 703              		.loc 11 43 9 view .LVU147
 704 0108 B5EEC08A 		vcmpe.f32	s16, #0
 705 010c F1EE10FA 		vmrs	APSR_nzcv, FPSCR
 706 0110 04DD     		ble	.L13
  44:../../DaisySP//Source/Filters/comb.h ****         {
  45:../../DaisySP//Source/Filters/comb.h ****             SetPeriod(1.f / freq);
 707              		.loc 11 45 13 view .LVU148
 708              		.loc 11 45 22 is_stmt 0 view .LVU149
 709 0112 88EE880A 		vdiv.f32	s0, s17, s16
 710 0116 5648     		ldr	r0, .L36+52
 711 0118 FFF7FEFF 		bl	_ZN7daisysp4Comb9SetPeriodEf
 712              	.LVL44:
 713              	.L13:
 714              		.loc 11 45 22 view .LVU150
 715              	.LBE612:
 716              	.LBE611:
 101:takshaka.cpp  **** 		float filteredSignal = 0.0;
 717              		.loc 16 101 3 is_stmt 1 view .LVU151
 102:takshaka.cpp  **** 		filter1.Process( mixedSignal );
 718              		.loc 16 102 3 view .LVU152
 719              		.loc 16 102 18 is_stmt 0 view .LVU153
 720 011c 5248     		ldr	r0, .L36+44
 721 011e B0EE490A 		vmov.f32	s0, s18
 722 0122 FFF7FEFF 		bl	_ZN7daisysp3Svf7ProcessEf
 723              	.LVL45:
 103:takshaka.cpp  **** 		float combSignal = combFilter.Process( mixedSignal );
 724              		.loc 16 103 3 is_stmt 1 view .LVU154
 725              		.loc 16 103 40 is_stmt 0 view .LVU155
 726 0126 5248     		ldr	r0, .L36+52
 727 0128 B0EE490A 		vmov.f32	s0, s18
ARM GAS  C:\Users\danst\AppData\Local\Temp\ccwBJjMd.s 			page 31


 728 012c FFF7FEFF 		bl	_ZN7daisysp4Comb7ProcessEf
 729              	.LVL46:
 104:takshaka.cpp  **** 		int currentFilterMode = filterTypeSmartKnob.GetValue() * FILTER_MODES_COUNT;
 730              		.loc 16 104 55 view .LVU156
 731 0130 5048     		ldr	r0, .L36+56
 103:takshaka.cpp  **** 		float combSignal = combFilter.Process( mixedSignal );
 732              		.loc 16 103 40 view .LVU157
 733 0132 B0EE408A 		vmov.f32	s16, s0
 734              	.LVL47:
 735              		.loc 16 104 3 is_stmt 1 view .LVU158
 736              		.loc 16 104 55 is_stmt 0 view .LVU159
 737 0136 FFF7FEFF 		bl	_ZN7daisysp9SmartKnob8GetValueEv
 738              	.LVL48:
 105:takshaka.cpp  **** 		switch( currentFilterMode ){
 739              		.loc 16 105 3 is_stmt 1 view .LVU160
 104:takshaka.cpp  **** 		int currentFilterMode = filterTypeSmartKnob.GetValue() * FILTER_MODES_COUNT;
 740              		.loc 16 104 60 is_stmt 0 view .LVU161
 741 013a BEEECF0A 		vcvt.s32.f32	s0, s0, #2
 742              	.LVL49:
 104:takshaka.cpp  **** 		int currentFilterMode = filterTypeSmartKnob.GetValue() * FILTER_MODES_COUNT;
 743              		.loc 16 104 60 view .LVU162
 744 013e 10EE103A 		vmov	r3, s0	@ int
 745 0142 032B     		cmp	r3, #3
 746 0144 03D8     		bhi	.L15
 747 0146 DFE803F0 		tbb	[pc, r3]
 748              	.L17:
 749 014a 61       		.byte	(.L20-.L17)/2
 750 014b 4B       		.byte	(.L19-.L17)/2
 751 014c 35       		.byte	(.L18-.L17)/2
 752 014d 04       		.byte	(.L35-.L17)/2
 753              		.p2align 1
 754              	.L15:
 106:takshaka.cpp  **** 			case FILTER_MODE_LP:
 107:takshaka.cpp  **** 				filteredSignal = filter1.Low();
 108:takshaka.cpp  **** 				break;
 109:takshaka.cpp  **** 			case FILTER_MODE_HP:
 110:takshaka.cpp  **** 				filteredSignal = filter1.High();
 111:takshaka.cpp  **** 				break;
 112:takshaka.cpp  **** 			case FILTER_MODE_BP:
 113:takshaka.cpp  **** 				filteredSignal = filter1.Band();
 114:takshaka.cpp  **** 				break;
 115:takshaka.cpp  **** 			case FILTER_MODE_COMB:
 116:takshaka.cpp  **** 				filteredSignal = combSignal;
 117:takshaka.cpp  **** 				break;
 118:takshaka.cpp  **** 		}
 119:takshaka.cpp  **** 		if( filterPolesSmartKnob.GetValue() > 0.5 &&
 755              		.loc 16 119 3 is_stmt 1 view .LVU163
 756 014e 9FED4A8A 		vldr.32	s16, .L36+60
 757              	.LVL50:
 758              	.L35:
 759              		.loc 16 119 36 is_stmt 0 view .LVU164
 760 0152 4A48     		ldr	r0, .L36+64
 761 0154 FFF7FEFF 		bl	_ZN7daisysp9SmartKnob8GetValueEv
 762              	.LVL51:
 763              	.L22:
 120:takshaka.cpp  **** 			(
 121:takshaka.cpp  **** 				currentFilterMode == FILTER_MODE_LP ||
ARM GAS  C:\Users\danst\AppData\Local\Temp\ccwBJjMd.s 			page 32


 122:takshaka.cpp  **** 				currentFilterMode == FILTER_MODE_HP ||
 123:takshaka.cpp  **** 				currentFilterMode == FILTER_MODE_BP
 124:takshaka.cpp  **** 			)
 125:takshaka.cpp  **** 		){ // PASS SIGNAL THROUGH SECOND FILTER
 126:takshaka.cpp  **** 			filter2.Process( filteredSignal );
 127:takshaka.cpp  **** 			switch( currentFilterMode ){
 128:takshaka.cpp  **** 				case FILTER_MODE_LP:
 129:takshaka.cpp  **** 					filteredSignal = filter2.Low();
 130:takshaka.cpp  **** 					break;
 131:takshaka.cpp  **** 				case FILTER_MODE_HP:
 132:takshaka.cpp  **** 					filteredSignal = filter2.High();
 133:takshaka.cpp  **** 					break;
 134:takshaka.cpp  **** 				case FILTER_MODE_BP:
 135:takshaka.cpp  **** 					filteredSignal = filter2.Band();
 136:takshaka.cpp  **** 					break;
 137:takshaka.cpp  **** 			}
 138:takshaka.cpp  **** 		}
 139:takshaka.cpp  **** 		float ampMod = ampEnv.Process( envGate ) * ampEnvModSmartKnob.GetValue();
 764              		.loc 16 139 3 is_stmt 1 discriminator 2 view .LVU165
 765              		.loc 16 139 32 is_stmt 0 discriminator 2 view .LVU166
 766 0158 2978     		ldrb	r1, [r5]	@ zero_extendqisi2
 767 015a 4948     		ldr	r0, .L36+68
 768 015c FFF7FEFF 		bl	_ZN7daisysp4Adsr7ProcessEb
 769              	.LVL52:
 770              		.loc 16 139 73 discriminator 2 view .LVU167
 771 0160 4848     		ldr	r0, .L36+72
 772              		.loc 16 139 32 discriminator 2 view .LVU168
 773 0162 B0EE409A 		vmov.f32	s18, s0
 774              	.LVL53:
 775              		.loc 16 139 73 discriminator 2 view .LVU169
 776 0166 FFF7FEFF 		bl	_ZN7daisysp9SmartKnob8GetValueEv
 777              	.LVL54:
 140:takshaka.cpp  **** 		ampMod = fclamp( ampMod + ampSmartKnob.GetValue(), 0.0, 1.0 );
 778              		.loc 16 140 50 discriminator 2 view .LVU170
 779 016a 4748     		ldr	r0, .L36+76
 139:takshaka.cpp  **** 		ampMod = fclamp( ampMod + ampSmartKnob.GetValue(), 0.0, 1.0 );
 780              		.loc 16 139 73 discriminator 2 view .LVU171
 781 016c F0EE408A 		vmov.f32	s17, s0
 782              	.LVL55:
 783              		.loc 16 140 3 is_stmt 1 discriminator 2 view .LVU172
 784              		.loc 16 140 50 is_stmt 0 discriminator 2 view .LVU173
 785 0170 FFF7FEFF 		bl	_ZN7daisysp9SmartKnob8GetValueEv
 786              	.LVL56:
 787              		.loc 16 140 18 discriminator 2 view .LVU174
 788 0174 F0EE407A 		vmov.f32	s15, s0
 789              	.LBB613:
 790              	.LBB614:
 791              	.LBB615:
  47:../../DaisySP//Source/Utility/dsp.h **** #else
 792              		.loc 17 47 5 discriminator 2 view .LVU175
 793 0178 F7EE006A 		vmov.f32	s13, #1.0e+0
 794              	.LBE615:
 795              	.LBE614:
 796              	.LBB617:
 797              	.LBB618:
  36:../../DaisySP//Source/Utility/dsp.h **** #else
 798              		.loc 17 36 5 discriminator 2 view .LVU176
ARM GAS  C:\Users\danst\AppData\Local\Temp\ccwBJjMd.s 			page 33


 799 017c 9FED3E7A 		vldr.32	s14, .L36+60
 800              	.LBE618:
 801              	.LBE617:
 802              	.LBE613:
 141:takshaka.cpp  **** 		out[0][i] = out[1][i] = filteredSignal * ampMod;
 803              		.loc 16 141 13 discriminator 2 view .LVU177
 804 0180 D6E90032 		ldrd	r3, r2, [r6]
 140:takshaka.cpp  **** 		out[0][i] = out[1][i] = filteredSignal * ampMod;
 805              		.loc 16 140 18 discriminator 2 view .LVU178
 806 0184 E9EE287A 		vfma.f32	s15, s18, s17
 807              	.LVL57:
 808              	.LBB624:
 809              	.LBI613:
  56:../../DaisySP//Source/Utility/dsp.h **** {
 810              		.loc 17 56 14 is_stmt 1 discriminator 2 view .LVU179
 811              	.LBE624:
 812              	.LBE649:
 813              	.LBE660:
  58:../../DaisySP//Source/Utility/dsp.h **** }
 814              		.loc 17 58 5 discriminator 2 view .LVU180
 815              	.LBB661:
 816              	.LBB650:
 817              	.LBB625:
 818              	.LBB621:
 819              	.LBI617:
  32:../../DaisySP//Source/Utility/dsp.h **** {
 820              		.loc 17 32 14 discriminator 2 view .LVU181
 821              	.LBB619:
  34:../../DaisySP//Source/Utility/dsp.h **** #ifdef __arm__
 822              		.loc 17 34 5 discriminator 2 view .LVU182
  36:../../DaisySP//Source/Utility/dsp.h **** #else
 823              		.loc 17 36 5 discriminator 2 view .LVU183
 824              	.LBE619:
 825              	.LBE621:
 826              	.LBE625:
 827              		.loc 16 141 25 is_stmt 0 discriminator 2 view .LVU184
 828 0188 02EB8402 		add	r2, r2, r4, lsl #2
 829              		.loc 16 141 13 discriminator 2 view .LVU185
 830 018c 03EB8403 		add	r3, r3, r4, lsl #2
 831              	.LBE650:
  78:takshaka.cpp  **** 		float pounceValue = pounce.Process( envGate );
 832              		.loc 16 78 2 discriminator 2 view .LVU186
 833 0190 0134     		adds	r4, r4, #1
 834              	.LVL58:
 835              	.LBB651:
 836              	.LBB626:
 837              	.LBB622:
 838              	.LBB620:
  36:../../DaisySP//Source/Utility/dsp.h **** #else
 839              		.loc 17 36 5 discriminator 2 view .LVU187
 840              		.syntax unified
 841              	@ 36 "../../DaisySP//Source/Utility/dsp.h" 1
 842 0192 C7FE877A 		vmaxnm.f32 s15, s15, s14
 843              	@ 0 "" 2
 844              	.LVL59:
  40:../../DaisySP//Source/Utility/dsp.h **** }
 845              		.loc 17 40 5 is_stmt 1 discriminator 2 view .LVU188
ARM GAS  C:\Users\danst\AppData\Local\Temp\ccwBJjMd.s 			page 34


  40:../../DaisySP//Source/Utility/dsp.h **** }
 846              		.loc 17 40 5 is_stmt 0 discriminator 2 view .LVU189
 847              		.thumb
 848              		.syntax unified
 849              	.LBE620:
 850              	.LBE622:
 851              	.LBB623:
 852              	.LBI614:
  43:../../DaisySP//Source/Utility/dsp.h **** {
 853              		.loc 17 43 14 is_stmt 1 discriminator 2 view .LVU190
 854              	.LBB616:
  45:../../DaisySP//Source/Utility/dsp.h **** #ifdef __arm__
 855              		.loc 17 45 5 discriminator 2 view .LVU191
  47:../../DaisySP//Source/Utility/dsp.h **** #else
 856              		.loc 17 47 5 discriminator 2 view .LVU192
 857              		.syntax unified
 858              	@ 47 "../../DaisySP//Source/Utility/dsp.h" 1
 859 0196 C7FEE67A 		vminnm.f32 s15, s15, s13
 860              	@ 0 "" 2
 861              	.LVL60:
  51:../../DaisySP//Source/Utility/dsp.h **** }
 862              		.loc 17 51 5 discriminator 2 view .LVU193
  51:../../DaisySP//Source/Utility/dsp.h **** }
 863              		.loc 17 51 5 is_stmt 0 discriminator 2 view .LVU194
 864              		.thumb
 865              		.syntax unified
 866              	.LBE616:
 867              	.LBE623:
 868              	.LBE626:
 869              		.loc 16 141 3 is_stmt 1 discriminator 2 view .LVU195
 870              		.loc 16 141 42 is_stmt 0 discriminator 2 view .LVU196
 871 019a 28EE270A 		vmul.f32	s0, s16, s15
 872              	.LBE651:
  78:takshaka.cpp  **** 		float pounceValue = pounce.Process( envGate );
 873              		.loc 16 78 23 discriminator 2 view .LVU197
 874 019e A742     		cmp	r7, r4
 875              	.LBB652:
 876              		.loc 16 141 25 discriminator 2 view .LVU198
 877 01a0 82ED000A 		vstr.32	s0, [r2]
 878              		.loc 16 141 13 discriminator 2 view .LVU199
 879 01a4 83ED000A 		vstr.32	s0, [r3]
 880              	.LBE652:
  78:takshaka.cpp  **** 		float pounceValue = pounce.Process( envGate );
 881              		.loc 16 78 2 is_stmt 1 discriminator 2 view .LVU200
 882              	.LVL61:
  78:takshaka.cpp  **** 		float pounceValue = pounce.Process( envGate );
 883              		.loc 16 78 23 discriminator 2 view .LVU201
 884 01a8 7FF43DAF 		bne	.L25
 885              	.LBE661:
 142:takshaka.cpp  **** 	}
 143:takshaka.cpp  **** }
 886              		.loc 16 143 1 is_stmt 0 view .LVU202
 887 01ac BDEC048B 		vldm	sp!, {d8-d9}
 888              		.cfi_remember_state
 889              		.cfi_restore 82
 890              		.cfi_restore 83
 891              		.cfi_restore 80
ARM GAS  C:\Users\danst\AppData\Local\Temp\ccwBJjMd.s 			page 35


 892              		.cfi_restore 81
 893              		.cfi_def_cfa_offset 40
 894              	.LVL62:
 895              		.loc 16 143 1 view .LVU203
 896 01b0 BDE8F88F 		pop	{r3, r4, r5, r6, r7, r8, r9, r10, fp, pc}
 897              	.LVL63:
 898              	.L18:
 899              		.cfi_restore_state
 900              	.LBB662:
 901              	.LBB653:
 112:takshaka.cpp  **** 				filteredSignal = filter1.Band();
 902              		.loc 16 112 4 is_stmt 1 view .LVU204
 113:takshaka.cpp  **** 				break;
 903              		.loc 16 113 5 view .LVU205
 904              	.LBB627:
 905              	.LBI627:
  23:../../DaisySP//Source/Filters/svf.h ****     /** Initializes the filter
  24:../../DaisySP//Source/Filters/svf.h ****         float sample_rate - sample rate of the audio engine being run, and the frequency that the P
  25:../../DaisySP//Source/Filters/svf.h ****     */
  26:../../DaisySP//Source/Filters/svf.h ****     void Init(float sample_rate);
  27:../../DaisySP//Source/Filters/svf.h **** 
  28:../../DaisySP//Source/Filters/svf.h **** 
  29:../../DaisySP//Source/Filters/svf.h ****     /** 
  30:../../DaisySP//Source/Filters/svf.h ****         Process the input signal, updating all of the outputs.
  31:../../DaisySP//Source/Filters/svf.h ****     */
  32:../../DaisySP//Source/Filters/svf.h ****     void Process(float in);
  33:../../DaisySP//Source/Filters/svf.h **** 
  34:../../DaisySP//Source/Filters/svf.h **** 
  35:../../DaisySP//Source/Filters/svf.h ****     /** sets the frequency of the cutoff frequency. 
  36:../../DaisySP//Source/Filters/svf.h ****         f must be between 0.0 and sample_rate / 3
  37:../../DaisySP//Source/Filters/svf.h ****     */
  38:../../DaisySP//Source/Filters/svf.h ****     void SetFreq(float f);
  39:../../DaisySP//Source/Filters/svf.h **** 
  40:../../DaisySP//Source/Filters/svf.h ****     /** sets the resonance of the filter.
  41:../../DaisySP//Source/Filters/svf.h ****         Must be between 0.0 and 1.0 to ensure stability.
  42:../../DaisySP//Source/Filters/svf.h ****     */
  43:../../DaisySP//Source/Filters/svf.h ****     void SetRes(float r);
  44:../../DaisySP//Source/Filters/svf.h **** 
  45:../../DaisySP//Source/Filters/svf.h ****     /** sets the drive of the filter 
  46:../../DaisySP//Source/Filters/svf.h ****         affects the response of the resonance of the filter
  47:../../DaisySP//Source/Filters/svf.h ****     */
  48:../../DaisySP//Source/Filters/svf.h ****     void SetDrive(float d);
  49:../../DaisySP//Source/Filters/svf.h ****     /** lowpass output
  50:../../DaisySP//Source/Filters/svf.h ****         \return low pass output of the filter
  51:../../DaisySP//Source/Filters/svf.h ****     */
  52:../../DaisySP//Source/Filters/svf.h ****     inline float Low() { return out_low_; }
  53:../../DaisySP//Source/Filters/svf.h ****     /** highpass output
  54:../../DaisySP//Source/Filters/svf.h ****         \return high pass output of the filter
  55:../../DaisySP//Source/Filters/svf.h ****     */
  56:../../DaisySP//Source/Filters/svf.h ****     inline float High() { return out_high_; }
  57:../../DaisySP//Source/Filters/svf.h ****     /** bandpass output
  58:../../DaisySP//Source/Filters/svf.h ****         \return band pass output of the filter
  59:../../DaisySP//Source/Filters/svf.h ****     */
  60:../../DaisySP//Source/Filters/svf.h ****     inline float Band() { return out_band_; }
 906              		.loc 9 60 18 view .LVU206
 907              	.LBB628:
 908              		.loc 9 60 27 view .LVU207
ARM GAS  C:\Users\danst\AppData\Local\Temp\ccwBJjMd.s 			page 36


 909              		.loc 9 60 34 is_stmt 0 view .LVU208
 910 01b4 2C4B     		ldr	r3, .L36+44
 911              	.LBE628:
 912              	.LBE627:
 119:takshaka.cpp  **** 			(
 913              		.loc 16 119 36 view .LVU209
 914 01b6 3148     		ldr	r0, .L36+64
 915              	.LBB630:
 916              	.LBB629:
 917              		.loc 9 60 34 view .LVU210
 918 01b8 93ED0E8A 		vldr.32	s16, [r3, #56]
 919              	.LVL64:
 920              		.loc 9 60 34 view .LVU211
 921              	.LBE629:
 922              	.LBE630:
 114:takshaka.cpp  **** 			case FILTER_MODE_COMB:
 923              		.loc 16 114 5 is_stmt 1 view .LVU212
 119:takshaka.cpp  **** 			(
 924              		.loc 16 119 3 view .LVU213
 119:takshaka.cpp  **** 			(
 925              		.loc 16 119 36 is_stmt 0 view .LVU214
 926 01bc FFF7FEFF 		bl	_ZN7daisysp9SmartKnob8GetValueEv
 927              	.LVL65:
 119:takshaka.cpp  **** 			(
 928              		.loc 16 119 45 view .LVU215
 929 01c0 F6EE007A 		vmov.f32	s15, #5.0e-1
 930 01c4 B4EEE70A 		vcmpe.f32	s0, s15
 931 01c8 F1EE10FA 		vmrs	APSR_nzcv, FPSCR
 932 01cc C4DD     		ble	.L22
 126:takshaka.cpp  **** 			switch( currentFilterMode ){
 933              		.loc 16 126 4 is_stmt 1 view .LVU216
 126:takshaka.cpp  **** 			switch( currentFilterMode ){
 934              		.loc 16 126 19 is_stmt 0 view .LVU217
 935 01ce B0EE480A 		vmov.f32	s0, s16
 936 01d2 2648     		ldr	r0, .L36+48
 937 01d4 FFF7FEFF 		bl	_ZN7daisysp3Svf7ProcessEf
 938              	.LVL66:
 127:takshaka.cpp  **** 				case FILTER_MODE_LP:
 939              		.loc 16 127 4 is_stmt 1 view .LVU218
 134:takshaka.cpp  **** 					filteredSignal = filter2.Band();
 940              		.loc 16 134 5 view .LVU219
 135:takshaka.cpp  **** 					break;
 941              		.loc 16 135 6 view .LVU220
 942              	.LBB631:
 943              	.LBI631:
 944              		.loc 9 60 18 view .LVU221
 945              	.LBB632:
 946              		.loc 9 60 27 view .LVU222
 947              		.loc 9 60 34 is_stmt 0 view .LVU223
 948 01d8 2448     		ldr	r0, .L36+48
 949 01da 90ED0E8A 		vldr.32	s16, [r0, #56]
 950              	.LVL67:
 951              		.loc 9 60 34 view .LVU224
 952              	.LBE632:
 953              	.LBE631:
 136:takshaka.cpp  **** 			}
 954              		.loc 16 136 6 is_stmt 1 view .LVU225
ARM GAS  C:\Users\danst\AppData\Local\Temp\ccwBJjMd.s 			page 37


 955 01de BBE7     		b	.L22
 956              	.LVL68:
 957              	.L19:
 109:takshaka.cpp  **** 				filteredSignal = filter1.High();
 958              		.loc 16 109 4 view .LVU226
 110:takshaka.cpp  **** 				break;
 959              		.loc 16 110 5 view .LVU227
 960              	.LBB633:
 961              	.LBI633:
  56:../../DaisySP//Source/Filters/svf.h ****     /** bandpass output
 962              		.loc 9 56 18 view .LVU228
 963              	.LBB634:
  56:../../DaisySP//Source/Filters/svf.h ****     /** bandpass output
 964              		.loc 9 56 27 view .LVU229
  56:../../DaisySP//Source/Filters/svf.h ****     /** bandpass output
 965              		.loc 9 56 34 is_stmt 0 view .LVU230
 966 01e0 214B     		ldr	r3, .L36+44
 967              	.LBE634:
 968              	.LBE633:
 119:takshaka.cpp  **** 			(
 969              		.loc 16 119 36 view .LVU231
 970 01e2 2648     		ldr	r0, .L36+64
 971              	.LBB636:
 972              	.LBB635:
  56:../../DaisySP//Source/Filters/svf.h ****     /** bandpass output
 973              		.loc 9 56 34 view .LVU232
 974 01e4 93ED0D8A 		vldr.32	s16, [r3, #52]
 975              	.LVL69:
  56:../../DaisySP//Source/Filters/svf.h ****     /** bandpass output
 976              		.loc 9 56 34 view .LVU233
 977              	.LBE635:
 978              	.LBE636:
 111:takshaka.cpp  **** 			case FILTER_MODE_BP:
 979              		.loc 16 111 5 is_stmt 1 view .LVU234
 119:takshaka.cpp  **** 			(
 980              		.loc 16 119 3 view .LVU235
 119:takshaka.cpp  **** 			(
 981              		.loc 16 119 36 is_stmt 0 view .LVU236
 982 01e8 FFF7FEFF 		bl	_ZN7daisysp9SmartKnob8GetValueEv
 983              	.LVL70:
 119:takshaka.cpp  **** 			(
 984              		.loc 16 119 45 view .LVU237
 985 01ec F6EE007A 		vmov.f32	s15, #5.0e-1
 986 01f0 B4EEE70A 		vcmpe.f32	s0, s15
 987 01f4 F1EE10FA 		vmrs	APSR_nzcv, FPSCR
 988 01f8 AEDD     		ble	.L22
 126:takshaka.cpp  **** 			switch( currentFilterMode ){
 989              		.loc 16 126 4 is_stmt 1 view .LVU238
 126:takshaka.cpp  **** 			switch( currentFilterMode ){
 990              		.loc 16 126 19 is_stmt 0 view .LVU239
 991 01fa B0EE480A 		vmov.f32	s0, s16
 992 01fe 1B48     		ldr	r0, .L36+48
 993 0200 FFF7FEFF 		bl	_ZN7daisysp3Svf7ProcessEf
 994              	.LVL71:
 127:takshaka.cpp  **** 				case FILTER_MODE_LP:
 995              		.loc 16 127 4 is_stmt 1 view .LVU240
 131:takshaka.cpp  **** 					filteredSignal = filter2.High();
ARM GAS  C:\Users\danst\AppData\Local\Temp\ccwBJjMd.s 			page 38


 996              		.loc 16 131 5 view .LVU241
 132:takshaka.cpp  **** 					break;
 997              		.loc 16 132 6 view .LVU242
 998              	.LBB637:
 999              	.LBI637:
  56:../../DaisySP//Source/Filters/svf.h ****     /** bandpass output
 1000              		.loc 9 56 18 view .LVU243
 1001              	.LBB638:
  56:../../DaisySP//Source/Filters/svf.h ****     /** bandpass output
 1002              		.loc 9 56 27 view .LVU244
  56:../../DaisySP//Source/Filters/svf.h ****     /** bandpass output
 1003              		.loc 9 56 34 is_stmt 0 view .LVU245
 1004 0204 1948     		ldr	r0, .L36+48
 1005 0206 90ED0D8A 		vldr.32	s16, [r0, #52]
 1006              	.LVL72:
  56:../../DaisySP//Source/Filters/svf.h ****     /** bandpass output
 1007              		.loc 9 56 34 view .LVU246
 1008              	.LBE638:
 1009              	.LBE637:
 133:takshaka.cpp  **** 				case FILTER_MODE_BP:
 1010              		.loc 16 133 6 is_stmt 1 view .LVU247
 1011 020a A5E7     		b	.L22
 1012              	.LVL73:
 1013              	.L20:
 106:takshaka.cpp  **** 				filteredSignal = filter1.Low();
 1014              		.loc 16 106 4 view .LVU248
 107:takshaka.cpp  **** 				break;
 1015              		.loc 16 107 5 view .LVU249
 1016              	.LBB639:
 1017              	.LBI639:
  52:../../DaisySP//Source/Filters/svf.h ****     /** highpass output
 1018              		.loc 9 52 18 view .LVU250
 1019              	.LBB640:
  52:../../DaisySP//Source/Filters/svf.h ****     /** highpass output
 1020              		.loc 9 52 26 view .LVU251
  52:../../DaisySP//Source/Filters/svf.h ****     /** highpass output
 1021              		.loc 9 52 33 is_stmt 0 view .LVU252
 1022 020c 164B     		ldr	r3, .L36+44
 1023              	.LBE640:
 1024              	.LBE639:
 119:takshaka.cpp  **** 			(
 1025              		.loc 16 119 36 view .LVU253
 1026 020e 1B48     		ldr	r0, .L36+64
 1027              	.LBB642:
 1028              	.LBB641:
  52:../../DaisySP//Source/Filters/svf.h ****     /** highpass output
 1029              		.loc 9 52 33 view .LVU254
 1030 0210 93ED0C8A 		vldr.32	s16, [r3, #48]
 1031              	.LVL74:
  52:../../DaisySP//Source/Filters/svf.h ****     /** highpass output
 1032              		.loc 9 52 33 view .LVU255
 1033              	.LBE641:
 1034              	.LBE642:
 108:takshaka.cpp  **** 			case FILTER_MODE_HP:
 1035              		.loc 16 108 5 is_stmt 1 view .LVU256
 119:takshaka.cpp  **** 			(
 1036              		.loc 16 119 3 view .LVU257
ARM GAS  C:\Users\danst\AppData\Local\Temp\ccwBJjMd.s 			page 39


 119:takshaka.cpp  **** 			(
 1037              		.loc 16 119 36 is_stmt 0 view .LVU258
 1038 0214 FFF7FEFF 		bl	_ZN7daisysp9SmartKnob8GetValueEv
 1039              	.LVL75:
 119:takshaka.cpp  **** 			(
 1040              		.loc 16 119 45 view .LVU259
 1041 0218 F6EE007A 		vmov.f32	s15, #5.0e-1
 1042 021c B4EEE70A 		vcmpe.f32	s0, s15
 1043 0220 F1EE10FA 		vmrs	APSR_nzcv, FPSCR
 1044 0224 98DD     		ble	.L22
 126:takshaka.cpp  **** 			switch( currentFilterMode ){
 1045              		.loc 16 126 4 is_stmt 1 view .LVU260
 126:takshaka.cpp  **** 			switch( currentFilterMode ){
 1046              		.loc 16 126 19 is_stmt 0 view .LVU261
 1047 0226 B0EE480A 		vmov.f32	s0, s16
 1048 022a 1048     		ldr	r0, .L36+48
 1049 022c FFF7FEFF 		bl	_ZN7daisysp3Svf7ProcessEf
 1050              	.LVL76:
 127:takshaka.cpp  **** 				case FILTER_MODE_LP:
 1051              		.loc 16 127 4 is_stmt 1 view .LVU262
 128:takshaka.cpp  **** 					filteredSignal = filter2.Low();
 1052              		.loc 16 128 5 view .LVU263
 129:takshaka.cpp  **** 					break;
 1053              		.loc 16 129 6 view .LVU264
 1054              	.LBB643:
 1055              	.LBI643:
  52:../../DaisySP//Source/Filters/svf.h ****     /** highpass output
 1056              		.loc 9 52 18 view .LVU265
 1057              	.LBB644:
  52:../../DaisySP//Source/Filters/svf.h ****     /** highpass output
 1058              		.loc 9 52 26 view .LVU266
  52:../../DaisySP//Source/Filters/svf.h ****     /** highpass output
 1059              		.loc 9 52 33 is_stmt 0 view .LVU267
 1060 0230 0E48     		ldr	r0, .L36+48
 1061 0232 90ED0C8A 		vldr.32	s16, [r0, #48]
 1062              	.LVL77:
  52:../../DaisySP//Source/Filters/svf.h ****     /** highpass output
 1063              		.loc 9 52 33 view .LVU268
 1064              	.LBE644:
 1065              	.LBE643:
 130:takshaka.cpp  **** 				case FILTER_MODE_HP:
 1066              		.loc 16 130 6 is_stmt 1 view .LVU269
 1067 0236 8FE7     		b	.L22
 1068              	.LVL78:
 1069              	.L32:
 1070              		.cfi_def_cfa_offset 0
 1071              		.cfi_restore 3
 1072              		.cfi_restore 4
 1073              		.cfi_restore 5
 1074              		.cfi_restore 6
 1075              		.cfi_restore 7
 1076              		.cfi_restore 8
 1077              		.cfi_restore 9
 1078              		.cfi_restore 10
 1079              		.cfi_restore 11
 1080              		.cfi_restore 14
 1081              		.cfi_restore 80
ARM GAS  C:\Users\danst\AppData\Local\Temp\ccwBJjMd.s 			page 40


 1082              		.cfi_restore 81
 1083              		.cfi_restore 82
 1084              		.cfi_restore 83
 130:takshaka.cpp  **** 				case FILTER_MODE_HP:
 1085              		.loc 16 130 6 is_stmt 0 view .LVU270
 1086 0238 7047     		bx	lr
 1087              	.L37:
 1088 023a 00BF     		.align	2
 1089              	.L36:
 1090 023c 00000000 		.word	.LANCHOR0
 1091 0240 00000000 		.word	.LANCHOR1
 1092 0244 00000000 		.word	.LANCHOR3
 1093 0248 00000000 		.word	.LANCHOR6
 1094 024c CDCC4C3F 		.word	1061997773
 1095 0250 CCCC4C3E 		.word	1045220556
 1096 0254 00000000 		.word	.LANCHOR7
 1097 0258 00000000 		.word	.LANCHOR8
 1098 025c 00000000 		.word	.LANCHOR9
 1099 0260 00000000 		.word	.LANCHOR10
 1100 0264 00409C46 		.word	1184645120
 1101 0268 00000000 		.word	.LANCHOR12
 1102 026c 00000000 		.word	.LANCHOR13
 1103 0270 00000000 		.word	.LANCHOR14
 1104 0274 00000000 		.word	.LANCHOR15
 1105 0278 00000000 		.word	0
 1106 027c 00000000 		.word	.LANCHOR16
 1107 0280 00000000 		.word	.LANCHOR17
 1108 0284 00000000 		.word	.LANCHOR18
 1109 0288 00000000 		.word	.LANCHOR19
 1110 028c 00000000 		.word	.LANCHOR2
 1111 0290 00000000 		.word	.LANCHOR4
 1112 0294 00000000 		.word	.LANCHOR5
 1113 0298 00000000 		.word	.LANCHOR11
 1114              	.LBE653:
 1115              	.LBE662:
 1116              		.cfi_endproc
 1117              	.LFE4788:
 1119              		.section	.text._ZN7daisysp11SuperSawOscC2Ev,"axG",%progbits,_ZN7daisysp11SuperSawOscC5Ev,comdat
 1120              		.align	1
 1121              		.p2align 2,,3
 1122              		.weak	_ZN7daisysp11SuperSawOscC2Ev
 1123              		.syntax unified
 1124              		.thumb
 1125              		.thumb_func
 1126              		.fpu fpv5-d16
 1128              	_ZN7daisysp11SuperSawOscC2Ev:
 1129              	.LVL79:
 1130              	.LFB4780:
  20:SuperSawOsc.h ****             ~SuperSawOsc(){}
 1131              		.loc 12 20 13 is_stmt 1 view -0
 1132              		.cfi_startproc
 1133              		@ args = 0, pretend = 0, frame = 0
 1134              		@ frame_needed = 0, uses_anonymous_args = 0
  20:SuperSawOsc.h ****             ~SuperSawOsc(){}
 1135              		.loc 12 20 13 is_stmt 0 view .LVU272
 1136 0000 2DE9F041 		push	{r4, r5, r6, r7, r8, lr}
 1137              		.cfi_def_cfa_offset 24
ARM GAS  C:\Users\danst\AppData\Local\Temp\ccwBJjMd.s 			page 41


 1138              		.cfi_offset 4, -24
 1139              		.cfi_offset 5, -20
 1140              		.cfi_offset 6, -16
 1141              		.cfi_offset 7, -12
 1142              		.cfi_offset 8, -8
 1143              		.cfi_offset 14, -4
 1144              	.LBB663:
  20:SuperSawOsc.h ****             ~SuperSawOsc(){}
 1145              		.loc 12 20 26 view .LVU273
 1146 0004 144F     		ldr	r7, .L40
 1147              	.LBE663:
  20:SuperSawOsc.h ****             ~SuperSawOsc(){}
 1148              		.loc 12 20 13 view .LVU274
 1149 0006 0646     		mov	r6, r0
 1150              	.LBB665:
  20:SuperSawOsc.h ****             ~SuperSawOsc(){}
 1151              		.loc 12 20 26 view .LVU275
 1152 0008 00F12C04 		add	r4, r0, #44
 1153 000c 00F1480C 		add	ip, r0, #72
 1154 0010 3D46     		mov	r5, r7
 1155 0012 07F11C0E 		add	lr, r7, #28
 1156 0016 4FF04408 		mov	r8, #68
 1157 001a 0FCD     		ldmia	r5!, {r0, r1, r2, r3}
 1158              	.LVL80:
  20:SuperSawOsc.h ****             ~SuperSawOsc(){}
 1159              		.loc 12 20 26 view .LVU276
 1160 001c 0FC4     		stmia	r4!, {r0, r1, r2, r3}
 1161 001e 95E80700 		ldm	r5, {r0, r1, r2}
 1162 0022 84E80700 		stm	r4, {r0, r1, r2}
 1163 0026 BEE80F00 		ldmia	lr!, {r0, r1, r2, r3}
 1164 002a ACE80F00 		stmia	ip!, {r0, r1, r2, r3}
 1165 002e 9EE80700 		ldm	lr, {r0, r1, r2}
 1166 0032 8CE80700 		stm	ip, {r0, r1, r2}
 1167 0036 07F13801 		add	r1, r7, #56
 1168 003a 4246     		mov	r2, r8
 1169 003c 06F16400 		add	r0, r6, #100
 1170 0040 FFF7FEFF 		bl	memcpy
 1171              	.LVL81:
 1172 0044 4246     		mov	r2, r8
 1173 0046 07F17C01 		add	r1, r7, #124
 1174 004a 06F1A800 		add	r0, r6, #168
 1175 004e FFF7FEFF 		bl	memcpy
 1176              	.LVL82:
  20:SuperSawOsc.h ****             ~SuperSawOsc(){}
 1177              		.loc 12 20 26 is_stmt 1 view .LVU277
 1178              	.LBB664:
 1179              	.LBI664:
  22:../../DaisySP//Source/Filters/atone.h ****     ~ATone() {}
 1180              		.loc 13 22 5 view .LVU278
  22:../../DaisySP//Source/Filters/atone.h ****     ~ATone() {}
 1181              		.loc 13 22 5 is_stmt 0 view .LVU279
 1182              	.LBE664:
 1183              	.LBE665:
  20:SuperSawOsc.h ****             ~SuperSawOsc(){}
 1184              		.loc 12 20 27 view .LVU280
 1185 0052 3046     		mov	r0, r6
 1186 0054 BDE8F081 		pop	{r4, r5, r6, r7, r8, pc}
ARM GAS  C:\Users\danst\AppData\Local\Temp\ccwBJjMd.s 			page 42


 1187              	.LVL83:
 1188              	.L41:
  20:SuperSawOsc.h ****             ~SuperSawOsc(){}
 1189              		.loc 12 20 27 view .LVU281
 1190              		.align	2
 1191              	.L40:
 1192 0058 00000000 		.word	.LANCHOR20
 1193              		.cfi_endproc
 1194              	.LFE4780:
 1196              		.weak	_ZN7daisysp11SuperSawOscC1Ev
 1197              		.thumb_set _ZN7daisysp11SuperSawOscC1Ev,_ZN7daisysp11SuperSawOscC2Ev
 1198              		.section	.text._Z11handleKnobsv,"ax",%progbits
 1199              		.align	1
 1200              		.p2align 2,,3
 1201              		.global	_Z11handleKnobsv
 1202              		.syntax unified
 1203              		.thumb
 1204              		.thumb_func
 1205              		.fpu fpv5-d16
 1207              	_Z11handleKnobsv:
 1208              	.LFB4790:
 144:takshaka.cpp  **** void handleMidi(){
 145:takshaka.cpp  **** 	midi.Listen();
 146:takshaka.cpp  **** 	while( midi.HasEvents() ){
 147:takshaka.cpp  **** 		auto midiEvent = midi.PopEvent();
 148:takshaka.cpp  **** 		if( midiEvent.type == NoteOn ){
 149:takshaka.cpp  **** 			auto noteMessage = midiEvent.AsNoteOn();
 150:takshaka.cpp  **** 			if( noteMessage.velocity != 0 ){
 151:takshaka.cpp  **** 				midiNote = noteMessage.note;
 152:takshaka.cpp  **** 				envGate = true;
 153:takshaka.cpp  **** 			} else envGate = false;
 154:takshaka.cpp  **** 		} else if( midiEvent.type == NoteOff ) envGate = false;
 155:takshaka.cpp  **** 	}
 156:takshaka.cpp  **** }
 157:takshaka.cpp  **** void handleKnobs(){		
 1209              		.loc 16 157 19 is_stmt 1 view -0
 1210              		.cfi_startproc
 1211              		@ args = 0, pretend = 0, frame = 8
 1212              		@ frame_needed = 0, uses_anonymous_args = 0
 158:takshaka.cpp  **** 	float growlValue = 1.0 - hw.adc.GetFloat( growlKnob );
 1213              		.loc 16 158 2 view .LVU283
 157:takshaka.cpp  **** 	float growlValue = 1.0 - hw.adc.GetFloat( growlKnob );
 1214              		.loc 16 157 19 is_stmt 0 view .LVU284
 1215 0000 10B5     		push	{r4, lr}
 1216              		.cfi_def_cfa_offset 8
 1217              		.cfi_offset 4, -8
 1218              		.cfi_offset 14, -4
 1219              		.loc 16 158 42 view .LVU285
 1220 0002 534C     		ldr	r4, .L44
 1221 0004 0221     		movs	r1, #2
 157:takshaka.cpp  **** 	float growlValue = 1.0 - hw.adc.GetFloat( growlKnob );
 1222              		.loc 16 157 19 view .LVU286
 1223 0006 2DED028B 		vpush.64	{d8}
 1224              		.cfi_def_cfa_offset 16
 1225              		.cfi_offset 80, -16
 1226              		.cfi_offset 81, -12
 1227 000a B7EE008A 		vmov.f32	s16, #1.0e+0
ARM GAS  C:\Users\danst\AppData\Local\Temp\ccwBJjMd.s 			page 43


 1228 000e 82B0     		sub	sp, sp, #8
 1229              		.cfi_def_cfa_offset 24
 1230              		.loc 16 158 42 view .LVU287
 1231 0010 2046     		mov	r0, r4
 1232 0012 FFF7FEFF 		bl	_ZNK5daisy9AdcHandle8GetFloatEh
 1233              	.LVL84:
 159:takshaka.cpp  **** 	subMixSmartKnob.Update( growlValue );
 1234              		.loc 16 159 24 view .LVU288
 1235 0016 4F48     		ldr	r0, .L44+4
 1236 0018 38EE400A 		vsub.f32	s0, s16, s0
 1237              	.LVL85:
 1238              		.loc 16 159 2 is_stmt 1 view .LVU289
 1239              		.loc 16 159 24 is_stmt 0 view .LVU290
 1240 001c 8DED010A 		vstr.32	s0, [sp, #4]	@ int
 1241 0020 FFF7FEFF 		bl	_ZN7daisysp9SmartKnob6UpdateEf
 1242              	.LVL86:
 160:takshaka.cpp  **** 	subTypeSmartKnob.Update( growlValue );
 1243              		.loc 16 160 2 is_stmt 1 view .LVU291
 1244              		.loc 16 160 25 is_stmt 0 view .LVU292
 1245 0024 9DED010A 		vldr.32	s0, [sp, #4]	@ int
 1246 0028 4B48     		ldr	r0, .L44+8
 1247 002a FFF7FEFF 		bl	_ZN7daisysp9SmartKnob6UpdateEf
 1248              	.LVL87:
 161:takshaka.cpp  **** 	float howlKnobValue = 1.0 - hw.adc.GetFloat( howlKnob );
 1249              		.loc 16 161 2 is_stmt 1 view .LVU293
 1250              		.loc 16 161 45 is_stmt 0 view .LVU294
 1251 002e 0321     		movs	r1, #3
 1252 0030 2046     		mov	r0, r4
 1253 0032 FFF7FEFF 		bl	_ZNK5daisy9AdcHandle8GetFloatEh
 1254              	.LVL88:
 1255 0036 38EE400A 		vsub.f32	s0, s16, s0
 1256              	.LVL89:
 162:takshaka.cpp  **** 	filterCutoffSmartKnob.Update( howlKnobValue );
 1257              		.loc 16 162 2 is_stmt 1 view .LVU295
 1258              		.loc 16 162 30 is_stmt 0 view .LVU296
 1259 003a 4848     		ldr	r0, .L44+12
 1260 003c 8DED010A 		vstr.32	s0, [sp, #4]	@ int
 1261 0040 FFF7FEFF 		bl	_ZN7daisysp9SmartKnob6UpdateEf
 1262              	.LVL90:
 163:takshaka.cpp  **** 	filterTypeSmartKnob.Update( howlKnobValue );
 1263              		.loc 16 163 2 is_stmt 1 view .LVU297
 1264              		.loc 16 163 28 is_stmt 0 view .LVU298
 1265 0044 9DED010A 		vldr.32	s0, [sp, #4]	@ int
 1266 0048 4548     		ldr	r0, .L44+16
 1267 004a FFF7FEFF 		bl	_ZN7daisysp9SmartKnob6UpdateEf
 1268              	.LVL91:
 164:takshaka.cpp  **** 	float resKnobValue = 1.0 - hw.adc.GetFloat( resKnob );
 1269              		.loc 16 164 2 is_stmt 1 view .LVU299
 1270              		.loc 16 164 44 is_stmt 0 view .LVU300
 1271 004e 0421     		movs	r1, #4
 1272 0050 2046     		mov	r0, r4
 1273 0052 FFF7FEFF 		bl	_ZNK5daisy9AdcHandle8GetFloatEh
 1274              	.LVL92:
 1275 0056 38EE400A 		vsub.f32	s0, s16, s0
 1276              	.LVL93:
 165:takshaka.cpp  **** 	filterResSmartKnob.Update( resKnobValue );
 1277              		.loc 16 165 2 is_stmt 1 view .LVU301
ARM GAS  C:\Users\danst\AppData\Local\Temp\ccwBJjMd.s 			page 44


 1278              		.loc 16 165 27 is_stmt 0 view .LVU302
 1279 005a 4248     		ldr	r0, .L44+20
 1280 005c 8DED010A 		vstr.32	s0, [sp, #4]	@ int
 1281 0060 FFF7FEFF 		bl	_ZN7daisysp9SmartKnob6UpdateEf
 1282              	.LVL94:
 166:takshaka.cpp  **** 	filterPolesSmartKnob.Update( resKnobValue );
 1283              		.loc 16 166 2 is_stmt 1 view .LVU303
 1284              		.loc 16 166 29 is_stmt 0 view .LVU304
 1285 0064 9DED010A 		vldr.32	s0, [sp, #4]	@ int
 1286 0068 3F48     		ldr	r0, .L44+24
 1287 006a FFF7FEFF 		bl	_ZN7daisysp9SmartKnob6UpdateEf
 1288              	.LVL95:
 167:takshaka.cpp  **** 	float attackKnobValue = 1.0 - hw.adc.GetFloat( attackKnob );
 1289              		.loc 16 167 2 is_stmt 1 view .LVU305
 1290              		.loc 16 167 47 is_stmt 0 view .LVU306
 1291 006e 0621     		movs	r1, #6
 1292 0070 2046     		mov	r0, r4
 1293 0072 FFF7FEFF 		bl	_ZNK5daisy9AdcHandle8GetFloatEh
 1294              	.LVL96:
 1295 0076 38EE400A 		vsub.f32	s0, s16, s0
 1296              	.LVL97:
 168:takshaka.cpp  **** 	pounceAttackSmartKnob.Update( attackKnobValue );
 1297              		.loc 16 168 2 is_stmt 1 view .LVU307
 1298              		.loc 16 168 30 is_stmt 0 view .LVU308
 1299 007a 3C48     		ldr	r0, .L44+28
 1300 007c 8DED010A 		vstr.32	s0, [sp, #4]	@ int
 1301 0080 FFF7FEFF 		bl	_ZN7daisysp9SmartKnob6UpdateEf
 1302              	.LVL98:
 169:takshaka.cpp  **** 	ampEnvAttackSmartKnob.Update( attackKnobValue );
 1303              		.loc 16 169 2 is_stmt 1 view .LVU309
 1304              		.loc 16 169 30 is_stmt 0 view .LVU310
 1305 0084 9DED010A 		vldr.32	s0, [sp, #4]	@ int
 1306 0088 3948     		ldr	r0, .L44+32
 1307 008a FFF7FEFF 		bl	_ZN7daisysp9SmartKnob6UpdateEf
 1308              	.LVL99:
 170:takshaka.cpp  **** 	float sustainKnobValue = 1.0 - hw.adc.GetFloat( sustainKnob );
 1309              		.loc 16 170 2 is_stmt 1 view .LVU311
 1310              		.loc 16 170 48 is_stmt 0 view .LVU312
 1311 008e 0721     		movs	r1, #7
 1312 0090 2046     		mov	r0, r4
 1313 0092 FFF7FEFF 		bl	_ZNK5daisy9AdcHandle8GetFloatEh
 1314              	.LVL100:
 1315 0096 38EE400A 		vsub.f32	s0, s16, s0
 1316              	.LVL101:
 171:takshaka.cpp  **** 	pounceSustainSmartKnob.Update( sustainKnobValue );
 1317              		.loc 16 171 2 is_stmt 1 view .LVU313
 1318              		.loc 16 171 31 is_stmt 0 view .LVU314
 1319 009a 3648     		ldr	r0, .L44+36
 1320 009c 8DED010A 		vstr.32	s0, [sp, #4]	@ int
 1321 00a0 FFF7FEFF 		bl	_ZN7daisysp9SmartKnob6UpdateEf
 1322              	.LVL102:
 172:takshaka.cpp  **** 	ampEnvSustainSmartKnob.Update( sustainKnobValue );
 1323              		.loc 16 172 2 is_stmt 1 view .LVU315
 1324              		.loc 16 172 31 is_stmt 0 view .LVU316
 1325 00a4 9DED010A 		vldr.32	s0, [sp, #4]	@ int
 1326 00a8 3348     		ldr	r0, .L44+40
 1327 00aa FFF7FEFF 		bl	_ZN7daisysp9SmartKnob6UpdateEf
ARM GAS  C:\Users\danst\AppData\Local\Temp\ccwBJjMd.s 			page 45


 1328              	.LVL103:
 173:takshaka.cpp  **** 	float decayKnobValue = 1.0 - hw.adc.GetFloat( decayKnob );
 1329              		.loc 16 173 2 is_stmt 1 view .LVU317
 1330              		.loc 16 173 46 is_stmt 0 view .LVU318
 1331 00ae 0821     		movs	r1, #8
 1332 00b0 2046     		mov	r0, r4
 1333 00b2 FFF7FEFF 		bl	_ZNK5daisy9AdcHandle8GetFloatEh
 1334              	.LVL104:
 1335 00b6 38EE400A 		vsub.f32	s0, s16, s0
 1336              	.LVL105:
 174:takshaka.cpp  **** 	pounceDecaySmartKnob.Update( decayKnobValue );
 1337              		.loc 16 174 2 is_stmt 1 view .LVU319
 1338              		.loc 16 174 29 is_stmt 0 view .LVU320
 1339 00ba 3048     		ldr	r0, .L44+44
 1340 00bc 8DED010A 		vstr.32	s0, [sp, #4]	@ int
 1341 00c0 FFF7FEFF 		bl	_ZN7daisysp9SmartKnob6UpdateEf
 1342              	.LVL106:
 175:takshaka.cpp  **** 	ampEnvDecaySmartKnob.Update( decayKnobValue );
 1343              		.loc 16 175 2 is_stmt 1 view .LVU321
 1344              		.loc 16 175 29 is_stmt 0 view .LVU322
 1345 00c4 9DED010A 		vldr.32	s0, [sp, #4]	@ int
 1346 00c8 2D48     		ldr	r0, .L44+48
 1347 00ca FFF7FEFF 		bl	_ZN7daisysp9SmartKnob6UpdateEf
 1348              	.LVL107:
 176:takshaka.cpp  **** 	float clawsKnobValue = 1.0 - hw.adc.GetFloat( clawsKnob );
 1349              		.loc 16 176 2 is_stmt 1 view .LVU323
 1350              		.loc 16 176 46 is_stmt 0 view .LVU324
 1351 00ce 0921     		movs	r1, #9
 1352 00d0 2046     		mov	r0, r4
 1353 00d2 FFF7FEFF 		bl	_ZNK5daisy9AdcHandle8GetFloatEh
 1354              	.LVL108:
 1355 00d6 38EE400A 		vsub.f32	s0, s16, s0
 1356              	.LVL109:
 177:takshaka.cpp  **** 	ampSmartKnob.Update( clawsKnobValue );
 1357              		.loc 16 177 2 is_stmt 1 view .LVU325
 1358              		.loc 16 177 21 is_stmt 0 view .LVU326
 1359 00da 2A48     		ldr	r0, .L44+52
 1360 00dc 8DED010A 		vstr.32	s0, [sp, #4]	@ int
 1361 00e0 FFF7FEFF 		bl	_ZN7daisysp9SmartKnob6UpdateEf
 1362              	.LVL110:
 178:takshaka.cpp  **** 	ampEnvModSmartKnob.Update( clawsKnobValue );
 1363              		.loc 16 178 2 is_stmt 1 view .LVU327
 1364              		.loc 16 178 27 is_stmt 0 view .LVU328
 1365 00e4 9DED010A 		vldr.32	s0, [sp, #4]	@ int
 1366 00e8 2748     		ldr	r0, .L44+56
 1367 00ea FFF7FEFF 		bl	_ZN7daisysp9SmartKnob6UpdateEf
 1368              	.LVL111:
 179:takshaka.cpp  **** 	driftValue = 1.0 - hw.adc.GetFloat( driftKnob );
 1369              		.loc 16 179 2 is_stmt 1 view .LVU329
 1370              		.loc 16 179 36 is_stmt 0 view .LVU330
 1371 00ee 2046     		mov	r0, r4
 1372 00f0 0021     		movs	r1, #0
 1373 00f2 FFF7FEFF 		bl	_ZNK5daisy9AdcHandle8GetFloatEh
 1374              	.LVL112:
 1375              		.loc 16 179 13 view .LVU331
 1376 00f6 38EE400A 		vsub.f32	s0, s16, s0
 1377 00fa 244B     		ldr	r3, .L44+60
ARM GAS  C:\Users\danst\AppData\Local\Temp\ccwBJjMd.s 			page 46


 180:takshaka.cpp  **** 	shiftValue = 1.0 - hw.adc.GetFloat( shiftKnob );
 1378              		.loc 16 180 36 view .LVU332
 1379 00fc 2046     		mov	r0, r4
 1380 00fe 0121     		movs	r1, #1
 179:takshaka.cpp  **** 	driftValue = 1.0 - hw.adc.GetFloat( driftKnob );
 1381              		.loc 16 179 13 view .LVU333
 1382 0100 83ED000A 		vstr.32	s0, [r3]
 1383              		.loc 16 180 2 is_stmt 1 view .LVU334
 1384              		.loc 16 180 36 is_stmt 0 view .LVU335
 1385 0104 FFF7FEFF 		bl	_ZNK5daisy9AdcHandle8GetFloatEh
 1386              	.LVL113:
 1387              		.loc 16 180 13 view .LVU336
 1388 0108 38EE400A 		vsub.f32	s0, s16, s0
 1389 010c 204B     		ldr	r3, .L44+64
 181:takshaka.cpp  **** 	driveValue = 1.0 - hw.adc.GetFloat( driveKnob );
 1390              		.loc 16 181 36 view .LVU337
 1391 010e 2046     		mov	r0, r4
 1392 0110 0521     		movs	r1, #5
 180:takshaka.cpp  **** 	shiftValue = 1.0 - hw.adc.GetFloat( shiftKnob );
 1393              		.loc 16 180 13 view .LVU338
 1394 0112 83ED000A 		vstr.32	s0, [r3]
 1395              		.loc 16 181 2 is_stmt 1 view .LVU339
 1396              		.loc 16 181 36 is_stmt 0 view .LVU340
 1397 0116 FFF7FEFF 		bl	_ZNK5daisy9AdcHandle8GetFloatEh
 1398              	.LVL114:
 1399              		.loc 16 181 13 view .LVU341
 1400 011a 38EE400A 		vsub.f32	s0, s16, s0
 1401 011e 1D4B     		ldr	r3, .L44+68
 182:takshaka.cpp  **** 	slitherValue = 1.0 - hw.adc.GetFloat( slitherKnob );
 1402              		.loc 16 182 38 view .LVU342
 1403 0120 2046     		mov	r0, r4
 1404 0122 0A21     		movs	r1, #10
 181:takshaka.cpp  **** 	driveValue = 1.0 - hw.adc.GetFloat( driveKnob );
 1405              		.loc 16 181 13 view .LVU343
 1406 0124 83ED000A 		vstr.32	s0, [r3]
 1407              		.loc 16 182 2 is_stmt 1 view .LVU344
 1408              		.loc 16 182 38 is_stmt 0 view .LVU345
 1409 0128 FFF7FEFF 		bl	_ZNK5daisy9AdcHandle8GetFloatEh
 1410              	.LVL115:
 1411              		.loc 16 182 15 view .LVU346
 1412 012c 38EE400A 		vsub.f32	s0, s16, s0
 1413 0130 194B     		ldr	r3, .L44+72
 183:takshaka.cpp  **** 	slitherDriftModValue = 1.0 - hw.adc.GetFloat( slitherDriftModKnob );
 1414              		.loc 16 183 46 view .LVU347
 1415 0132 0B21     		movs	r1, #11
 1416 0134 2046     		mov	r0, r4
 182:takshaka.cpp  **** 	slitherValue = 1.0 - hw.adc.GetFloat( slitherKnob );
 1417              		.loc 16 182 15 view .LVU348
 1418 0136 83ED000A 		vstr.32	s0, [r3]
 1419              		.loc 16 183 2 is_stmt 1 view .LVU349
 1420              		.loc 16 183 46 is_stmt 0 view .LVU350
 1421 013a FFF7FEFF 		bl	_ZNK5daisy9AdcHandle8GetFloatEh
 1422              	.LVL116:
 1423              		.loc 16 183 23 view .LVU351
 1424 013e 38EE400A 		vsub.f32	s0, s16, s0
 1425 0142 164B     		ldr	r3, .L44+76
 1426 0144 83ED000A 		vstr.32	s0, [r3]
ARM GAS  C:\Users\danst\AppData\Local\Temp\ccwBJjMd.s 			page 47


 184:takshaka.cpp  **** }
 1427              		.loc 16 184 1 view .LVU352
 1428 0148 02B0     		add	sp, sp, #8
 1429              		.cfi_def_cfa_offset 16
 1430              		@ sp needed
 1431 014a BDEC028B 		vldm	sp!, {d8}
 1432              		.cfi_restore 80
 1433              		.cfi_restore 81
 1434              		.cfi_def_cfa_offset 8
 1435              		.loc 16 184 1 view .LVU353
 1436 014e 10BD     		pop	{r4, pc}
 1437              	.L45:
 1438              		.align	2
 1439              	.L44:
 1440 0150 18000000 		.word	.LANCHOR21+24
 1441 0154 00000000 		.word	.LANCHOR6
 1442 0158 00000000 		.word	.LANCHOR22
 1443 015c 00000000 		.word	.LANCHOR10
 1444 0160 00000000 		.word	.LANCHOR15
 1445 0164 00000000 		.word	.LANCHOR23
 1446 0168 00000000 		.word	.LANCHOR16
 1447 016c 00000000 		.word	.LANCHOR24
 1448 0170 00000000 		.word	.LANCHOR25
 1449 0174 00000000 		.word	.LANCHOR26
 1450 0178 00000000 		.word	.LANCHOR27
 1451 017c 00000000 		.word	.LANCHOR28
 1452 0180 00000000 		.word	.LANCHOR29
 1453 0184 00000000 		.word	.LANCHOR19
 1454 0188 00000000 		.word	.LANCHOR18
 1455 018c 00000000 		.word	.LANCHOR2
 1456 0190 00000000 		.word	.LANCHOR5
 1457 0194 00000000 		.word	.LANCHOR30
 1458 0198 00000000 		.word	.LANCHOR4
 1459 019c 00000000 		.word	.LANCHOR31
 1460              		.cfi_endproc
 1461              	.LFE4790:
 1463              		.section	.text._Z16updateSubOscWavev,"ax",%progbits
 1464              		.align	1
 1465              		.p2align 2,,3
 1466              		.global	_Z16updateSubOscWavev
 1467              		.syntax unified
 1468              		.thumb
 1469              		.thumb_func
 1470              		.fpu fpv5-d16
 1472              	_Z16updateSubOscWavev:
 1473              	.LFB4791:
 185:takshaka.cpp  **** void updateSubOscWave(){
 1474              		.loc 16 185 24 is_stmt 1 view -0
 1475              		.cfi_startproc
 1476              		@ args = 0, pretend = 0, frame = 0
 1477              		@ frame_needed = 0, uses_anonymous_args = 0
 186:takshaka.cpp  **** 	int subWave = subTypeSmartKnob.GetValue() * SUBOSC_WAVEFORMS_COUNT ;  // int range 0 - 2
 1478              		.loc 16 186 2 view .LVU355
 185:takshaka.cpp  **** void updateSubOscWave(){
 1479              		.loc 16 185 24 is_stmt 0 view .LVU356
 1480 0000 08B5     		push	{r3, lr}
 1481              		.cfi_def_cfa_offset 8
ARM GAS  C:\Users\danst\AppData\Local\Temp\ccwBJjMd.s 			page 48


 1482              		.cfi_offset 3, -8
 1483              		.cfi_offset 14, -4
 1484              		.loc 16 186 41 view .LVU357
 1485 0002 1E48     		ldr	r0, .L56
 1486 0004 FFF7FEFF 		bl	_ZN7daisysp9SmartKnob8GetValueEv
 1487              	.LVL117:
 187:takshaka.cpp  **** 	switch( subWave ){
 1488              		.loc 16 187 2 is_stmt 1 view .LVU358
 186:takshaka.cpp  **** 	int subWave = subTypeSmartKnob.GetValue() * SUBOSC_WAVEFORMS_COUNT ;  // int range 0 - 2
 1489              		.loc 16 186 44 is_stmt 0 view .LVU359
 1490 0008 F1EE087A 		vmov.f32	s15, #6.0e+0
 1491 000c 20EE270A 		vmul.f32	s0, s0, s15
 1492              	.LVL118:
 186:takshaka.cpp  **** 	int subWave = subTypeSmartKnob.GetValue() * SUBOSC_WAVEFORMS_COUNT ;  // int range 0 - 2
 1493              		.loc 16 186 46 view .LVU360
 1494 0010 BDEEC00A 		vcvt.s32.f32	s0, s0
 1495 0014 10EE103A 		vmov	r3, s0	@ int
 1496 0018 052B     		cmp	r3, #5
 1497 001a 0AD8     		bhi	.L46
 1498 001c DFE803F0 		tbb	[pc, r3]
 1499              	.L49:
 1500 0020 0A       		.byte	(.L54-.L49)/2
 1501 0021 11       		.byte	(.L53-.L49)/2
 1502 0022 18       		.byte	(.L52-.L49)/2
 1503 0023 1F       		.byte	(.L51-.L49)/2
 1504 0024 26       		.byte	(.L50-.L49)/2
 1505 0025 03       		.byte	(.L48-.L49)/2
 1506              		.p2align 1
 1507              	.L48:
 188:takshaka.cpp  **** 		case 0:
 189:takshaka.cpp  **** 			subOsc.SetWaveform( subOsc.WAVE_SIN );
 190:takshaka.cpp  **** 			subOscOctave = 1;
 191:takshaka.cpp  **** 			break;
 192:takshaka.cpp  **** 		case 1:
 193:takshaka.cpp  **** 			subOsc.SetWaveform( subOsc.WAVE_SIN );
 194:takshaka.cpp  **** 			subOscOctave = 2;
 195:takshaka.cpp  **** 			break;
 196:takshaka.cpp  **** 		case 2:
 197:takshaka.cpp  **** 			subOsc.SetWaveform( subOsc.WAVE_POLYBLEP_TRI );
 198:takshaka.cpp  **** 			subOscOctave = 1;
 199:takshaka.cpp  **** 			break;
 200:takshaka.cpp  **** 		case 3:
 201:takshaka.cpp  **** 			subOsc.SetWaveform( subOsc.WAVE_POLYBLEP_TRI );
 202:takshaka.cpp  **** 			subOscOctave = 2;
 203:takshaka.cpp  **** 			break;
 204:takshaka.cpp  **** 		case 4:
 205:takshaka.cpp  **** 			subOsc.SetWaveform( subOsc.WAVE_POLYBLEP_SQUARE );
 206:takshaka.cpp  **** 			subOscOctave = 1;
 207:takshaka.cpp  **** 			break;
 208:takshaka.cpp  **** 		case 5:
 1508              		.loc 16 208 3 is_stmt 1 view .LVU361
 209:takshaka.cpp  **** 			subOsc.SetWaveform( subOsc.WAVE_POLYBLEP_SQUARE );
 1509              		.loc 16 209 4 view .LVU362
 1510              	.LVL119:
 1511              	.LBB666:
 1512              	.LBI666:
  17:../../DaisySP//Source/Synthesis/oscillator.h ****     /** Choices for output waveforms, POLYBLEP are appropriately labeled. Others are naive forms.
ARM GAS  C:\Users\danst\AppData\Local\Temp\ccwBJjMd.s 			page 49


  18:../../DaisySP//Source/Synthesis/oscillator.h ****     */
  19:../../DaisySP//Source/Synthesis/oscillator.h ****     enum
  20:../../DaisySP//Source/Synthesis/oscillator.h ****     {
  21:../../DaisySP//Source/Synthesis/oscillator.h ****         WAVE_SIN,
  22:../../DaisySP//Source/Synthesis/oscillator.h ****         WAVE_TRI,
  23:../../DaisySP//Source/Synthesis/oscillator.h ****         WAVE_SAW,
  24:../../DaisySP//Source/Synthesis/oscillator.h ****         WAVE_RAMP,
  25:../../DaisySP//Source/Synthesis/oscillator.h ****         WAVE_SQUARE,
  26:../../DaisySP//Source/Synthesis/oscillator.h ****         WAVE_POLYBLEP_TRI,
  27:../../DaisySP//Source/Synthesis/oscillator.h ****         WAVE_POLYBLEP_SAW,
  28:../../DaisySP//Source/Synthesis/oscillator.h ****         WAVE_POLYBLEP_SQUARE,
  29:../../DaisySP//Source/Synthesis/oscillator.h ****         WAVE_LAST,
  30:../../DaisySP//Source/Synthesis/oscillator.h ****     };
  31:../../DaisySP//Source/Synthesis/oscillator.h **** 
  32:../../DaisySP//Source/Synthesis/oscillator.h **** 
  33:../../DaisySP//Source/Synthesis/oscillator.h ****     /** Initializes the Oscillator
  34:../../DaisySP//Source/Synthesis/oscillator.h **** 
  35:../../DaisySP//Source/Synthesis/oscillator.h ****         \param sample_rate - sample rate of the audio engine being run, and the frequency that the 
  36:../../DaisySP//Source/Synthesis/oscillator.h **** 
  37:../../DaisySP//Source/Synthesis/oscillator.h ****         Defaults:
  38:../../DaisySP//Source/Synthesis/oscillator.h ****         - freq_ = 100 Hz
  39:../../DaisySP//Source/Synthesis/oscillator.h ****         - amp_ = 0.5
  40:../../DaisySP//Source/Synthesis/oscillator.h ****         - waveform_ = sine wave.
  41:../../DaisySP//Source/Synthesis/oscillator.h ****     */
  42:../../DaisySP//Source/Synthesis/oscillator.h ****     void Init(float sample_rate)
  43:../../DaisySP//Source/Synthesis/oscillator.h ****     {
  44:../../DaisySP//Source/Synthesis/oscillator.h ****         sr_        = sample_rate;
  45:../../DaisySP//Source/Synthesis/oscillator.h ****         sr_recip_  = 1.0f / sample_rate;
  46:../../DaisySP//Source/Synthesis/oscillator.h ****         freq_      = 100.0f;
  47:../../DaisySP//Source/Synthesis/oscillator.h ****         amp_       = 0.5f;
  48:../../DaisySP//Source/Synthesis/oscillator.h ****         phase_     = 0.0f;
  49:../../DaisySP//Source/Synthesis/oscillator.h ****         phase_inc_ = CalcPhaseInc(freq_);
  50:../../DaisySP//Source/Synthesis/oscillator.h ****         waveform_  = WAVE_SIN;
  51:../../DaisySP//Source/Synthesis/oscillator.h ****         eoc_       = true;
  52:../../DaisySP//Source/Synthesis/oscillator.h ****         eor_       = true;
  53:../../DaisySP//Source/Synthesis/oscillator.h ****     }
  54:../../DaisySP//Source/Synthesis/oscillator.h **** 
  55:../../DaisySP//Source/Synthesis/oscillator.h **** 
  56:../../DaisySP//Source/Synthesis/oscillator.h ****     /** Changes the frequency of the Oscillator, and recalculates phase increment.
  57:../../DaisySP//Source/Synthesis/oscillator.h ****     */
  58:../../DaisySP//Source/Synthesis/oscillator.h ****     inline void SetFreq(const float f)
  59:../../DaisySP//Source/Synthesis/oscillator.h ****     {
  60:../../DaisySP//Source/Synthesis/oscillator.h ****         freq_      = f;
  61:../../DaisySP//Source/Synthesis/oscillator.h ****         phase_inc_ = CalcPhaseInc(f);
  62:../../DaisySP//Source/Synthesis/oscillator.h ****     }
  63:../../DaisySP//Source/Synthesis/oscillator.h **** 
  64:../../DaisySP//Source/Synthesis/oscillator.h **** 
  65:../../DaisySP//Source/Synthesis/oscillator.h ****     /** Sets the amplitude of the waveform.
  66:../../DaisySP//Source/Synthesis/oscillator.h ****     */
  67:../../DaisySP//Source/Synthesis/oscillator.h ****     inline void SetAmp(const float a) { amp_ = a; }
  68:../../DaisySP//Source/Synthesis/oscillator.h ****     /** Sets the waveform to be synthesized by the Process() function.
  69:../../DaisySP//Source/Synthesis/oscillator.h ****     */
  70:../../DaisySP//Source/Synthesis/oscillator.h ****     inline void SetWaveform(const uint8_t wf)
 1513              		.loc 8 70 17 view .LVU363
 1514              	.LBB667:
  71:../../DaisySP//Source/Synthesis/oscillator.h ****     {
  72:../../DaisySP//Source/Synthesis/oscillator.h ****         waveform_ = wf < WAVE_LAST ? wf : WAVE_SIN;
ARM GAS  C:\Users\danst\AppData\Local\Temp\ccwBJjMd.s 			page 50


 1515              		.loc 8 72 9 view .LVU364
 1516              		.loc 8 72 19 is_stmt 0 view .LVU365
 1517 0026 1649     		ldr	r1, .L56+4
 1518 0028 0720     		movs	r0, #7
 1519              	.LBE667:
 1520              	.LBE666:
 210:takshaka.cpp  **** 			subOscOctave = 2;
 1521              		.loc 16 210 17 view .LVU366
 1522 002a 164B     		ldr	r3, .L56+8
 1523 002c 0222     		movs	r2, #2
 1524              	.LBB669:
 1525              	.LBB668:
 1526              		.loc 8 72 19 view .LVU367
 1527 002e 0870     		strb	r0, [r1]
 1528              	.LVL120:
 1529              		.loc 8 72 19 view .LVU368
 1530              	.LBE668:
 1531              	.LBE669:
 1532              		.loc 16 210 4 is_stmt 1 view .LVU369
 1533              		.loc 16 210 17 is_stmt 0 view .LVU370
 1534 0030 1A60     		str	r2, [r3]
 1535              	.L46:
 211:takshaka.cpp  **** 	}
 212:takshaka.cpp  **** }
 1536              		.loc 16 212 1 view .LVU371
 1537 0032 08BD     		pop	{r3, pc}
 1538              	.L54:
 188:takshaka.cpp  **** 			subOsc.SetWaveform( subOsc.WAVE_SIN );
 1539              		.loc 16 188 3 is_stmt 1 view .LVU372
 189:takshaka.cpp  **** 			subOscOctave = 1;
 1540              		.loc 16 189 4 view .LVU373
 1541              	.LVL121:
 1542              	.LBB670:
 1543              	.LBI670:
  70:../../DaisySP//Source/Synthesis/oscillator.h ****     {
 1544              		.loc 8 70 17 view .LVU374
 1545              	.LBB671:
 1546              		.loc 8 72 9 view .LVU375
 1547              		.loc 8 72 19 is_stmt 0 view .LVU376
 1548 0034 1249     		ldr	r1, .L56+4
 1549 0036 0020     		movs	r0, #0
 1550              	.LBE671:
 1551              	.LBE670:
 190:takshaka.cpp  **** 			break;
 1552              		.loc 16 190 17 view .LVU377
 1553 0038 124B     		ldr	r3, .L56+8
 1554 003a 0122     		movs	r2, #1
 1555              	.LBB673:
 1556              	.LBB672:
 1557              		.loc 8 72 19 view .LVU378
 1558 003c 0870     		strb	r0, [r1]
 1559              	.LVL122:
 1560              		.loc 8 72 19 view .LVU379
 1561              	.LBE672:
 1562              	.LBE673:
 190:takshaka.cpp  **** 			break;
 1563              		.loc 16 190 4 is_stmt 1 view .LVU380
ARM GAS  C:\Users\danst\AppData\Local\Temp\ccwBJjMd.s 			page 51


 190:takshaka.cpp  **** 			break;
 1564              		.loc 16 190 17 is_stmt 0 view .LVU381
 1565 003e 1A60     		str	r2, [r3]
 191:takshaka.cpp  **** 		case 1:
 1566              		.loc 16 191 4 is_stmt 1 view .LVU382
 1567              		.loc 16 212 1 is_stmt 0 view .LVU383
 1568 0040 08BD     		pop	{r3, pc}
 1569              	.L53:
 192:takshaka.cpp  **** 			subOsc.SetWaveform( subOsc.WAVE_SIN );
 1570              		.loc 16 192 3 is_stmt 1 view .LVU384
 193:takshaka.cpp  **** 			subOscOctave = 2;
 1571              		.loc 16 193 4 view .LVU385
 1572              	.LVL123:
 1573              	.LBB674:
 1574              	.LBI674:
  70:../../DaisySP//Source/Synthesis/oscillator.h ****     {
 1575              		.loc 8 70 17 view .LVU386
 1576              	.LBB675:
 1577              		.loc 8 72 9 view .LVU387
 1578              		.loc 8 72 19 is_stmt 0 view .LVU388
 1579 0042 0F49     		ldr	r1, .L56+4
 1580 0044 0020     		movs	r0, #0
 1581              	.LBE675:
 1582              	.LBE674:
 194:takshaka.cpp  **** 			break;
 1583              		.loc 16 194 17 view .LVU389
 1584 0046 0F4B     		ldr	r3, .L56+8
 1585 0048 0222     		movs	r2, #2
 1586              	.LBB677:
 1587              	.LBB676:
 1588              		.loc 8 72 19 view .LVU390
 1589 004a 0870     		strb	r0, [r1]
 1590              	.LVL124:
 1591              		.loc 8 72 19 view .LVU391
 1592              	.LBE676:
 1593              	.LBE677:
 194:takshaka.cpp  **** 			break;
 1594              		.loc 16 194 4 is_stmt 1 view .LVU392
 194:takshaka.cpp  **** 			break;
 1595              		.loc 16 194 17 is_stmt 0 view .LVU393
 1596 004c 1A60     		str	r2, [r3]
 195:takshaka.cpp  **** 		case 2:
 1597              		.loc 16 195 4 is_stmt 1 view .LVU394
 1598              		.loc 16 212 1 is_stmt 0 view .LVU395
 1599 004e 08BD     		pop	{r3, pc}
 1600              	.L52:
 196:takshaka.cpp  **** 			subOsc.SetWaveform( subOsc.WAVE_POLYBLEP_TRI );
 1601              		.loc 16 196 3 is_stmt 1 view .LVU396
 197:takshaka.cpp  **** 			subOscOctave = 1;
 1602              		.loc 16 197 4 view .LVU397
 1603              	.LVL125:
 1604              	.LBB678:
 1605              	.LBI678:
  70:../../DaisySP//Source/Synthesis/oscillator.h ****     {
 1606              		.loc 8 70 17 view .LVU398
 1607              	.LBB679:
 1608              		.loc 8 72 9 view .LVU399
ARM GAS  C:\Users\danst\AppData\Local\Temp\ccwBJjMd.s 			page 52


 1609              		.loc 8 72 19 is_stmt 0 view .LVU400
 1610 0050 0B49     		ldr	r1, .L56+4
 1611 0052 0520     		movs	r0, #5
 1612              	.LBE679:
 1613              	.LBE678:
 198:takshaka.cpp  **** 			break;
 1614              		.loc 16 198 17 view .LVU401
 1615 0054 0B4B     		ldr	r3, .L56+8
 1616 0056 0122     		movs	r2, #1
 1617              	.LBB681:
 1618              	.LBB680:
 1619              		.loc 8 72 19 view .LVU402
 1620 0058 0870     		strb	r0, [r1]
 1621              	.LVL126:
 1622              		.loc 8 72 19 view .LVU403
 1623              	.LBE680:
 1624              	.LBE681:
 198:takshaka.cpp  **** 			break;
 1625              		.loc 16 198 4 is_stmt 1 view .LVU404
 198:takshaka.cpp  **** 			break;
 1626              		.loc 16 198 17 is_stmt 0 view .LVU405
 1627 005a 1A60     		str	r2, [r3]
 199:takshaka.cpp  **** 		case 3:
 1628              		.loc 16 199 4 is_stmt 1 view .LVU406
 1629              		.loc 16 212 1 is_stmt 0 view .LVU407
 1630 005c 08BD     		pop	{r3, pc}
 1631              	.L51:
 200:takshaka.cpp  **** 			subOsc.SetWaveform( subOsc.WAVE_POLYBLEP_TRI );
 1632              		.loc 16 200 3 is_stmt 1 view .LVU408
 201:takshaka.cpp  **** 			subOscOctave = 2;
 1633              		.loc 16 201 4 view .LVU409
 1634              	.LVL127:
 1635              	.LBB682:
 1636              	.LBI682:
  70:../../DaisySP//Source/Synthesis/oscillator.h ****     {
 1637              		.loc 8 70 17 view .LVU410
 1638              	.LBB683:
 1639              		.loc 8 72 9 view .LVU411
 1640              		.loc 8 72 19 is_stmt 0 view .LVU412
 1641 005e 0849     		ldr	r1, .L56+4
 1642 0060 0520     		movs	r0, #5
 1643              	.LBE683:
 1644              	.LBE682:
 202:takshaka.cpp  **** 			break;
 1645              		.loc 16 202 17 view .LVU413
 1646 0062 084B     		ldr	r3, .L56+8
 1647 0064 0222     		movs	r2, #2
 1648              	.LBB685:
 1649              	.LBB684:
 1650              		.loc 8 72 19 view .LVU414
 1651 0066 0870     		strb	r0, [r1]
 1652              	.LVL128:
 1653              		.loc 8 72 19 view .LVU415
 1654              	.LBE684:
 1655              	.LBE685:
 202:takshaka.cpp  **** 			break;
 1656              		.loc 16 202 4 is_stmt 1 view .LVU416
ARM GAS  C:\Users\danst\AppData\Local\Temp\ccwBJjMd.s 			page 53


 202:takshaka.cpp  **** 			break;
 1657              		.loc 16 202 17 is_stmt 0 view .LVU417
 1658 0068 1A60     		str	r2, [r3]
 203:takshaka.cpp  **** 		case 4:
 1659              		.loc 16 203 4 is_stmt 1 view .LVU418
 1660              		.loc 16 212 1 is_stmt 0 view .LVU419
 1661 006a 08BD     		pop	{r3, pc}
 1662              	.L50:
 204:takshaka.cpp  **** 			subOsc.SetWaveform( subOsc.WAVE_POLYBLEP_SQUARE );
 1663              		.loc 16 204 3 is_stmt 1 view .LVU420
 205:takshaka.cpp  **** 			subOscOctave = 1;
 1664              		.loc 16 205 4 view .LVU421
 1665              	.LVL129:
 1666              	.LBB686:
 1667              	.LBI686:
  70:../../DaisySP//Source/Synthesis/oscillator.h ****     {
 1668              		.loc 8 70 17 view .LVU422
 1669              	.LBB687:
 1670              		.loc 8 72 9 view .LVU423
 1671              		.loc 8 72 19 is_stmt 0 view .LVU424
 1672 006c 0449     		ldr	r1, .L56+4
 1673 006e 0720     		movs	r0, #7
 1674              	.LBE687:
 1675              	.LBE686:
 206:takshaka.cpp  **** 			break;
 1676              		.loc 16 206 17 view .LVU425
 1677 0070 044B     		ldr	r3, .L56+8
 1678 0072 0122     		movs	r2, #1
 1679              	.LBB689:
 1680              	.LBB688:
 1681              		.loc 8 72 19 view .LVU426
 1682 0074 0870     		strb	r0, [r1]
 1683              	.LVL130:
 1684              		.loc 8 72 19 view .LVU427
 1685              	.LBE688:
 1686              	.LBE689:
 206:takshaka.cpp  **** 			break;
 1687              		.loc 16 206 4 is_stmt 1 view .LVU428
 206:takshaka.cpp  **** 			break;
 1688              		.loc 16 206 17 is_stmt 0 view .LVU429
 1689 0076 1A60     		str	r2, [r3]
 207:takshaka.cpp  **** 		case 5:
 1690              		.loc 16 207 4 is_stmt 1 view .LVU430
 1691              		.loc 16 212 1 is_stmt 0 view .LVU431
 1692 0078 08BD     		pop	{r3, pc}
 1693              	.L57:
 1694 007a 00BF     		.align	2
 1695              	.L56:
 1696 007c 00000000 		.word	.LANCHOR22
 1697 0080 00000000 		.word	.LANCHOR7
 1698 0084 00000000 		.word	.LANCHOR32
 1699              		.cfi_endproc
 1700              	.LFE4791:
 1702              		.section	.text._Z7initADCv,"ax",%progbits
 1703              		.align	1
 1704              		.p2align 2,,3
 1705              		.global	_Z7initADCv
ARM GAS  C:\Users\danst\AppData\Local\Temp\ccwBJjMd.s 			page 54


 1706              		.syntax unified
 1707              		.thumb
 1708              		.thumb_func
 1709              		.fpu fpv5-d16
 1711              	_Z7initADCv:
 1712              	.LFB4792:
 213:takshaka.cpp  **** void initADC(){
 1713              		.loc 16 213 15 is_stmt 1 view -0
 1714              		.cfi_startproc
 1715              		@ args = 0, pretend = 0, frame = 256
 1716              		@ frame_needed = 0, uses_anonymous_args = 0
 214:takshaka.cpp  **** 	AdcChannelConfig adcConfig[ ADC_CHANNELS_COUNT ];
 1717              		.loc 16 214 2 view .LVU433
 215:takshaka.cpp  ****     adcConfig[ driftKnob ].InitSingle( daisy::seed::A0 );
 1718              		.loc 16 215 5 view .LVU434
 1719              	.LVL131:
 1720              	.LBB690:
 1721              	.LBI690:
 1722              		.file 18 "../../libDaisy//src/daisy_core.h"
   1:../../libDaisy//src/daisy_core.h **** #pragma once
   2:../../libDaisy//src/daisy_core.h **** #ifndef DSY_CORE_HW_H
   3:../../libDaisy//src/daisy_core.h **** #define DSY_CORE_HW_H /**< & */
   4:../../libDaisy//src/daisy_core.h **** #include <stdint.h>
   5:../../libDaisy//src/daisy_core.h **** #include <stdlib.h>
   6:../../libDaisy//src/daisy_core.h **** 
   7:../../libDaisy//src/daisy_core.h **** #if defined(_MSC_VER)
   8:../../libDaisy//src/daisy_core.h **** #define FORCE_INLINE __forceinline /**< & */
   9:../../libDaisy//src/daisy_core.h **** #elif defined(__clang__)
  10:../../libDaisy//src/daisy_core.h **** #define FORCE_INLINE inline __attribute__((always_inline)) /**< & */
  11:../../libDaisy//src/daisy_core.h **** #pragma clang diagnostic ignored "-Wduplicate-decl-specifier"
  12:../../libDaisy//src/daisy_core.h **** #elif defined(__GNUC__)
  13:../../libDaisy//src/daisy_core.h **** #define FORCE_INLINE inline __attribute__((always_inline)) /**< & */
  14:../../libDaisy//src/daisy_core.h **** #else
  15:../../libDaisy//src/daisy_core.h **** #error unknown compiler
  16:../../libDaisy//src/daisy_core.h **** #endif
  17:../../libDaisy//src/daisy_core.h **** 
  18:../../libDaisy//src/daisy_core.h **** /** @addtogroup utility
  19:../../libDaisy//src/daisy_core.h ****     @{
  20:../../libDaisy//src/daisy_core.h **** */
  21:../../libDaisy//src/daisy_core.h **** 
  22:../../libDaisy//src/daisy_core.h **** /** Macro for area of memory that is configured as cacheless
  23:../../libDaisy//src/daisy_core.h **** This should be used primarily for DMA buffers, and the like.
  24:../../libDaisy//src/daisy_core.h **** */
  25:../../libDaisy//src/daisy_core.h **** #define DMA_BUFFER_MEM_SECTION __attribute__((section(".sram1_bss")))
  26:../../libDaisy//src/daisy_core.h **** /** 
  27:../../libDaisy//src/daisy_core.h **** THE DTCM RAM section is also non-cached. However, is not suitable 
  28:../../libDaisy//src/daisy_core.h **** for DMA transfers. Performance is on par with internal SRAM w/ 
  29:../../libDaisy//src/daisy_core.h **** cache enabled.
  30:../../libDaisy//src/daisy_core.h **** */
  31:../../libDaisy//src/daisy_core.h **** #define DTCM_MEM_SECTION __attribute__((section(".dtcmram_bss")))
  32:../../libDaisy//src/daisy_core.h **** 
  33:../../libDaisy//src/daisy_core.h **** #define FBIPMAX 0.999985f             /**< close to 1.0f-LSB at 16 bit */
  34:../../libDaisy//src/daisy_core.h **** #define FBIPMIN (-FBIPMAX)            /**< - (1 - LSB) */
  35:../../libDaisy//src/daisy_core.h **** #define U82F_SCALE 0.0078740f         /**< 1 / 127 */
  36:../../libDaisy//src/daisy_core.h **** #define F2U8_SCALE 127.0f             /**< 128 - 1 */
  37:../../libDaisy//src/daisy_core.h **** #define S82F_SCALE 0.0078125f         /**< 1 / (2**7) */
  38:../../libDaisy//src/daisy_core.h **** #define F2S8_SCALE 127.0f             /**< (2 ** 7) - 1 */
ARM GAS  C:\Users\danst\AppData\Local\Temp\ccwBJjMd.s 			page 55


  39:../../libDaisy//src/daisy_core.h **** #define S162F_SCALE 3.0517578125e-05f /**< 1 / (2** 15) */
  40:../../libDaisy//src/daisy_core.h **** #define F2S16_SCALE 32767.0f          /**< (2 ** 15) - 1 */
  41:../../libDaisy//src/daisy_core.h **** #define F2S24_SCALE 8388608.0f        /**< 2 ** 23 */
  42:../../libDaisy//src/daisy_core.h **** #define S242F_SCALE 1.192092896e-07f  /**< 1 / (2 ** 23) */
  43:../../libDaisy//src/daisy_core.h **** #define S24SIGN 0x800000              /**< 2 ** 23 */
  44:../../libDaisy//src/daisy_core.h **** #define S322F_SCALE 4.6566129e-10f    /**< 1 / (2** 31) */
  45:../../libDaisy//src/daisy_core.h **** #define F2S32_SCALE 2147483647.f      /**< (2 ** 31) - 1 */
  46:../../libDaisy//src/daisy_core.h **** 
  47:../../libDaisy//src/daisy_core.h **** 
  48:../../libDaisy//src/daisy_core.h **** /** shorthand macro for simplifying the reading of the left 
  49:../../libDaisy//src/daisy_core.h ****  *  channel of a non-interleaved output buffer named out */
  50:../../libDaisy//src/daisy_core.h **** #define OUT_L out[0]
  51:../../libDaisy//src/daisy_core.h **** 
  52:../../libDaisy//src/daisy_core.h **** /** shorthand macro for simplifying the reading of the right 
  53:../../libDaisy//src/daisy_core.h ****  *  channel of a non-interleaved output buffer named out */
  54:../../libDaisy//src/daisy_core.h **** #define OUT_R out[1]
  55:../../libDaisy//src/daisy_core.h **** 
  56:../../libDaisy//src/daisy_core.h **** /** shorthand macro for simplifying the reading of the left 
  57:../../libDaisy//src/daisy_core.h ****  *  channel of a non-interleaved input buffer named in */
  58:../../libDaisy//src/daisy_core.h **** #define IN_L in[0]
  59:../../libDaisy//src/daisy_core.h **** 
  60:../../libDaisy//src/daisy_core.h **** /** shorthand macro for simplifying the reading of the right 
  61:../../libDaisy//src/daisy_core.h ****  *  channel of a non-interleaved input buffer named in */
  62:../../libDaisy//src/daisy_core.h **** #define IN_R in[1]
  63:../../libDaisy//src/daisy_core.h **** 
  64:../../libDaisy//src/daisy_core.h **** /** 
  65:../../libDaisy//src/daisy_core.h ****     Computes cube.
  66:../../libDaisy//src/daisy_core.h ****     \param x Number to be cubed
  67:../../libDaisy//src/daisy_core.h ****     \return x ^ 3
  68:../../libDaisy//src/daisy_core.h **** */
  69:../../libDaisy//src/daisy_core.h **** FORCE_INLINE float cube(float x)
  70:../../libDaisy//src/daisy_core.h **** {
  71:../../libDaisy//src/daisy_core.h ****     return (x * x) * x;
  72:../../libDaisy//src/daisy_core.h **** }
  73:../../libDaisy//src/daisy_core.h **** 
  74:../../libDaisy//src/daisy_core.h **** /** 
  75:../../libDaisy//src/daisy_core.h ****     Converts unsigned 8-bit to float
  76:../../libDaisy//src/daisy_core.h ****     \param x Number to be scaled.
  77:../../libDaisy//src/daisy_core.h ****     \return Scaled number.
  78:../../libDaisy//src/daisy_core.h **** */
  79:../../libDaisy//src/daisy_core.h **** FORCE_INLINE float u82f(uint8_t x)
  80:../../libDaisy//src/daisy_core.h **** {
  81:../../libDaisy//src/daisy_core.h ****     return ((float)x - 127.f) * U82F_SCALE;
  82:../../libDaisy//src/daisy_core.h **** }
  83:../../libDaisy//src/daisy_core.h **** 
  84:../../libDaisy//src/daisy_core.h **** /**
  85:../../libDaisy//src/daisy_core.h ****     Converts float to unsigned 8-bit
  86:../../libDaisy//src/daisy_core.h **** */
  87:../../libDaisy//src/daisy_core.h **** FORCE_INLINE uint8_t f2u8(float x)
  88:../../libDaisy//src/daisy_core.h **** {
  89:../../libDaisy//src/daisy_core.h ****     x = x <= FBIPMIN ? FBIPMIN : x;
  90:../../libDaisy//src/daisy_core.h ****     x = x >= FBIPMAX ? FBIPMAX : x;
  91:../../libDaisy//src/daisy_core.h ****     return (uint8_t)((x * F2U8_SCALE) + F2U8_SCALE);
  92:../../libDaisy//src/daisy_core.h **** }
  93:../../libDaisy//src/daisy_core.h **** 
  94:../../libDaisy//src/daisy_core.h **** 
  95:../../libDaisy//src/daisy_core.h **** /** 
ARM GAS  C:\Users\danst\AppData\Local\Temp\ccwBJjMd.s 			page 56


  96:../../libDaisy//src/daisy_core.h ****     Converts Signed 8-bit to float
  97:../../libDaisy//src/daisy_core.h ****     \param x Number to be scaled.
  98:../../libDaisy//src/daisy_core.h ****     \return Scaled number.
  99:../../libDaisy//src/daisy_core.h **** */
 100:../../libDaisy//src/daisy_core.h **** FORCE_INLINE float s82f(int8_t x)
 101:../../libDaisy//src/daisy_core.h **** {
 102:../../libDaisy//src/daisy_core.h ****     return (float)x * S82F_SCALE;
 103:../../libDaisy//src/daisy_core.h **** }
 104:../../libDaisy//src/daisy_core.h **** 
 105:../../libDaisy//src/daisy_core.h **** /**
 106:../../libDaisy//src/daisy_core.h ****     Converts float to Signed 8-bit
 107:../../libDaisy//src/daisy_core.h **** */
 108:../../libDaisy//src/daisy_core.h **** FORCE_INLINE int8_t f2s8(float x)
 109:../../libDaisy//src/daisy_core.h **** {
 110:../../libDaisy//src/daisy_core.h ****     x = x <= FBIPMIN ? FBIPMIN : x;
 111:../../libDaisy//src/daisy_core.h ****     x = x >= FBIPMAX ? FBIPMAX : x;
 112:../../libDaisy//src/daisy_core.h ****     return (int32_t)(x * F2S8_SCALE);
 113:../../libDaisy//src/daisy_core.h **** }
 114:../../libDaisy//src/daisy_core.h **** 
 115:../../libDaisy//src/daisy_core.h **** /** 
 116:../../libDaisy//src/daisy_core.h ****     Converts Signed 16-bit to float
 117:../../libDaisy//src/daisy_core.h ****     \param x Number to be scaled.
 118:../../libDaisy//src/daisy_core.h ****     \return Scaled number.
 119:../../libDaisy//src/daisy_core.h **** */
 120:../../libDaisy//src/daisy_core.h **** FORCE_INLINE float s162f(int16_t x)
 121:../../libDaisy//src/daisy_core.h **** {
 122:../../libDaisy//src/daisy_core.h ****     return (float)x * S162F_SCALE;
 123:../../libDaisy//src/daisy_core.h **** }
 124:../../libDaisy//src/daisy_core.h **** 
 125:../../libDaisy//src/daisy_core.h **** /**
 126:../../libDaisy//src/daisy_core.h ****     Converts float to Signed 16-bit
 127:../../libDaisy//src/daisy_core.h **** */
 128:../../libDaisy//src/daisy_core.h **** FORCE_INLINE int16_t f2s16(float x)
 129:../../libDaisy//src/daisy_core.h **** {
 130:../../libDaisy//src/daisy_core.h ****     x = x <= FBIPMIN ? FBIPMIN : x;
 131:../../libDaisy//src/daisy_core.h ****     x = x >= FBIPMAX ? FBIPMAX : x;
 132:../../libDaisy//src/daisy_core.h ****     return (int32_t)(x * F2S16_SCALE);
 133:../../libDaisy//src/daisy_core.h **** }
 134:../../libDaisy//src/daisy_core.h **** 
 135:../../libDaisy//src/daisy_core.h **** /**
 136:../../libDaisy//src/daisy_core.h ****     Converts Signed 24-bit to float
 137:../../libDaisy//src/daisy_core.h ****  */
 138:../../libDaisy//src/daisy_core.h **** FORCE_INLINE float s242f(int32_t x)
 139:../../libDaisy//src/daisy_core.h **** {
 140:../../libDaisy//src/daisy_core.h ****     x = (x ^ S24SIGN) - S24SIGN; //sign extend aka ((x<<8)>>8)
 141:../../libDaisy//src/daisy_core.h ****     return (float)x * S242F_SCALE;
 142:../../libDaisy//src/daisy_core.h **** }
 143:../../libDaisy//src/daisy_core.h **** /**
 144:../../libDaisy//src/daisy_core.h ****     Converts float to Signed 24-bit
 145:../../libDaisy//src/daisy_core.h ****  */
 146:../../libDaisy//src/daisy_core.h **** FORCE_INLINE int32_t f2s24(float x)
 147:../../libDaisy//src/daisy_core.h **** {
 148:../../libDaisy//src/daisy_core.h ****     x = x <= FBIPMIN ? FBIPMIN : x;
 149:../../libDaisy//src/daisy_core.h ****     x = x >= FBIPMAX ? FBIPMAX : x;
 150:../../libDaisy//src/daisy_core.h ****     return (int32_t)(x * F2S24_SCALE);
 151:../../libDaisy//src/daisy_core.h **** }
 152:../../libDaisy//src/daisy_core.h **** 
ARM GAS  C:\Users\danst\AppData\Local\Temp\ccwBJjMd.s 			page 57


 153:../../libDaisy//src/daisy_core.h **** /**
 154:../../libDaisy//src/daisy_core.h ****     Converts Signed 32-bit to float
 155:../../libDaisy//src/daisy_core.h ****  */
 156:../../libDaisy//src/daisy_core.h **** FORCE_INLINE float s322f(int32_t x)
 157:../../libDaisy//src/daisy_core.h **** {
 158:../../libDaisy//src/daisy_core.h ****     return (float)x * S322F_SCALE;
 159:../../libDaisy//src/daisy_core.h **** }
 160:../../libDaisy//src/daisy_core.h **** /**
 161:../../libDaisy//src/daisy_core.h ****     Converts float to Signed 24-bit
 162:../../libDaisy//src/daisy_core.h ****  */
 163:../../libDaisy//src/daisy_core.h **** FORCE_INLINE int32_t f2s32(float x)
 164:../../libDaisy//src/daisy_core.h **** {
 165:../../libDaisy//src/daisy_core.h ****     x = x <= FBIPMIN ? FBIPMIN : x;
 166:../../libDaisy//src/daisy_core.h ****     x = x >= FBIPMAX ? FBIPMAX : x;
 167:../../libDaisy//src/daisy_core.h ****     return (int32_t)(x * F2S32_SCALE);
 168:../../libDaisy//src/daisy_core.h **** }
 169:../../libDaisy//src/daisy_core.h **** 
 170:../../libDaisy//src/daisy_core.h **** 
 171:../../libDaisy//src/daisy_core.h **** /** Enums and a simple struct for defining a hardware pin on the MCU
 172:../../libDaisy//src/daisy_core.h ****  *  These correlate with the stm32 datasheet, and are used to configure
 173:../../libDaisy//src/daisy_core.h ****  *  the hardware.
 174:../../libDaisy//src/daisy_core.h ****  * 
 175:../../libDaisy//src/daisy_core.h ****  *  This along with the dsy_gpio_pin class should no longer be used.
 176:../../libDaisy//src/daisy_core.h ****  *  They are available for backwards compatability. 
 177:../../libDaisy//src/daisy_core.h ****  * 
 178:../../libDaisy//src/daisy_core.h ****  *  Please use GPIOPort enum and the Pin struct instead.
 179:../../libDaisy//src/daisy_core.h ****  */
 180:../../libDaisy//src/daisy_core.h **** typedef enum
 181:../../libDaisy//src/daisy_core.h **** {
 182:../../libDaisy//src/daisy_core.h ****     DSY_GPIOA, /**< & */
 183:../../libDaisy//src/daisy_core.h ****     DSY_GPIOB, /**< & */
 184:../../libDaisy//src/daisy_core.h ****     DSY_GPIOC, /**< & */
 185:../../libDaisy//src/daisy_core.h ****     DSY_GPIOD, /**< & */
 186:../../libDaisy//src/daisy_core.h ****     DSY_GPIOE, /**< & */
 187:../../libDaisy//src/daisy_core.h ****     DSY_GPIOF, /**< & */
 188:../../libDaisy//src/daisy_core.h ****     DSY_GPIOG, /**< & */
 189:../../libDaisy//src/daisy_core.h ****     DSY_GPIOH, /**< & */
 190:../../libDaisy//src/daisy_core.h ****     DSY_GPIOI, /**< & */
 191:../../libDaisy//src/daisy_core.h ****     DSY_GPIOJ, /**< & */
 192:../../libDaisy//src/daisy_core.h ****     DSY_GPIOK, /**< & */
 193:../../libDaisy//src/daisy_core.h ****     DSY_GPIOX, /** This is a non-existant port for unsupported bits of hardware. */
 194:../../libDaisy//src/daisy_core.h ****     DSY_GPIO_LAST, /** Final enum member */
 195:../../libDaisy//src/daisy_core.h **** } dsy_gpio_port;
 196:../../libDaisy//src/daisy_core.h **** 
 197:../../libDaisy//src/daisy_core.h **** /** Hardware define pins 
 198:../../libDaisy//src/daisy_core.h ****  *  
 199:../../libDaisy//src/daisy_core.h ****  *  The dsy_gpio_pin struct should no longer be used, and is only available for
 200:../../libDaisy//src/daisy_core.h ****  *  backwards compatability.
 201:../../libDaisy//src/daisy_core.h ****  * 
 202:../../libDaisy//src/daisy_core.h ****  *  Please use Pin struct instead.
 203:../../libDaisy//src/daisy_core.h ****  */
 204:../../libDaisy//src/daisy_core.h **** typedef struct
 205:../../libDaisy//src/daisy_core.h **** {
 206:../../libDaisy//src/daisy_core.h ****     dsy_gpio_port port; /**< & */
 207:../../libDaisy//src/daisy_core.h ****     uint8_t       pin;  /**< number 0-15 */
 208:../../libDaisy//src/daisy_core.h **** } dsy_gpio_pin;
 209:../../libDaisy//src/daisy_core.h **** 
ARM GAS  C:\Users\danst\AppData\Local\Temp\ccwBJjMd.s 			page 58


 210:../../libDaisy//src/daisy_core.h **** /** Helper for creating pins from port/pin combos easily
 211:../../libDaisy//src/daisy_core.h ****  * 
 212:../../libDaisy//src/daisy_core.h ****  *  The dsy_gpio_pin struct should no longer be used, and is only available for
 213:../../libDaisy//src/daisy_core.h ****  *  backwards compatability.
 214:../../libDaisy//src/daisy_core.h ****  * 
 215:../../libDaisy//src/daisy_core.h ****  *  Please use Pin struct instead.
 216:../../libDaisy//src/daisy_core.h **** */
 217:../../libDaisy//src/daisy_core.h **** FORCE_INLINE dsy_gpio_pin dsy_pin(dsy_gpio_port port, uint8_t pin)
 218:../../libDaisy//src/daisy_core.h **** {
 219:../../libDaisy//src/daisy_core.h ****     dsy_gpio_pin p;
 220:../../libDaisy//src/daisy_core.h ****     p.port = port;
 221:../../libDaisy//src/daisy_core.h ****     p.pin  = pin;
 222:../../libDaisy//src/daisy_core.h ****     return p;
 223:../../libDaisy//src/daisy_core.h **** }
 224:../../libDaisy//src/daisy_core.h **** 
 225:../../libDaisy//src/daisy_core.h **** /** Helper for testing sameness of two dsy_gpio_pins
 226:../../libDaisy//src/daisy_core.h ****  *  \return    1 if same, 0 if different
 227:../../libDaisy//src/daisy_core.h ****  * 
 228:../../libDaisy//src/daisy_core.h ****  *  The dsy_gpio_pin struct should no longer be used, and is only available for
 229:../../libDaisy//src/daisy_core.h ****  *  backwards compatability.
 230:../../libDaisy//src/daisy_core.h ****  * 
 231:../../libDaisy//src/daisy_core.h ****  *  Please use Pin struct instead.
 232:../../libDaisy//src/daisy_core.h ****  */
 233:../../libDaisy//src/daisy_core.h **** FORCE_INLINE uint8_t dsy_pin_cmp(dsy_gpio_pin *a, dsy_gpio_pin *b)
 234:../../libDaisy//src/daisy_core.h **** {
 235:../../libDaisy//src/daisy_core.h ****     return ((a->port == b->port) && (a->pin == b->pin));
 236:../../libDaisy//src/daisy_core.h **** }
 237:../../libDaisy//src/daisy_core.h **** 
 238:../../libDaisy//src/daisy_core.h **** #ifdef __cplusplus
 239:../../libDaisy//src/daisy_core.h **** 
 240:../../libDaisy//src/daisy_core.h **** namespace daisy
 241:../../libDaisy//src/daisy_core.h **** {
 242:../../libDaisy//src/daisy_core.h **** /** @brief GPIO Port names */
 243:../../libDaisy//src/daisy_core.h **** enum GPIOPort
 244:../../libDaisy//src/daisy_core.h **** {
 245:../../libDaisy//src/daisy_core.h ****     PORTA, /**< Port A */
 246:../../libDaisy//src/daisy_core.h ****     PORTB, /**< Port B */
 247:../../libDaisy//src/daisy_core.h ****     PORTC, /**< Port C */
 248:../../libDaisy//src/daisy_core.h ****     PORTD, /**< Port D */
 249:../../libDaisy//src/daisy_core.h ****     PORTE, /**< Port E */
 250:../../libDaisy//src/daisy_core.h ****     PORTF, /**< Port F */
 251:../../libDaisy//src/daisy_core.h ****     PORTG, /**< Port G */
 252:../../libDaisy//src/daisy_core.h ****     PORTH, /**< Port H */
 253:../../libDaisy//src/daisy_core.h ****     PORTI, /**< Port I */
 254:../../libDaisy//src/daisy_core.h ****     PORTJ, /**< Port J */
 255:../../libDaisy//src/daisy_core.h ****     PORTK, /**< Port K */
 256:../../libDaisy//src/daisy_core.h ****     PORTX, /**< Used as a dummy port to signal an invalid pin. */
 257:../../libDaisy//src/daisy_core.h **** };
 258:../../libDaisy//src/daisy_core.h **** 
 259:../../libDaisy//src/daisy_core.h **** /** @brief representation of hardware port/pin combination */
 260:../../libDaisy//src/daisy_core.h **** struct Pin
 261:../../libDaisy//src/daisy_core.h **** {
 262:../../libDaisy//src/daisy_core.h ****     GPIOPort port;
 263:../../libDaisy//src/daisy_core.h ****     uint8_t  pin;
 264:../../libDaisy//src/daisy_core.h **** 
 265:../../libDaisy//src/daisy_core.h ****     /** @brief Constructor creates a valid pin. 
 266:../../libDaisy//src/daisy_core.h ****      *  @param pt GPIOPort between PA, and PK corresponding to STM32 Port.
ARM GAS  C:\Users\danst\AppData\Local\Temp\ccwBJjMd.s 			page 59


 267:../../libDaisy//src/daisy_core.h ****      *  @param pn pin number in range of 0-15
 268:../../libDaisy//src/daisy_core.h ****     */
 269:../../libDaisy//src/daisy_core.h ****     constexpr Pin(const GPIOPort pt, const uint8_t pn) : port(pt), pin(pn) {}
 270:../../libDaisy//src/daisy_core.h **** 
 271:../../libDaisy//src/daisy_core.h ****     /** @brief Basic Constructor creates an invalid Pin object */
 272:../../libDaisy//src/daisy_core.h ****     constexpr Pin() : port(PORTX), pin(255) {}
 273:../../libDaisy//src/daisy_core.h **** 
 274:../../libDaisy//src/daisy_core.h ****     /** @brief checks validity of a Pin 
 275:../../libDaisy//src/daisy_core.h ****      *  @retval returns true if the port is a valid hardware pin, otherwise false.
 276:../../libDaisy//src/daisy_core.h ****     */
 277:../../libDaisy//src/daisy_core.h ****     constexpr bool IsValid() const { return port != PORTX && pin < 16; }
 278:../../libDaisy//src/daisy_core.h **** 
 279:../../libDaisy//src/daisy_core.h ****     /** @brief comparison operator for checking equality between Pin objects */
 280:../../libDaisy//src/daisy_core.h ****     constexpr bool operator==(const Pin &rhs) const
 281:../../libDaisy//src/daisy_core.h ****     {
 282:../../libDaisy//src/daisy_core.h ****         return (rhs.port == port) && (rhs.pin == pin);
 283:../../libDaisy//src/daisy_core.h ****     }
 284:../../libDaisy//src/daisy_core.h **** 
 285:../../libDaisy//src/daisy_core.h ****     /** @brief comparison operator for checking inequality between Pin objects */
 286:../../libDaisy//src/daisy_core.h ****     constexpr bool operator!=(const Pin &rhs) const { return !operator==(rhs); }
 287:../../libDaisy//src/daisy_core.h **** 
 288:../../libDaisy//src/daisy_core.h ****     /** @brief conversion operation for converting to the old-style representation
 289:../../libDaisy//src/daisy_core.h ****      *         of a pin.
 290:../../libDaisy//src/daisy_core.h ****      * 
 291:../../libDaisy//src/daisy_core.h ****      *  This allows the new Pin type to be used in place of the older, dsy_gpio_pin
 292:../../libDaisy//src/daisy_core.h ****      *  type.
 293:../../libDaisy//src/daisy_core.h ****      */
 294:../../libDaisy//src/daisy_core.h ****     operator dsy_gpio_pin() const
 1723              		.loc 18 294 5 view .LVU435
 1724              	.LBE690:
 295:../../libDaisy//src/daisy_core.h ****     {
 296:../../libDaisy//src/daisy_core.h ****         return dsy_pin(static_cast<dsy_gpio_port>(port), pin);
 1725              		.loc 18 296 9 view .LVU436
 1726              	.LBB692:
 1727              	.LBB691:
 1728              	.LBI691:
 217:../../libDaisy//src/daisy_core.h **** {
 1729              		.loc 18 217 27 view .LVU437
 1730              	.LBE691:
 1731              	.LBE692:
 219:../../libDaisy//src/daisy_core.h ****     p.port = port;
 1732              		.loc 18 219 5 view .LVU438
 220:../../libDaisy//src/daisy_core.h ****     p.pin  = pin;
 1733              		.loc 18 220 5 view .LVU439
 221:../../libDaisy//src/daisy_core.h ****     return p;
 1734              		.loc 18 221 5 view .LVU440
 222:../../libDaisy//src/daisy_core.h **** }
 1735              		.loc 18 222 5 view .LVU441
 213:takshaka.cpp  **** 	AdcChannelConfig adcConfig[ ADC_CHANNELS_COUNT ];
 1736              		.loc 16 213 15 is_stmt 0 view .LVU442
 1737 0000 F0B5     		push	{r4, r5, r6, r7, lr}
 1738              		.cfi_def_cfa_offset 20
 1739              		.cfi_offset 4, -20
 1740              		.cfi_offset 5, -16
 1741              		.cfi_offset 6, -12
 1742              		.cfi_offset 7, -8
 1743              		.cfi_offset 14, -4
ARM GAS  C:\Users\danst\AppData\Local\Temp\ccwBJjMd.s 			page 60


 1744 0002 0024     		movs	r4, #0
 1745 0004 C1B0     		sub	sp, sp, #260
 1746              		.cfi_def_cfa_offset 280
 1747 0006 0225     		movs	r5, #2
 1748 0008 0126     		movs	r6, #1
 1749 000a 8DF80540 		strb	r4, [sp, #5]
 1750              	.LVL132:
 1751              		.loc 16 215 38 view .LVU443
 1752 000e 0DA8     		add	r0, sp, #52
 1753 0010 8DF80450 		strb	r5, [sp, #4]
 1754 0014 0427     		movs	r7, #4
 1755 0016 0199     		ldr	r1, [sp, #4]
 1756 0018 FFF7FEFF 		bl	_ZN5daisy16AdcChannelConfig10InitSingleE12dsy_gpio_pin
 1757              	.LVL133:
 216:takshaka.cpp  ****     adcConfig[ shiftKnob ].InitSingle( daisy::seed::A1 );
 1758              		.loc 16 216 5 is_stmt 1 view .LVU444
 1759              	.LBB693:
 1760              	.LBI693:
 294:../../libDaisy//src/daisy_core.h ****     {
 1761              		.loc 18 294 5 view .LVU445
 1762              	.LBE693:
 1763              		.loc 18 296 9 view .LVU446
 1764              	.LBB695:
 1765              	.LBB694:
 1766              	.LBI694:
 217:../../libDaisy//src/daisy_core.h **** {
 1767              		.loc 18 217 27 view .LVU447
 1768              	.LBE694:
 1769              	.LBE695:
 219:../../libDaisy//src/daisy_core.h ****     p.port = port;
 1770              		.loc 18 219 5 view .LVU448
 220:../../libDaisy//src/daisy_core.h ****     p.pin  = pin;
 1771              		.loc 18 220 5 view .LVU449
 221:../../libDaisy//src/daisy_core.h ****     return p;
 1772              		.loc 18 221 5 view .LVU450
 222:../../libDaisy//src/daisy_core.h **** }
 1773              		.loc 18 222 5 view .LVU451
 222:../../libDaisy//src/daisy_core.h **** }
 1774              		.loc 18 222 5 is_stmt 0 view .LVU452
 1775 001c 0323     		movs	r3, #3
 1776 001e 8DF80840 		strb	r4, [sp, #8]
 1777              		.loc 16 216 38 view .LVU453
 1778 0022 0DF14500 		add	r0, sp, #69
 1779 0026 8DF80930 		strb	r3, [sp, #9]
 1780              	.LVL134:
 1781              		.loc 16 216 38 view .LVU454
 1782 002a 0299     		ldr	r1, [sp, #8]
 1783 002c FFF7FEFF 		bl	_ZN5daisy16AdcChannelConfig10InitSingleE12dsy_gpio_pin
 1784              	.LVL135:
 217:takshaka.cpp  ****     adcConfig[ growlKnob ].InitSingle( daisy::seed::A2 );
 1785              		.loc 16 217 5 is_stmt 1 view .LVU455
 1786              	.LBB696:
 1787              	.LBI696:
 294:../../libDaisy//src/daisy_core.h ****     {
 1788              		.loc 18 294 5 view .LVU456
 1789              	.LBE696:
 1790              		.loc 18 296 9 view .LVU457
ARM GAS  C:\Users\danst\AppData\Local\Temp\ccwBJjMd.s 			page 61


 1791              	.LBB698:
 1792              	.LBB697:
 1793              	.LBI697:
 217:../../libDaisy//src/daisy_core.h **** {
 1794              		.loc 18 217 27 view .LVU458
 1795              	.LBE697:
 1796              	.LBE698:
 219:../../libDaisy//src/daisy_core.h ****     p.port = port;
 1797              		.loc 18 219 5 view .LVU459
 220:../../libDaisy//src/daisy_core.h ****     p.pin  = pin;
 1798              		.loc 18 220 5 view .LVU460
 221:../../libDaisy//src/daisy_core.h ****     return p;
 1799              		.loc 18 221 5 view .LVU461
 222:../../libDaisy//src/daisy_core.h **** }
 1800              		.loc 18 222 5 view .LVU462
 222:../../libDaisy//src/daisy_core.h **** }
 1801              		.loc 18 222 5 is_stmt 0 view .LVU463
 1802 0030 8DF80C60 		strb	r6, [sp, #12]
 1803 0034 8DF80D60 		strb	r6, [sp, #13]
 1804              	.LVL136:
 1805              		.loc 16 217 38 view .LVU464
 1806 0038 0DF15600 		add	r0, sp, #86
 1807 003c 0399     		ldr	r1, [sp, #12]
 1808 003e FFF7FEFF 		bl	_ZN5daisy16AdcChannelConfig10InitSingleE12dsy_gpio_pin
 1809              	.LVL137:
 218:takshaka.cpp  ****     adcConfig[ howlKnob ].InitSingle( daisy::seed::A3 );
 1810              		.loc 16 218 5 is_stmt 1 view .LVU465
 1811              	.LBB699:
 1812              	.LBI699:
 294:../../libDaisy//src/daisy_core.h ****     {
 1813              		.loc 18 294 5 view .LVU466
 1814              	.LBE699:
 1815              		.loc 18 296 9 view .LVU467
 1816              	.LBB701:
 1817              	.LBB700:
 1818              	.LBI700:
 217:../../libDaisy//src/daisy_core.h **** {
 1819              		.loc 18 217 27 view .LVU468
 1820              	.LBE700:
 1821              	.LBE701:
 219:../../libDaisy//src/daisy_core.h ****     p.port = port;
 1822              		.loc 18 219 5 view .LVU469
 220:../../libDaisy//src/daisy_core.h ****     p.pin  = pin;
 1823              		.loc 18 220 5 view .LVU470
 221:../../libDaisy//src/daisy_core.h ****     return p;
 1824              		.loc 18 221 5 view .LVU471
 222:../../libDaisy//src/daisy_core.h **** }
 1825              		.loc 18 222 5 view .LVU472
 222:../../libDaisy//src/daisy_core.h **** }
 1826              		.loc 18 222 5 is_stmt 0 view .LVU473
 1827 0042 0723     		movs	r3, #7
 1828 0044 8DF81040 		strb	r4, [sp, #16]
 1829              		.loc 16 218 37 view .LVU474
 1830 0048 0DF16700 		add	r0, sp, #103
 1831 004c 8DF81130 		strb	r3, [sp, #17]
 1832              	.LVL138:
 1833              		.loc 16 218 37 view .LVU475
ARM GAS  C:\Users\danst\AppData\Local\Temp\ccwBJjMd.s 			page 62


 1834 0050 0499     		ldr	r1, [sp, #16]
 1835 0052 FFF7FEFF 		bl	_ZN5daisy16AdcChannelConfig10InitSingleE12dsy_gpio_pin
 1836              	.LVL139:
 219:takshaka.cpp  ****     adcConfig[ resKnob ].InitSingle( daisy::seed::A4 );
 1837              		.loc 16 219 5 is_stmt 1 view .LVU476
 1838              	.LBB702:
 1839              	.LBI702:
 294:../../libDaisy//src/daisy_core.h ****     {
 1840              		.loc 18 294 5 view .LVU477
 1841              	.LBE702:
 1842              		.loc 18 296 9 view .LVU478
 1843              	.LBB704:
 1844              	.LBB703:
 1845              	.LBI703:
 217:../../libDaisy//src/daisy_core.h **** {
 1846              		.loc 18 217 27 view .LVU479
 1847              	.LBE703:
 1848              	.LBE704:
 219:../../libDaisy//src/daisy_core.h ****     p.port = port;
 1849              		.loc 18 219 5 view .LVU480
 220:../../libDaisy//src/daisy_core.h ****     p.pin  = pin;
 1850              		.loc 18 220 5 view .LVU481
 221:../../libDaisy//src/daisy_core.h ****     return p;
 1851              		.loc 18 221 5 view .LVU482
 222:../../libDaisy//src/daisy_core.h **** }
 1852              		.loc 18 222 5 view .LVU483
 222:../../libDaisy//src/daisy_core.h **** }
 1853              		.loc 18 222 5 is_stmt 0 view .LVU484
 1854 0056 0623     		movs	r3, #6
 1855 0058 8DF81440 		strb	r4, [sp, #20]
 1856              		.loc 16 219 36 view .LVU485
 1857 005c 1EA8     		add	r0, sp, #120
 1858 005e 8DF81530 		strb	r3, [sp, #21]
 1859              	.LVL140:
 1860              		.loc 16 219 36 view .LVU486
 1861 0062 0599     		ldr	r1, [sp, #20]
 1862 0064 FFF7FEFF 		bl	_ZN5daisy16AdcChannelConfig10InitSingleE12dsy_gpio_pin
 1863              	.LVL141:
 220:takshaka.cpp  ****     adcConfig[ driveKnob ].InitSingle( daisy::seed::A5 );
 1864              		.loc 16 220 5 is_stmt 1 view .LVU487
 1865              	.LBB705:
 1866              	.LBI705:
 294:../../libDaisy//src/daisy_core.h ****     {
 1867              		.loc 18 294 5 view .LVU488
 1868              	.LBE705:
 1869              		.loc 18 296 9 view .LVU489
 1870              	.LBB707:
 1871              	.LBB706:
 1872              	.LBI706:
 217:../../libDaisy//src/daisy_core.h **** {
 1873              		.loc 18 217 27 view .LVU490
 1874              	.LBE706:
 1875              	.LBE707:
 219:../../libDaisy//src/daisy_core.h ****     p.port = port;
 1876              		.loc 18 219 5 view .LVU491
 220:../../libDaisy//src/daisy_core.h ****     p.pin  = pin;
 1877              		.loc 18 220 5 view .LVU492
ARM GAS  C:\Users\danst\AppData\Local\Temp\ccwBJjMd.s 			page 63


 221:../../libDaisy//src/daisy_core.h ****     return p;
 1878              		.loc 18 221 5 view .LVU493
 222:../../libDaisy//src/daisy_core.h **** }
 1879              		.loc 18 222 5 view .LVU494
 222:../../libDaisy//src/daisy_core.h **** }
 1880              		.loc 18 222 5 is_stmt 0 view .LVU495
 1881 0068 8DF81960 		strb	r6, [sp, #25]
 1882              	.LVL142:
 222:../../libDaisy//src/daisy_core.h **** }
 1883              		.loc 18 222 5 view .LVU496
 1884 006c 8DF81850 		strb	r5, [sp, #24]
 1885              		.loc 16 220 38 view .LVU497
 1886 0070 0DF18900 		add	r0, sp, #137
 1887 0074 0699     		ldr	r1, [sp, #24]
 1888 0076 FFF7FEFF 		bl	_ZN5daisy16AdcChannelConfig10InitSingleE12dsy_gpio_pin
 1889              	.LVL143:
 221:takshaka.cpp  ****     adcConfig[ attackKnob ].InitSingle( daisy::seed::A6 );
 1890              		.loc 16 221 5 is_stmt 1 view .LVU498
 1891              	.LBB708:
 1892              	.LBI708:
 294:../../libDaisy//src/daisy_core.h ****     {
 1893              		.loc 18 294 5 view .LVU499
 1894              	.LBE708:
 1895              		.loc 18 296 9 view .LVU500
 1896              	.LBB710:
 1897              	.LBB709:
 1898              	.LBI709:
 217:../../libDaisy//src/daisy_core.h **** {
 1899              		.loc 18 217 27 view .LVU501
 1900              	.LBE709:
 1901              	.LBE710:
 219:../../libDaisy//src/daisy_core.h ****     p.port = port;
 1902              		.loc 18 219 5 view .LVU502
 220:../../libDaisy//src/daisy_core.h ****     p.pin  = pin;
 1903              		.loc 18 220 5 view .LVU503
 221:../../libDaisy//src/daisy_core.h ****     return p;
 1904              		.loc 18 221 5 view .LVU504
 222:../../libDaisy//src/daisy_core.h **** }
 1905              		.loc 18 222 5 view .LVU505
 222:../../libDaisy//src/daisy_core.h **** }
 1906              		.loc 18 222 5 is_stmt 0 view .LVU506
 1907 007a 8DF81C50 		strb	r5, [sp, #28]
 1908 007e 8DF81D70 		strb	r7, [sp, #29]
 1909              	.LVL144:
 1910              		.loc 16 221 39 view .LVU507
 1911 0082 0DF19A00 		add	r0, sp, #154
 1912 0086 0799     		ldr	r1, [sp, #28]
 1913 0088 FFF7FEFF 		bl	_ZN5daisy16AdcChannelConfig10InitSingleE12dsy_gpio_pin
 1914              	.LVL145:
 222:takshaka.cpp  ****     adcConfig[ sustainKnob ].InitSingle( daisy::seed::A7 );
 1915              		.loc 16 222 5 is_stmt 1 view .LVU508
 1916              	.LBB711:
 1917              	.LBI711:
 294:../../libDaisy//src/daisy_core.h ****     {
 1918              		.loc 18 294 5 view .LVU509
 1919              	.LBE711:
 1920              		.loc 18 296 9 view .LVU510
ARM GAS  C:\Users\danst\AppData\Local\Temp\ccwBJjMd.s 			page 64


 1921              	.LBB713:
 1922              	.LBB712:
 1923              	.LBI712:
 217:../../libDaisy//src/daisy_core.h **** {
 1924              		.loc 18 217 27 view .LVU511
 1925              	.LBE712:
 1926              	.LBE713:
 219:../../libDaisy//src/daisy_core.h ****     p.port = port;
 1927              		.loc 18 219 5 view .LVU512
 220:../../libDaisy//src/daisy_core.h ****     p.pin  = pin;
 1928              		.loc 18 220 5 view .LVU513
 221:../../libDaisy//src/daisy_core.h ****     return p;
 1929              		.loc 18 221 5 view .LVU514
 222:../../libDaisy//src/daisy_core.h **** }
 1930              		.loc 18 222 5 view .LVU515
 222:../../libDaisy//src/daisy_core.h **** }
 1931              		.loc 18 222 5 is_stmt 0 view .LVU516
 1932 008c 0523     		movs	r3, #5
 1933 008e 8DF82040 		strb	r4, [sp, #32]
 1934              		.loc 16 222 40 view .LVU517
 1935 0092 0DF1AB00 		add	r0, sp, #171
 1936 0096 8DF82130 		strb	r3, [sp, #33]
 1937              	.LVL146:
 1938              		.loc 16 222 40 view .LVU518
 1939 009a 0899     		ldr	r1, [sp, #32]
 1940 009c FFF7FEFF 		bl	_ZN5daisy16AdcChannelConfig10InitSingleE12dsy_gpio_pin
 1941              	.LVL147:
 223:takshaka.cpp  ****     adcConfig[ decayKnob ].InitSingle( daisy::seed::A8 );
 1942              		.loc 16 223 5 is_stmt 1 view .LVU519
 1943              	.LBB714:
 1944              	.LBI714:
 294:../../libDaisy//src/daisy_core.h ****     {
 1945              		.loc 18 294 5 view .LVU520
 1946              	.LBE714:
 1947              		.loc 18 296 9 view .LVU521
 1948              	.LBB716:
 1949              	.LBB715:
 1950              	.LBI715:
 217:../../libDaisy//src/daisy_core.h **** {
 1951              		.loc 18 217 27 view .LVU522
 1952              	.LBE715:
 1953              	.LBE716:
 219:../../libDaisy//src/daisy_core.h ****     p.port = port;
 1954              		.loc 18 219 5 view .LVU523
 220:../../libDaisy//src/daisy_core.h ****     p.pin  = pin;
 1955              		.loc 18 220 5 view .LVU524
 221:../../libDaisy//src/daisy_core.h ****     return p;
 1956              		.loc 18 221 5 view .LVU525
 222:../../libDaisy//src/daisy_core.h **** }
 1957              		.loc 18 222 5 view .LVU526
 222:../../libDaisy//src/daisy_core.h **** }
 1958              		.loc 18 222 5 is_stmt 0 view .LVU527
 1959 00a0 8DF82440 		strb	r4, [sp, #36]
 1960 00a4 8DF82570 		strb	r7, [sp, #37]
 1961              	.LVL148:
 1962              		.loc 16 223 38 view .LVU528
 1963 00a8 2FA8     		add	r0, sp, #188
ARM GAS  C:\Users\danst\AppData\Local\Temp\ccwBJjMd.s 			page 65


 1964 00aa 0999     		ldr	r1, [sp, #36]
 1965 00ac FFF7FEFF 		bl	_ZN5daisy16AdcChannelConfig10InitSingleE12dsy_gpio_pin
 1966              	.LVL149:
 224:takshaka.cpp  ****     adcConfig[ clawsKnob ].InitSingle( daisy::seed::A9 );
 1967              		.loc 16 224 5 is_stmt 1 view .LVU529
 1968              	.LBB717:
 1969              	.LBI717:
 294:../../libDaisy//src/daisy_core.h ****     {
 1970              		.loc 18 294 5 view .LVU530
 1971              	.LBE717:
 1972              		.loc 18 296 9 view .LVU531
 1973              	.LBB719:
 1974              	.LBB718:
 1975              	.LBI718:
 217:../../libDaisy//src/daisy_core.h **** {
 1976              		.loc 18 217 27 view .LVU532
 1977              	.LBE718:
 1978              	.LBE719:
 219:../../libDaisy//src/daisy_core.h ****     p.port = port;
 1979              		.loc 18 219 5 view .LVU533
 220:../../libDaisy//src/daisy_core.h ****     p.pin  = pin;
 1980              		.loc 18 220 5 view .LVU534
 221:../../libDaisy//src/daisy_core.h ****     return p;
 1981              		.loc 18 221 5 view .LVU535
 222:../../libDaisy//src/daisy_core.h **** }
 1982              		.loc 18 222 5 view .LVU536
 222:../../libDaisy//src/daisy_core.h **** }
 1983              		.loc 18 222 5 is_stmt 0 view .LVU537
 1984 00b0 8DF82960 		strb	r6, [sp, #41]
 1985              	.LVL150:
 222:../../libDaisy//src/daisy_core.h **** }
 1986              		.loc 18 222 5 view .LVU538
 1987 00b4 8DF82840 		strb	r4, [sp, #40]
 1988              		.loc 16 224 38 view .LVU539
 1989 00b8 0DF1CD00 		add	r0, sp, #205
 1990 00bc 0A99     		ldr	r1, [sp, #40]
 1991 00be FFF7FEFF 		bl	_ZN5daisy16AdcChannelConfig10InitSingleE12dsy_gpio_pin
 1992              	.LVL151:
 225:takshaka.cpp  ****     adcConfig[ slitherKnob ].InitSingle( daisy::seed::A10 );
 1993              		.loc 16 225 5 is_stmt 1 view .LVU540
 1994              	.LBB720:
 1995              	.LBI720:
 294:../../libDaisy//src/daisy_core.h ****     {
 1996              		.loc 18 294 5 view .LVU541
 1997              	.LBE720:
 1998              		.loc 18 296 9 view .LVU542
 1999              	.LBB722:
 2000              	.LBB721:
 2001              	.LBI721:
 217:../../libDaisy//src/daisy_core.h **** {
 2002              		.loc 18 217 27 view .LVU543
 2003              	.LBE721:
 2004              	.LBE722:
 219:../../libDaisy//src/daisy_core.h ****     p.port = port;
 2005              		.loc 18 219 5 view .LVU544
 220:../../libDaisy//src/daisy_core.h ****     p.pin  = pin;
 2006              		.loc 18 220 5 view .LVU545
ARM GAS  C:\Users\danst\AppData\Local\Temp\ccwBJjMd.s 			page 66


 221:../../libDaisy//src/daisy_core.h ****     return p;
 2007              		.loc 18 221 5 view .LVU546
 222:../../libDaisy//src/daisy_core.h **** }
 2008              		.loc 18 222 5 view .LVU547
 222:../../libDaisy//src/daisy_core.h **** }
 2009              		.loc 18 222 5 is_stmt 0 view .LVU548
 2010 00c2 8DF82C40 		strb	r4, [sp, #44]
 2011 00c6 8DF82D40 		strb	r4, [sp, #45]
 2012              	.LVL152:
 2013              		.loc 16 225 40 view .LVU549
 2014 00ca 0DF1DE00 		add	r0, sp, #222
 2015 00ce 0B99     		ldr	r1, [sp, #44]
 2016 00d0 FFF7FEFF 		bl	_ZN5daisy16AdcChannelConfig10InitSingleE12dsy_gpio_pin
 2017              	.LVL153:
 226:takshaka.cpp  ****     adcConfig[ slitherDriftModKnob ].InitSingle( daisy::seed::A11 );
 2018              		.loc 16 226 5 is_stmt 1 view .LVU550
 2019              	.LBB723:
 2020              	.LBI723:
 294:../../libDaisy//src/daisy_core.h ****     {
 2021              		.loc 18 294 5 view .LVU551
 2022              	.LBE723:
 2023              		.loc 18 296 9 view .LVU552
 2024              	.LBB725:
 2025              	.LBB724:
 2026              	.LBI724:
 217:../../libDaisy//src/daisy_core.h **** {
 2027              		.loc 18 217 27 view .LVU553
 2028              	.LBE724:
 2029              	.LBE725:
 219:../../libDaisy//src/daisy_core.h ****     p.port = port;
 2030              		.loc 18 219 5 view .LVU554
 220:../../libDaisy//src/daisy_core.h ****     p.pin  = pin;
 2031              		.loc 18 220 5 view .LVU555
 221:../../libDaisy//src/daisy_core.h ****     return p;
 2032              		.loc 18 221 5 view .LVU556
 222:../../libDaisy//src/daisy_core.h **** }
 2033              		.loc 18 222 5 view .LVU557
 227:takshaka.cpp  **** 	hw.adc.Init( adcConfig, ADC_CHANNELS_COUNT );
 2034              		.loc 16 227 13 is_stmt 0 view .LVU558
 2035 00d4 0A4E     		ldr	r6, .L60
 2036 00d6 8DF83040 		strb	r4, [sp, #48]
 226:takshaka.cpp  **** 	hw.adc.Init( adcConfig, ADC_CHANNELS_COUNT );
 2037              		.loc 16 226 48 view .LVU559
 2038 00da 0DF1EF00 		add	r0, sp, #239
 2039 00de 8DF83150 		strb	r5, [sp, #49]
 2040              	.LVL154:
 226:takshaka.cpp  **** 	hw.adc.Init( adcConfig, ADC_CHANNELS_COUNT );
 2041              		.loc 16 226 48 view .LVU560
 2042 00e2 0C99     		ldr	r1, [sp, #48]
 2043 00e4 FFF7FEFF 		bl	_ZN5daisy16AdcChannelConfig10InitSingleE12dsy_gpio_pin
 2044              	.LVL155:
 2045              		.loc 16 227 2 is_stmt 1 view .LVU561
 2046              		.loc 16 227 13 is_stmt 0 view .LVU562
 2047 00e8 3B46     		mov	r3, r7
 2048 00ea 0C22     		movs	r2, #12
 2049 00ec 0DA9     		add	r1, sp, #52
 2050 00ee 3046     		mov	r0, r6
ARM GAS  C:\Users\danst\AppData\Local\Temp\ccwBJjMd.s 			page 67


 2051 00f0 FFF7FEFF 		bl	_ZN5daisy9AdcHandle4InitEPNS_16AdcChannelConfigEjNS0_12OverSamplingE
 2052              	.LVL156:
 228:takshaka.cpp  ****     hw.adc.Start();
 2053              		.loc 16 228 5 is_stmt 1 view .LVU563
 2054              		.loc 16 228 17 is_stmt 0 view .LVU564
 2055 00f4 3046     		mov	r0, r6
 2056 00f6 FFF7FEFF 		bl	_ZN5daisy9AdcHandle5StartEv
 2057              	.LVL157:
 229:takshaka.cpp  **** }
 2058              		.loc 16 229 1 view .LVU565
 2059 00fa 41B0     		add	sp, sp, #260
 2060              		.cfi_def_cfa_offset 20
 2061              		@ sp needed
 2062 00fc F0BD     		pop	{r4, r5, r6, r7, pc}
 2063              	.L61:
 2064 00fe 00BF     		.align	2
 2065              	.L60:
 2066 0100 18000000 		.word	.LANCHOR21+24
 2067              		.cfi_endproc
 2068              	.LFE4792:
 2070              		.section	.text._Z24handleSmartKnobSwitchingv,"ax",%progbits
 2071              		.align	1
 2072              		.p2align 2,,3
 2073              		.global	_Z24handleSmartKnobSwitchingv
 2074              		.syntax unified
 2075              		.thumb
 2076              		.thumb_func
 2077              		.fpu fpv5-d16
 2079              	_Z24handleSmartKnobSwitchingv:
 2080              	.LFB4793:
 230:takshaka.cpp  **** void handleSmartKnobSwitching(){
 2081              		.loc 16 230 32 is_stmt 1 view -0
 2082              		.cfi_startproc
 2083              		@ args = 0, pretend = 0, frame = 0
 2084              		@ frame_needed = 0, uses_anonymous_args = 0
 231:takshaka.cpp  **** 	if( operationMode ){
 2085              		.loc 16 231 2 view .LVU567
 230:takshaka.cpp  **** void handleSmartKnobSwitching(){
 2086              		.loc 16 230 32 is_stmt 0 view .LVU568
 2087 0000 08B5     		push	{r3, lr}
 2088              		.cfi_def_cfa_offset 8
 2089              		.cfi_offset 3, -8
 2090              		.cfi_offset 14, -4
 2091              		.loc 16 231 2 view .LVU569
 2092 0002 2D4B     		ldr	r3, .L65
 232:takshaka.cpp  **** 		subMixSmartKnob.Activate();
 2093              		.loc 16 232 27 view .LVU570
 2094 0004 2D48     		ldr	r0, .L65+4
 231:takshaka.cpp  **** 	if( operationMode ){
 2095              		.loc 16 231 2 view .LVU571
 2096 0006 1B78     		ldrb	r3, [r3]	@ zero_extendqisi2
 2097 0008 53B3     		cbz	r3, .L63
 2098              		.loc 16 232 3 is_stmt 1 view .LVU572
 2099              		.loc 16 232 27 is_stmt 0 view .LVU573
 2100 000a FFF7FEFF 		bl	_ZN7daisysp9SmartKnob8ActivateEv
 2101              	.LVL158:
 233:takshaka.cpp  **** 		subTypeSmartKnob.Deactivate();
ARM GAS  C:\Users\danst\AppData\Local\Temp\ccwBJjMd.s 			page 68


 2102              		.loc 16 233 3 is_stmt 1 view .LVU574
 2103              		.loc 16 233 30 is_stmt 0 view .LVU575
 2104 000e 2C48     		ldr	r0, .L65+8
 2105 0010 FFF7FEFF 		bl	_ZN7daisysp9SmartKnob10DeactivateEv
 2106              	.LVL159:
 234:takshaka.cpp  **** 		filterCutoffSmartKnob.Activate();
 2107              		.loc 16 234 3 is_stmt 1 view .LVU576
 2108              		.loc 16 234 33 is_stmt 0 view .LVU577
 2109 0014 2B48     		ldr	r0, .L65+12
 2110 0016 FFF7FEFF 		bl	_ZN7daisysp9SmartKnob8ActivateEv
 2111              	.LVL160:
 235:takshaka.cpp  **** 		filterTypeSmartKnob.Deactivate();
 2112              		.loc 16 235 3 is_stmt 1 view .LVU578
 2113              		.loc 16 235 33 is_stmt 0 view .LVU579
 2114 001a 2B48     		ldr	r0, .L65+16
 2115 001c FFF7FEFF 		bl	_ZN7daisysp9SmartKnob10DeactivateEv
 2116              	.LVL161:
 236:takshaka.cpp  **** 		filterResSmartKnob.Activate();
 2117              		.loc 16 236 3 is_stmt 1 view .LVU580
 2118              		.loc 16 236 30 is_stmt 0 view .LVU581
 2119 0020 2A48     		ldr	r0, .L65+20
 2120 0022 FFF7FEFF 		bl	_ZN7daisysp9SmartKnob8ActivateEv
 2121              	.LVL162:
 237:takshaka.cpp  **** 		filterPolesSmartKnob.Deactivate();				
 2122              		.loc 16 237 3 is_stmt 1 view .LVU582
 2123              		.loc 16 237 34 is_stmt 0 view .LVU583
 2124 0026 2A48     		ldr	r0, .L65+24
 2125 0028 FFF7FEFF 		bl	_ZN7daisysp9SmartKnob10DeactivateEv
 2126              	.LVL163:
 238:takshaka.cpp  **** 		pounceAttackSmartKnob.Activate();
 2127              		.loc 16 238 3 is_stmt 1 view .LVU584
 2128              		.loc 16 238 33 is_stmt 0 view .LVU585
 2129 002c 2948     		ldr	r0, .L65+28
 2130 002e FFF7FEFF 		bl	_ZN7daisysp9SmartKnob8ActivateEv
 2131              	.LVL164:
 239:takshaka.cpp  **** 		ampEnvAttackSmartKnob.Deactivate();
 2132              		.loc 16 239 3 is_stmt 1 view .LVU586
 2133              		.loc 16 239 35 is_stmt 0 view .LVU587
 2134 0032 2948     		ldr	r0, .L65+32
 2135 0034 FFF7FEFF 		bl	_ZN7daisysp9SmartKnob10DeactivateEv
 2136              	.LVL165:
 240:takshaka.cpp  **** 		pounceSustainSmartKnob.Activate();
 2137              		.loc 16 240 3 is_stmt 1 view .LVU588
 2138              		.loc 16 240 34 is_stmt 0 view .LVU589
 2139 0038 2848     		ldr	r0, .L65+36
 2140 003a FFF7FEFF 		bl	_ZN7daisysp9SmartKnob8ActivateEv
 2141              	.LVL166:
 241:takshaka.cpp  **** 		ampEnvSustainSmartKnob.Deactivate();
 2142              		.loc 16 241 3 is_stmt 1 view .LVU590
 2143              		.loc 16 241 36 is_stmt 0 view .LVU591
 2144 003e 2848     		ldr	r0, .L65+40
 2145 0040 FFF7FEFF 		bl	_ZN7daisysp9SmartKnob10DeactivateEv
 2146              	.LVL167:
 242:takshaka.cpp  **** 		pounceDecaySmartKnob.Activate();
 2147              		.loc 16 242 3 is_stmt 1 view .LVU592
 2148              		.loc 16 242 32 is_stmt 0 view .LVU593
 2149 0044 2748     		ldr	r0, .L65+44
ARM GAS  C:\Users\danst\AppData\Local\Temp\ccwBJjMd.s 			page 69


 2150 0046 FFF7FEFF 		bl	_ZN7daisysp9SmartKnob8ActivateEv
 2151              	.LVL168:
 243:takshaka.cpp  **** 		ampEnvDecaySmartKnob.Deactivate();
 2152              		.loc 16 243 3 is_stmt 1 view .LVU594
 2153              		.loc 16 243 34 is_stmt 0 view .LVU595
 2154 004a 2748     		ldr	r0, .L65+48
 2155 004c FFF7FEFF 		bl	_ZN7daisysp9SmartKnob10DeactivateEv
 2156              	.LVL169:
 244:takshaka.cpp  **** 		ampSmartKnob.Activate();
 2157              		.loc 16 244 3 is_stmt 1 view .LVU596
 2158              		.loc 16 244 24 is_stmt 0 view .LVU597
 2159 0050 2648     		ldr	r0, .L65+52
 2160 0052 FFF7FEFF 		bl	_ZN7daisysp9SmartKnob8ActivateEv
 2161              	.LVL170:
 245:takshaka.cpp  **** 		ampEnvModSmartKnob.Deactivate();
 2162              		.loc 16 245 3 is_stmt 1 view .LVU598
 2163              		.loc 16 245 32 is_stmt 0 view .LVU599
 2164 0056 2648     		ldr	r0, .L65+56
 246:takshaka.cpp  **** 	} else {
 247:takshaka.cpp  **** 		subMixSmartKnob.Deactivate();
 248:takshaka.cpp  **** 		subTypeSmartKnob.Activate();
 249:takshaka.cpp  **** 		filterCutoffSmartKnob.Deactivate();
 250:takshaka.cpp  **** 		filterTypeSmartKnob.Activate();
 251:takshaka.cpp  **** 		filterResSmartKnob.Deactivate();
 252:takshaka.cpp  **** 		filterPolesSmartKnob.Activate();				
 253:takshaka.cpp  **** 		pounceAttackSmartKnob.Deactivate();
 254:takshaka.cpp  **** 		ampEnvAttackSmartKnob.Activate();
 255:takshaka.cpp  **** 		pounceSustainSmartKnob.Deactivate();
 256:takshaka.cpp  **** 		ampEnvSustainSmartKnob.Activate();
 257:takshaka.cpp  **** 		pounceDecaySmartKnob.Deactivate();
 258:takshaka.cpp  **** 		ampEnvDecaySmartKnob.Activate();
 259:takshaka.cpp  **** 		ampSmartKnob.Deactivate();
 260:takshaka.cpp  **** 		ampEnvModSmartKnob.Activate();
 261:takshaka.cpp  **** 	}
 262:takshaka.cpp  **** }
 2165              		.loc 16 262 1 view .LVU600
 2166 0058 BDE80840 		pop	{r3, lr}
 2167              		.cfi_remember_state
 2168              		.cfi_restore 14
 2169              		.cfi_restore 3
 2170              		.cfi_def_cfa_offset 0
 245:takshaka.cpp  **** 		ampEnvModSmartKnob.Deactivate();
 2171              		.loc 16 245 32 view .LVU601
 2172 005c FFF7FEBF 		b	_ZN7daisysp9SmartKnob10DeactivateEv
 2173              	.LVL171:
 2174              	.L63:
 2175              		.cfi_restore_state
 247:takshaka.cpp  **** 		subTypeSmartKnob.Activate();
 2176              		.loc 16 247 3 is_stmt 1 view .LVU602
 247:takshaka.cpp  **** 		subTypeSmartKnob.Activate();
 2177              		.loc 16 247 29 is_stmt 0 view .LVU603
 2178 0060 FFF7FEFF 		bl	_ZN7daisysp9SmartKnob10DeactivateEv
 2179              	.LVL172:
 248:takshaka.cpp  **** 		filterCutoffSmartKnob.Deactivate();
 2180              		.loc 16 248 3 is_stmt 1 view .LVU604
 248:takshaka.cpp  **** 		filterCutoffSmartKnob.Deactivate();
 2181              		.loc 16 248 28 is_stmt 0 view .LVU605
ARM GAS  C:\Users\danst\AppData\Local\Temp\ccwBJjMd.s 			page 70


 2182 0064 1648     		ldr	r0, .L65+8
 2183 0066 FFF7FEFF 		bl	_ZN7daisysp9SmartKnob8ActivateEv
 2184              	.LVL173:
 249:takshaka.cpp  **** 		filterTypeSmartKnob.Activate();
 2185              		.loc 16 249 3 is_stmt 1 view .LVU606
 249:takshaka.cpp  **** 		filterTypeSmartKnob.Activate();
 2186              		.loc 16 249 35 is_stmt 0 view .LVU607
 2187 006a 1648     		ldr	r0, .L65+12
 2188 006c FFF7FEFF 		bl	_ZN7daisysp9SmartKnob10DeactivateEv
 2189              	.LVL174:
 250:takshaka.cpp  **** 		filterResSmartKnob.Deactivate();
 2190              		.loc 16 250 3 is_stmt 1 view .LVU608
 250:takshaka.cpp  **** 		filterResSmartKnob.Deactivate();
 2191              		.loc 16 250 31 is_stmt 0 view .LVU609
 2192 0070 1548     		ldr	r0, .L65+16
 2193 0072 FFF7FEFF 		bl	_ZN7daisysp9SmartKnob8ActivateEv
 2194              	.LVL175:
 251:takshaka.cpp  **** 		filterPolesSmartKnob.Activate();				
 2195              		.loc 16 251 3 is_stmt 1 view .LVU610
 251:takshaka.cpp  **** 		filterPolesSmartKnob.Activate();				
 2196              		.loc 16 251 32 is_stmt 0 view .LVU611
 2197 0076 1548     		ldr	r0, .L65+20
 2198 0078 FFF7FEFF 		bl	_ZN7daisysp9SmartKnob10DeactivateEv
 2199              	.LVL176:
 252:takshaka.cpp  **** 		pounceAttackSmartKnob.Deactivate();
 2200              		.loc 16 252 3 is_stmt 1 view .LVU612
 252:takshaka.cpp  **** 		pounceAttackSmartKnob.Deactivate();
 2201              		.loc 16 252 32 is_stmt 0 view .LVU613
 2202 007c 1448     		ldr	r0, .L65+24
 2203 007e FFF7FEFF 		bl	_ZN7daisysp9SmartKnob8ActivateEv
 2204              	.LVL177:
 253:takshaka.cpp  **** 		ampEnvAttackSmartKnob.Activate();
 2205              		.loc 16 253 3 is_stmt 1 view .LVU614
 253:takshaka.cpp  **** 		ampEnvAttackSmartKnob.Activate();
 2206              		.loc 16 253 35 is_stmt 0 view .LVU615
 2207 0082 1448     		ldr	r0, .L65+28
 2208 0084 FFF7FEFF 		bl	_ZN7daisysp9SmartKnob10DeactivateEv
 2209              	.LVL178:
 254:takshaka.cpp  **** 		pounceSustainSmartKnob.Deactivate();
 2210              		.loc 16 254 3 is_stmt 1 view .LVU616
 254:takshaka.cpp  **** 		pounceSustainSmartKnob.Deactivate();
 2211              		.loc 16 254 33 is_stmt 0 view .LVU617
 2212 0088 1348     		ldr	r0, .L65+32
 2213 008a FFF7FEFF 		bl	_ZN7daisysp9SmartKnob8ActivateEv
 2214              	.LVL179:
 255:takshaka.cpp  **** 		ampEnvSustainSmartKnob.Activate();
 2215              		.loc 16 255 3 is_stmt 1 view .LVU618
 255:takshaka.cpp  **** 		ampEnvSustainSmartKnob.Activate();
 2216              		.loc 16 255 36 is_stmt 0 view .LVU619
 2217 008e 1348     		ldr	r0, .L65+36
 2218 0090 FFF7FEFF 		bl	_ZN7daisysp9SmartKnob10DeactivateEv
 2219              	.LVL180:
 256:takshaka.cpp  **** 		pounceDecaySmartKnob.Deactivate();
 2220              		.loc 16 256 3 is_stmt 1 view .LVU620
 256:takshaka.cpp  **** 		pounceDecaySmartKnob.Deactivate();
 2221              		.loc 16 256 34 is_stmt 0 view .LVU621
 2222 0094 1248     		ldr	r0, .L65+40
ARM GAS  C:\Users\danst\AppData\Local\Temp\ccwBJjMd.s 			page 71


 2223 0096 FFF7FEFF 		bl	_ZN7daisysp9SmartKnob8ActivateEv
 2224              	.LVL181:
 257:takshaka.cpp  **** 		ampEnvDecaySmartKnob.Activate();
 2225              		.loc 16 257 3 is_stmt 1 view .LVU622
 257:takshaka.cpp  **** 		ampEnvDecaySmartKnob.Activate();
 2226              		.loc 16 257 34 is_stmt 0 view .LVU623
 2227 009a 1248     		ldr	r0, .L65+44
 2228 009c FFF7FEFF 		bl	_ZN7daisysp9SmartKnob10DeactivateEv
 2229              	.LVL182:
 258:takshaka.cpp  **** 		ampSmartKnob.Deactivate();
 2230              		.loc 16 258 3 is_stmt 1 view .LVU624
 258:takshaka.cpp  **** 		ampSmartKnob.Deactivate();
 2231              		.loc 16 258 32 is_stmt 0 view .LVU625
 2232 00a0 1148     		ldr	r0, .L65+48
 2233 00a2 FFF7FEFF 		bl	_ZN7daisysp9SmartKnob8ActivateEv
 2234              	.LVL183:
 259:takshaka.cpp  **** 		ampEnvModSmartKnob.Activate();
 2235              		.loc 16 259 3 is_stmt 1 view .LVU626
 259:takshaka.cpp  **** 		ampEnvModSmartKnob.Activate();
 2236              		.loc 16 259 26 is_stmt 0 view .LVU627
 2237 00a6 1148     		ldr	r0, .L65+52
 2238 00a8 FFF7FEFF 		bl	_ZN7daisysp9SmartKnob10DeactivateEv
 2239              	.LVL184:
 260:takshaka.cpp  **** 	}
 2240              		.loc 16 260 3 is_stmt 1 view .LVU628
 260:takshaka.cpp  **** 	}
 2241              		.loc 16 260 30 is_stmt 0 view .LVU629
 2242 00ac 1048     		ldr	r0, .L65+56
 2243              		.loc 16 262 1 view .LVU630
 2244 00ae BDE80840 		pop	{r3, lr}
 2245              		.cfi_restore 14
 2246              		.cfi_restore 3
 2247              		.cfi_def_cfa_offset 0
 260:takshaka.cpp  **** 	}
 2248              		.loc 16 260 30 view .LVU631
 2249 00b2 FFF7FEBF 		b	_ZN7daisysp9SmartKnob8ActivateEv
 2250              	.LVL185:
 2251              	.L66:
 2252 00b6 00BF     		.align	2
 2253              	.L65:
 2254 00b8 00000000 		.word	.LANCHOR33
 2255 00bc 00000000 		.word	.LANCHOR6
 2256 00c0 00000000 		.word	.LANCHOR22
 2257 00c4 00000000 		.word	.LANCHOR10
 2258 00c8 00000000 		.word	.LANCHOR15
 2259 00cc 00000000 		.word	.LANCHOR23
 2260 00d0 00000000 		.word	.LANCHOR16
 2261 00d4 00000000 		.word	.LANCHOR24
 2262 00d8 00000000 		.word	.LANCHOR25
 2263 00dc 00000000 		.word	.LANCHOR26
 2264 00e0 00000000 		.word	.LANCHOR27
 2265 00e4 00000000 		.word	.LANCHOR28
 2266 00e8 00000000 		.word	.LANCHOR29
 2267 00ec 00000000 		.word	.LANCHOR19
 2268 00f0 00000000 		.word	.LANCHOR18
 2269              		.cfi_endproc
 2270              	.LFE4793:
ARM GAS  C:\Users\danst\AppData\Local\Temp\ccwBJjMd.s 			page 72


 2272              		.section	.text._Z14updateSuperSawv,"ax",%progbits
 2273              		.align	1
 2274              		.p2align 2,,3
 2275              		.global	_Z14updateSuperSawv
 2276              		.syntax unified
 2277              		.thumb
 2278              		.thumb_func
 2279              		.fpu fpv5-d16
 2281              	_Z14updateSuperSawv:
 2282              	.LFB4794:
 263:takshaka.cpp  **** void updateSuperSaw(){
 2283              		.loc 16 263 22 is_stmt 1 view -0
 2284              		.cfi_startproc
 2285              		@ args = 0, pretend = 0, frame = 0
 2286              		@ frame_needed = 0, uses_anonymous_args = 0
 264:takshaka.cpp  **** 	superSaw.SetFreq( midiFreq );
 2287              		.loc 16 264 2 view .LVU633
 263:takshaka.cpp  **** void updateSuperSaw(){
 2288              		.loc 16 263 22 is_stmt 0 view .LVU634
 2289 0000 08B5     		push	{r3, lr}
 2290              		.cfi_def_cfa_offset 8
 2291              		.cfi_offset 3, -8
 2292              		.cfi_offset 14, -4
 2293              		.loc 16 264 18 view .LVU635
 2294 0002 074B     		ldr	r3, .L69
 2295 0004 0748     		ldr	r0, .L69+4
 2296 0006 93ED000A 		vldr.32	s0, [r3]
 2297 000a FFF7FEFF 		bl	_ZN7daisysp11SuperSawOsc7SetFreqEf
 2298              	.LVL186:
 265:takshaka.cpp  **** 	superSaw.SetShift( shiftValue );
 2299              		.loc 16 265 2 is_stmt 1 view .LVU636
 2300              		.loc 16 265 19 is_stmt 0 view .LVU637
 2301 000e 064B     		ldr	r3, .L69+8
 2302 0010 0448     		ldr	r0, .L69+4
 2303 0012 93ED000A 		vldr.32	s0, [r3]
 266:takshaka.cpp  **** }
 2304              		.loc 16 266 1 view .LVU638
 2305 0016 BDE80840 		pop	{r3, lr}
 2306              		.cfi_restore 14
 2307              		.cfi_restore 3
 2308              		.cfi_def_cfa_offset 0
 265:takshaka.cpp  **** 	superSaw.SetShift( shiftValue );
 2309              		.loc 16 265 19 view .LVU639
 2310 001a FFF7FEBF 		b	_ZN7daisysp11SuperSawOsc8SetShiftEf
 2311              	.LVL187:
 2312              	.L70:
 2313 001e 00BF     		.align	2
 2314              	.L69:
 2315 0020 00000000 		.word	.LANCHOR11
 2316 0024 00000000 		.word	.LANCHOR3
 2317 0028 00000000 		.word	.LANCHOR5
 2318              		.cfi_endproc
 2319              	.LFE4794:
 2321              		.section	.text._Z12updateSubOscv,"ax",%progbits
 2322              		.align	1
 2323              		.p2align 2,,3
 2324              		.global	_Z12updateSubOscv
ARM GAS  C:\Users\danst\AppData\Local\Temp\ccwBJjMd.s 			page 73


 2325              		.syntax unified
 2326              		.thumb
 2327              		.thumb_func
 2328              		.fpu fpv5-d16
 2330              	_Z12updateSubOscv:
 2331              	.LFB4795:
 267:takshaka.cpp  **** void updateSubOsc(){
 2332              		.loc 16 267 20 is_stmt 1 view -0
 2333              		.cfi_startproc
 2334              		@ args = 0, pretend = 0, frame = 0
 2335              		@ frame_needed = 0, uses_anonymous_args = 0
 268:takshaka.cpp  **** 	subOsc.SetFreq( midiFreq / ( subOscOctave + 1 ) );
 2336              		.loc 16 268 2 view .LVU641
 2337              		.loc 16 268 44 is_stmt 0 view .LVU642
 2338 0000 0A4B     		ldr	r3, .L73
 2339              		.loc 16 268 16 view .LVU643
 2340 0002 0B4A     		ldr	r2, .L73+4
 2341              		.loc 16 268 44 view .LVU644
 2342 0004 1B68     		ldr	r3, [r3]
 2343              		.loc 16 268 16 view .LVU645
 2344 0006 92ED007A 		vldr.32	s14, [r2]
 2345              		.loc 16 268 44 view .LVU646
 2346 000a 0133     		adds	r3, r3, #1
 2347              		.loc 16 268 16 view .LVU647
 2348 000c 07EE903A 		vmov	s15, r3	@ int
 2349 0010 F8EEE77A 		vcvt.f32.s32	s15, s15
 267:takshaka.cpp  **** void updateSubOsc(){
 2350              		.loc 16 267 20 view .LVU648
 2351 0014 10B5     		push	{r4, lr}
 2352              		.cfi_def_cfa_offset 8
 2353              		.cfi_offset 4, -8
 2354              		.cfi_offset 14, -4
 2355              		.loc 16 268 16 view .LVU649
 2356 0016 87EE270A 		vdiv.f32	s0, s14, s15
 2357              	.LVL188:
 2358              	.LBB728:
 2359              	.LBI728:
  58:../../DaisySP//Source/Synthesis/oscillator.h ****     {
 2360              		.loc 8 58 17 is_stmt 1 view .LVU650
 2361              	.LBB729:
  60:../../DaisySP//Source/Synthesis/oscillator.h ****         phase_inc_ = CalcPhaseInc(f);
 2362              		.loc 8 60 9 view .LVU651
  60:../../DaisySP//Source/Synthesis/oscillator.h ****         phase_inc_ = CalcPhaseInc(f);
 2363              		.loc 8 60 20 is_stmt 0 view .LVU652
 2364 001a 064C     		ldr	r4, .L73+8
  61:../../DaisySP//Source/Synthesis/oscillator.h ****     }
 2365              		.loc 8 61 34 view .LVU653
 2366 001c 2046     		mov	r0, r4
  60:../../DaisySP//Source/Synthesis/oscillator.h ****         phase_inc_ = CalcPhaseInc(f);
 2367              		.loc 8 60 20 view .LVU654
 2368 001e 84ED020A 		vstr.32	s0, [r4, #8]
  61:../../DaisySP//Source/Synthesis/oscillator.h ****     }
 2369              		.loc 8 61 9 is_stmt 1 view .LVU655
  61:../../DaisySP//Source/Synthesis/oscillator.h ****     }
 2370              		.loc 8 61 34 is_stmt 0 view .LVU656
 2371 0022 FFF7FEFF 		bl	_ZN7daisysp10Oscillator12CalcPhaseIncEf
 2372              	.LVL189:
ARM GAS  C:\Users\danst\AppData\Local\Temp\ccwBJjMd.s 			page 74


  61:../../DaisySP//Source/Synthesis/oscillator.h ****     }
 2373              		.loc 8 61 20 view .LVU657
 2374 0026 84ED060A 		vstr.32	s0, [r4, #24]
 2375              	.LVL190:
  61:../../DaisySP//Source/Synthesis/oscillator.h ****     }
 2376              		.loc 8 61 20 view .LVU658
 2377              	.LBE729:
 2378              	.LBE728:
 269:takshaka.cpp  **** }
 2379              		.loc 16 269 1 view .LVU659
 2380 002a 10BD     		pop	{r4, pc}
 2381              	.L74:
 2382              		.align	2
 2383              	.L73:
 2384 002c 00000000 		.word	.LANCHOR32
 2385 0030 00000000 		.word	.LANCHOR11
 2386 0034 00000000 		.word	.LANCHOR7
 2387              		.cfi_endproc
 2388              	.LFE4795:
 2390              		.section	.text._Z16updateDistortionv,"ax",%progbits
 2391              		.align	1
 2392              		.p2align 2,,3
 2393              		.global	_Z16updateDistortionv
 2394              		.syntax unified
 2395              		.thumb
 2396              		.thumb_func
 2397              		.fpu fpv5-d16
 2399              	_Z16updateDistortionv:
 2400              	.LFB4796:
 270:takshaka.cpp  **** void updateDistortion(){
 2401              		.loc 16 270 24 is_stmt 1 view -0
 2402              		.cfi_startproc
 2403              		@ args = 0, pretend = 0, frame = 0
 2404              		@ frame_needed = 0, uses_anonymous_args = 0
 2405              		@ link register save eliminated.
 271:takshaka.cpp  **** 	distortion.SetDrive( fmap( driveValue, 0.25, 0.9 ) );
 2406              		.loc 16 271 2 view .LVU661
 2407              	.LVL191:
 2408              	.LBB737:
 2409              	.LBI737:
 161:../../DaisySP//Source/Utility/dsp.h **** {
 2410              		.loc 17 161 1 view .LVU662
 2411              	.LBE737:
 163:../../DaisySP//Source/Utility/dsp.h ****     {
 2412              		.loc 17 163 5 view .LVU663
 2413              	.LBB751:
 2414              	.LBB738:
 172:../../DaisySP//Source/Utility/dsp.h ****         default: return fclamp(min + in * (max - min), min, max);
 2415              		.loc 17 172 9 view .LVU664
 2416              		.loc 17 173 9 view .LVU665
 2417              		.loc 17 173 18 view .LVU666
 2418              		.loc 17 173 31 is_stmt 0 view .LVU667
 2419 0000 F5EE007A 		vmov.f32	s15, #2.5e-1
 2420              	.LBE738:
 2421              	.LBE751:
 2422              		.loc 16 271 21 view .LVU668
 2423 0004 084B     		ldr	r3, .L76
ARM GAS  C:\Users\danst\AppData\Local\Temp\ccwBJjMd.s 			page 75


 2424              	.LBB752:
 2425              	.LBB748:
 2426              		.loc 17 173 31 view .LVU669
 2427 0006 DFED096A 		vldr.32	s13, .L76+4
 2428 000a 93ED006A 		vldr.32	s12, [r3]
 2429 000e B0EE670A 		vmov.f32	s0, s15
 2430              	.LBB739:
 2431              	.LBB740:
 2432              	.LBB741:
  47:../../DaisySP//Source/Utility/dsp.h **** #else
 2433              		.loc 17 47 5 view .LVU670
 2434 0012 9FED077A 		vldr.32	s14, .L76+8
 2435              	.LBE741:
 2436              	.LBE740:
 2437              	.LBE739:
 2438              	.LBE748:
 2439              	.LBE752:
 2440              		.loc 16 271 21 view .LVU671
 2441 0016 0748     		ldr	r0, .L76+12
 2442              	.LBB753:
 2443              	.LBB749:
 2444              		.loc 17 173 31 view .LVU672
 2445 0018 A6EE260A 		vfma.f32	s0, s12, s13
 2446              	.LVL192:
 2447              	.LBB746:
 2448              	.LBI739:
  56:../../DaisySP//Source/Utility/dsp.h **** {
 2449              		.loc 17 56 14 is_stmt 1 view .LVU673
 2450              	.LBE746:
 2451              	.LBE749:
 2452              	.LBE753:
  58:../../DaisySP//Source/Utility/dsp.h **** }
 2453              		.loc 17 58 5 view .LVU674
 2454              	.LBB754:
 2455              	.LBB750:
 2456              	.LBB747:
 2457              	.LBB743:
 2458              	.LBI743:
  32:../../DaisySP//Source/Utility/dsp.h **** {
 2459              		.loc 17 32 14 view .LVU675
 2460              	.LBB744:
  34:../../DaisySP//Source/Utility/dsp.h **** #ifdef __arm__
 2461              		.loc 17 34 5 view .LVU676
  36:../../DaisySP//Source/Utility/dsp.h **** #else
 2462              		.loc 17 36 5 view .LVU677
 2463              		.syntax unified
 2464              	@ 36 "../../DaisySP//Source/Utility/dsp.h" 1
 2465 001c 80FE270A 		vmaxnm.f32 s0, s0, s15
 2466              	@ 0 "" 2
 2467              	.LVL193:
  40:../../DaisySP//Source/Utility/dsp.h **** }
 2468              		.loc 17 40 5 view .LVU678
  40:../../DaisySP//Source/Utility/dsp.h **** }
 2469              		.loc 17 40 5 is_stmt 0 view .LVU679
 2470              		.thumb
 2471              		.syntax unified
 2472              	.LBE744:
ARM GAS  C:\Users\danst\AppData\Local\Temp\ccwBJjMd.s 			page 76


 2473              	.LBE743:
 2474              	.LBB745:
 2475              	.LBI740:
  43:../../DaisySP//Source/Utility/dsp.h **** {
 2476              		.loc 17 43 14 is_stmt 1 view .LVU680
 2477              	.LBB742:
  45:../../DaisySP//Source/Utility/dsp.h **** #ifdef __arm__
 2478              		.loc 17 45 5 view .LVU681
  47:../../DaisySP//Source/Utility/dsp.h **** #else
 2479              		.loc 17 47 5 view .LVU682
 2480              		.syntax unified
 2481              	@ 47 "../../DaisySP//Source/Utility/dsp.h" 1
 2482 0020 80FE470A 		vminnm.f32 s0, s0, s14
 2483              	@ 0 "" 2
 2484              	.LVL194:
  51:../../DaisySP//Source/Utility/dsp.h **** }
 2485              		.loc 17 51 5 view .LVU683
  51:../../DaisySP//Source/Utility/dsp.h **** }
 2486              		.loc 17 51 5 is_stmt 0 view .LVU684
 2487              		.thumb
 2488              		.syntax unified
 2489              	.LBE742:
 2490              	.LBE745:
 2491              	.LBE747:
 2492              	.LBE750:
 2493              	.LBE754:
 2494              		.loc 16 271 21 view .LVU685
 2495 0024 FFF7FEBF 		b	_ZN7daisysp9Overdrive8SetDriveEf
 2496              	.LVL195:
 2497              	.L77:
 2498              		.align	2
 2499              	.L76:
 2500 0028 00000000 		.word	.LANCHOR30
 2501 002c 6666263F 		.word	1059481190
 2502 0030 6666663F 		.word	1063675494
 2503 0034 00000000 		.word	.LANCHOR9
 2504              		.cfi_endproc
 2505              	.LFE4796:
 2507              		.section	.text._Z13updateFiltersv,"ax",%progbits
 2508              		.align	1
 2509              		.p2align 2,,3
 2510              		.global	_Z13updateFiltersv
 2511              		.syntax unified
 2512              		.thumb
 2513              		.thumb_func
 2514              		.fpu fpv5-d16
 2516              	_Z13updateFiltersv:
 2517              	.LFB4797:
 272:takshaka.cpp  **** }
 273:takshaka.cpp  **** void updateFilters(){
 2518              		.loc 16 273 21 is_stmt 1 view -0
 2519              		.cfi_startproc
 2520              		@ args = 0, pretend = 0, frame = 8
 2521              		@ frame_needed = 0, uses_anonymous_args = 0
 274:takshaka.cpp  **** 	float resValue = fmap( filterResSmartKnob.GetValue(), 0.0, 0.85 );
 2522              		.loc 16 274 2 view .LVU687
 273:takshaka.cpp  **** 	float resValue = fmap( filterResSmartKnob.GetValue(), 0.0, 0.85 );
ARM GAS  C:\Users\danst\AppData\Local\Temp\ccwBJjMd.s 			page 77


 2523              		.loc 16 273 21 is_stmt 0 view .LVU688
 2524 0000 10B5     		push	{r4, lr}
 2525              		.cfi_def_cfa_offset 8
 2526              		.cfi_offset 4, -8
 2527              		.cfi_offset 14, -4
 2528              		.loc 16 274 23 view .LVU689
 2529 0002 174C     		ldr	r4, .L80
 273:takshaka.cpp  **** 	float resValue = fmap( filterResSmartKnob.GetValue(), 0.0, 0.85 );
 2530              		.loc 16 273 21 view .LVU690
 2531 0004 2DED028B 		vpush.64	{d8}
 2532              		.cfi_def_cfa_offset 16
 2533              		.cfi_offset 80, -16
 2534              		.cfi_offset 81, -12
 2535              	.LBB755:
 2536              	.LBB756:
 2537              		.loc 17 173 31 view .LVU691
 2538 0008 9FED168A 		vldr.32	s16, .L80+4
 2539              	.LBE756:
 2540              	.LBE755:
 273:takshaka.cpp  **** 	float resValue = fmap( filterResSmartKnob.GetValue(), 0.0, 0.85 );
 2541              		.loc 16 273 21 view .LVU692
 2542 000c 82B0     		sub	sp, sp, #8
 2543              		.cfi_def_cfa_offset 24
 2544              		.loc 16 274 23 view .LVU693
 2545 000e 2046     		mov	r0, r4
 2546 0010 FFF7FEFF 		bl	_ZN7daisysp9SmartKnob8GetValueEv
 2547              	.LVL196:
 2548              	.LBB766:
 2549              	.LBI755:
 161:../../DaisySP//Source/Utility/dsp.h **** {
 2550              		.loc 17 161 1 is_stmt 1 view .LVU694
 2551              	.LBE766:
 163:../../DaisySP//Source/Utility/dsp.h ****     {
 2552              		.loc 17 163 5 view .LVU695
 2553              	.LBB767:
 2554              	.LBB763:
 172:../../DaisySP//Source/Utility/dsp.h ****         default: return fclamp(min + in * (max - min), min, max);
 2555              		.loc 17 172 9 view .LVU696
 2556              		.loc 17 173 9 view .LVU697
 2557              		.loc 17 173 18 view .LVU698
 2558              		.loc 17 173 31 is_stmt 0 view .LVU699
 2559 0014 F0EE487A 		vmov.f32	s15, s16
 2560 0018 9FED137A 		vldr.32	s14, .L80+8
 2561              	.LBE763:
 2562              	.LBE767:
 275:takshaka.cpp  **** 	filter1.SetRes( resValue );
 2563              		.loc 16 275 16 view .LVU700
 2564 001c 1348     		ldr	r0, .L80+12
 2565              	.LBB768:
 2566              	.LBB764:
 2567              		.loc 17 173 31 view .LVU701
 2568 001e E0EE077A 		vfma.f32	s15, s0, s14
 2569              	.LVL197:
 2570              	.LBB757:
 2571              	.LBI757:
  56:../../DaisySP//Source/Utility/dsp.h **** {
 2572              		.loc 17 56 14 is_stmt 1 view .LVU702
ARM GAS  C:\Users\danst\AppData\Local\Temp\ccwBJjMd.s 			page 78


 2573              	.LBE757:
 2574              	.LBE764:
 2575              	.LBE768:
  58:../../DaisySP//Source/Utility/dsp.h **** }
 2576              		.loc 17 58 5 view .LVU703
 2577              	.LBB769:
 2578              	.LBB765:
 2579              	.LBB762:
 2580              	.LBB758:
 2581              	.LBI758:
  32:../../DaisySP//Source/Utility/dsp.h **** {
 2582              		.loc 17 32 14 view .LVU704
 2583              	.LBB759:
  34:../../DaisySP//Source/Utility/dsp.h **** #ifdef __arm__
 2584              		.loc 17 34 5 view .LVU705
  36:../../DaisySP//Source/Utility/dsp.h **** #else
 2585              		.loc 17 36 5 view .LVU706
 2586              		.syntax unified
 2587              	@ 36 "../../DaisySP//Source/Utility/dsp.h" 1
 2588 0022 87FE880A 		vmaxnm.f32 s0, s15, s16
 2589              	@ 0 "" 2
 2590              	.LVL198:
  40:../../DaisySP//Source/Utility/dsp.h **** }
 2591              		.loc 17 40 5 view .LVU707
  40:../../DaisySP//Source/Utility/dsp.h **** }
 2592              		.loc 17 40 5 is_stmt 0 view .LVU708
 2593              		.thumb
 2594              		.syntax unified
 2595              	.LBE759:
 2596              	.LBE758:
 2597              	.LBB760:
 2598              	.LBI760:
  43:../../DaisySP//Source/Utility/dsp.h **** {
 2599              		.loc 17 43 14 is_stmt 1 view .LVU709
 2600              	.LBB761:
  45:../../DaisySP//Source/Utility/dsp.h **** #ifdef __arm__
 2601              		.loc 17 45 5 view .LVU710
  47:../../DaisySP//Source/Utility/dsp.h **** #else
 2602              		.loc 17 47 5 view .LVU711
 2603              		.syntax unified
 2604              	@ 47 "../../DaisySP//Source/Utility/dsp.h" 1
 2605 0026 80FE470A 		vminnm.f32 s0, s0, s14
 2606              	@ 0 "" 2
 2607              	.LVL199:
  51:../../DaisySP//Source/Utility/dsp.h **** }
 2608              		.loc 17 51 5 view .LVU712
  51:../../DaisySP//Source/Utility/dsp.h **** }
 2609              		.loc 17 51 5 is_stmt 0 view .LVU713
 2610              		.thumb
 2611              		.syntax unified
 2612              	.LBE761:
 2613              	.LBE760:
 2614              	.LBE762:
 2615              	.LBE765:
 2616              	.LBE769:
 2617              		.loc 16 275 2 is_stmt 1 view .LVU714
 2618              		.loc 16 275 16 is_stmt 0 view .LVU715
ARM GAS  C:\Users\danst\AppData\Local\Temp\ccwBJjMd.s 			page 79


 2619 002a 8DED010A 		vstr.32	s0, [sp, #4]	@ int
 2620 002e FFF7FEFF 		bl	_ZN7daisysp3Svf6SetResEf
 2621              	.LVL200:
 276:takshaka.cpp  **** 	filter2.SetRes( resValue );	
 2622              		.loc 16 276 2 is_stmt 1 view .LVU716
 2623              		.loc 16 276 16 is_stmt 0 view .LVU717
 2624 0032 9DED010A 		vldr.32	s0, [sp, #4]	@ int
 2625 0036 0E48     		ldr	r0, .L80+16
 2626 0038 FFF7FEFF 		bl	_ZN7daisysp3Svf6SetResEf
 2627              	.LVL201:
 277:takshaka.cpp  **** 	combFilter.SetRevTime( fmap( filterResSmartKnob.GetValue(), 0.0, 1.0 ) );
 2628              		.loc 16 277 2 is_stmt 1 view .LVU718
 2629              		.loc 16 277 23 is_stmt 0 view .LVU719
 2630 003c 2046     		mov	r0, r4
 2631 003e FFF7FEFF 		bl	_ZN7daisysp9SmartKnob8GetValueEv
 2632              	.LVL202:
 2633              	.LBB770:
 2634              	.LBI770:
 161:../../DaisySP//Source/Utility/dsp.h **** {
 2635              		.loc 17 161 1 is_stmt 1 view .LVU720
 2636              	.LBE770:
 163:../../DaisySP//Source/Utility/dsp.h ****     {
 2637              		.loc 17 163 5 view .LVU721
 2638              	.LBB785:
 2639              	.LBB771:
 172:../../DaisySP//Source/Utility/dsp.h ****         default: return fclamp(min + in * (max - min), min, max);
 2640              		.loc 17 172 9 view .LVU722
 2641              		.loc 17 173 9 view .LVU723
 2642              		.loc 17 173 18 view .LVU724
 2643              	.LBB772:
 2644              	.LBI772:
  56:../../DaisySP//Source/Utility/dsp.h **** {
 2645              		.loc 17 56 14 view .LVU725
 2646              	.LBE772:
 2647              	.LBE771:
 2648              	.LBE785:
  58:../../DaisySP//Source/Utility/dsp.h **** }
 2649              		.loc 17 58 5 view .LVU726
 2650              	.LBB786:
 2651              	.LBB783:
 2652              	.LBB781:
 2653              	.LBB773:
 2654              	.LBI773:
  32:../../DaisySP//Source/Utility/dsp.h **** {
 2655              		.loc 17 32 14 view .LVU727
 2656              	.LBB774:
  34:../../DaisySP//Source/Utility/dsp.h **** #ifdef __arm__
 2657              		.loc 17 34 5 view .LVU728
  36:../../DaisySP//Source/Utility/dsp.h **** #else
 2658              		.loc 17 36 5 view .LVU729
 2659              	.LBE774:
 2660              	.LBE773:
 2661              	.LBB776:
 2662              	.LBB777:
  47:../../DaisySP//Source/Utility/dsp.h **** #else
 2663              		.loc 17 47 5 is_stmt 0 view .LVU730
 2664 0042 F7EE007A 		vmov.f32	s15, #1.0e+0
ARM GAS  C:\Users\danst\AppData\Local\Temp\ccwBJjMd.s 			page 80


 2665              	.LBE777:
 2666              	.LBE776:
 2667              	.LBE781:
 2668              	.LBE783:
 2669              	.LBE786:
 2670              	.LBB787:
 2671              	.LBB788:
  46:../../DaisySP//Source/Filters/comb.h ****         }
  47:../../DaisySP//Source/Filters/comb.h ****     }
  48:../../DaisySP//Source/Filters/comb.h **** 
  49:../../DaisySP//Source/Filters/comb.h ****     /** Sets the decay time of the comb filter
  50:../../DaisySP//Source/Filters/comb.h ****     */
  51:../../DaisySP//Source/Filters/comb.h ****     inline void SetRevTime(float revtime) { rev_time_ = revtime; }
 2672              		.loc 11 51 55 view .LVU731
 2673 0046 0B4B     		ldr	r3, .L80+20
 2674              	.LBE788:
 2675              	.LBE787:
 2676              	.LBB790:
 2677              	.LBB784:
 2678              		.loc 17 173 31 view .LVU732
 2679 0048 30EE080A 		vadd.f32	s0, s0, s16
 2680              	.LVL203:
 2681              	.LBB782:
 2682              	.LBB779:
 2683              	.LBB775:
  36:../../DaisySP//Source/Utility/dsp.h **** #else
 2684              		.loc 17 36 5 view .LVU733
 2685              		.syntax unified
 2686              	@ 36 "../../DaisySP//Source/Utility/dsp.h" 1
 2687 004c 80FE080A 		vmaxnm.f32 s0, s0, s16
 2688              	@ 0 "" 2
 2689              	.LVL204:
  40:../../DaisySP//Source/Utility/dsp.h **** }
 2690              		.loc 17 40 5 is_stmt 1 view .LVU734
  40:../../DaisySP//Source/Utility/dsp.h **** }
 2691              		.loc 17 40 5 is_stmt 0 view .LVU735
 2692              		.thumb
 2693              		.syntax unified
 2694              	.LBE775:
 2695              	.LBE779:
 2696              	.LBB780:
 2697              	.LBI776:
  43:../../DaisySP//Source/Utility/dsp.h **** {
 2698              		.loc 17 43 14 is_stmt 1 view .LVU736
 2699              	.LBB778:
  45:../../DaisySP//Source/Utility/dsp.h **** #ifdef __arm__
 2700              		.loc 17 45 5 view .LVU737
  47:../../DaisySP//Source/Utility/dsp.h **** #else
 2701              		.loc 17 47 5 view .LVU738
 2702              		.syntax unified
 2703              	@ 47 "../../DaisySP//Source/Utility/dsp.h" 1
 2704 0050 80FE670A 		vminnm.f32 s0, s0, s15
 2705              	@ 0 "" 2
 2706              	.LVL205:
  51:../../DaisySP//Source/Utility/dsp.h **** }
 2707              		.loc 17 51 5 view .LVU739
  51:../../DaisySP//Source/Utility/dsp.h **** }
ARM GAS  C:\Users\danst\AppData\Local\Temp\ccwBJjMd.s 			page 81


 2708              		.loc 17 51 5 is_stmt 0 view .LVU740
 2709              		.thumb
 2710              		.syntax unified
 2711              	.LBE778:
 2712              	.LBE780:
 2713              	.LBE782:
 2714              	.LBE784:
 2715              	.LBE790:
 2716              	.LBB791:
 2717              	.LBI787:
 2718              		.loc 11 51 17 is_stmt 1 view .LVU741
 2719              	.LBB789:
 2720              		.loc 11 51 45 view .LVU742
 2721              		.loc 11 51 55 is_stmt 0 view .LVU743
 2722 0054 83ED010A 		vstr.32	s0, [r3, #4]
 2723              	.LVL206:
 2724              		.loc 11 51 55 view .LVU744
 2725              	.LBE789:
 2726              	.LBE791:
 278:takshaka.cpp  **** }
 2727              		.loc 16 278 1 view .LVU745
 2728 0058 02B0     		add	sp, sp, #8
 2729              		.cfi_def_cfa_offset 16
 2730              		@ sp needed
 2731 005a BDEC028B 		vldm	sp!, {d8}
 2732              		.cfi_restore 80
 2733              		.cfi_restore 81
 2734              		.cfi_def_cfa_offset 8
 2735 005e 10BD     		pop	{r4, pc}
 2736              	.L81:
 2737              		.align	2
 2738              	.L80:
 2739 0060 00000000 		.word	.LANCHOR23
 2740 0064 00000000 		.word	0
 2741 0068 9A99593F 		.word	1062836634
 2742 006c 00000000 		.word	.LANCHOR12
 2743 0070 00000000 		.word	.LANCHOR13
 2744 0074 00000000 		.word	.LANCHOR14
 2745              		.cfi_endproc
 2746              	.LFE4797:
 2748              		.section	.text._Z12updatePouncev,"ax",%progbits
 2749              		.align	1
 2750              		.p2align 2,,3
 2751              		.global	_Z12updatePouncev
 2752              		.syntax unified
 2753              		.thumb
 2754              		.thumb_func
 2755              		.fpu fpv5-d16
 2757              	_Z12updatePouncev:
 2758              	.LFB4798:
 279:takshaka.cpp  **** void updatePounce(){
 2759              		.loc 16 279 20 is_stmt 1 view -0
 2760              		.cfi_startproc
 2761              		@ args = 0, pretend = 0, frame = 0
 2762              		@ frame_needed = 0, uses_anonymous_args = 0
 280:takshaka.cpp  **** 	pounce.SetAttackTime( fmap( pounceAttackSmartKnob.GetValue(), 0.005, 4.0 ) );
 2763              		.loc 16 280 2 view .LVU747
ARM GAS  C:\Users\danst\AppData\Local\Temp\ccwBJjMd.s 			page 82


 279:takshaka.cpp  **** void updatePounce(){
 2764              		.loc 16 279 20 is_stmt 0 view .LVU748
 2765 0000 10B5     		push	{r4, lr}
 2766              		.cfi_def_cfa_offset 8
 2767              		.cfi_offset 4, -8
 2768              		.cfi_offset 14, -4
 2769              		.loc 16 280 22 view .LVU749
 2770 0002 2A48     		ldr	r0, .L87
 279:takshaka.cpp  **** void updatePounce(){
 2771              		.loc 16 279 20 view .LVU750
 2772 0004 2DED048B 		vpush.64	{d8, d9}
 2773              		.cfi_def_cfa_offset 24
 2774              		.cfi_offset 80, -24
 2775              		.cfi_offset 81, -20
 2776              		.cfi_offset 82, -16
 2777              		.cfi_offset 83, -12
 2778              		.loc 16 280 22 view .LVU751
 2779 0008 FFF7FEFF 		bl	_ZN7daisysp9SmartKnob8GetValueEv
 2780              	.LVL207:
 2781              	.LBB792:
 2782              	.LBI792:
 161:../../DaisySP//Source/Utility/dsp.h **** {
 2783              		.loc 17 161 1 is_stmt 1 view .LVU752
 2784              	.LBE792:
 163:../../DaisySP//Source/Utility/dsp.h ****     {
 2785              		.loc 17 163 5 view .LVU753
 2786              	.LBB806:
 2787              	.LBB793:
 172:../../DaisySP//Source/Utility/dsp.h ****         default: return fclamp(min + in * (max - min), min, max);
 2788              		.loc 17 172 9 view .LVU754
 2789              		.loc 17 173 9 view .LVU755
 2790              		.loc 17 173 18 view .LVU756
 2791              		.loc 17 173 31 is_stmt 0 view .LVU757
 2792 000c 9FED287A 		vldr.32	s14, .L87+4
 2793 0010 DFED286A 		vldr.32	s13, .L87+8
 2794 0014 F0EE477A 		vmov.f32	s15, s14
 2795              	.LBE793:
 2796              	.LBE806:
 2797              		.loc 16 280 22 view .LVU758
 2798 0018 DFED270A 		vldr.32	s1, .L87+12
 2799 001c 2748     		ldr	r0, .L87+16
 2800              	.LBB807:
 2801              	.LBB804:
 2802              		.loc 17 173 31 view .LVU759
 2803 001e E0EE267A 		vfma.f32	s15, s0, s13
 2804              	.LVL208:
 2805              	.LBB794:
 2806              	.LBI794:
  56:../../DaisySP//Source/Utility/dsp.h **** {
 2807              		.loc 17 56 14 is_stmt 1 view .LVU760
 2808              	.LBE794:
 2809              	.LBE804:
 2810              	.LBE807:
  58:../../DaisySP//Source/Utility/dsp.h **** }
 2811              		.loc 17 58 5 view .LVU761
 2812              	.LBB808:
 2813              	.LBB805:
ARM GAS  C:\Users\danst\AppData\Local\Temp\ccwBJjMd.s 			page 83


 2814              	.LBB803:
 2815              	.LBB795:
 2816              	.LBI795:
  32:../../DaisySP//Source/Utility/dsp.h **** {
 2817              		.loc 17 32 14 view .LVU762
 2818              	.LBB796:
  34:../../DaisySP//Source/Utility/dsp.h **** #ifdef __arm__
 2819              		.loc 17 34 5 view .LVU763
  36:../../DaisySP//Source/Utility/dsp.h **** #else
 2820              		.loc 17 36 5 view .LVU764
 2821              	.LBE796:
 2822              	.LBE795:
 2823              	.LBB798:
 2824              	.LBB799:
  47:../../DaisySP//Source/Utility/dsp.h **** #else
 2825              		.loc 17 47 5 is_stmt 0 view .LVU765
 2826 0022 B1EE000A 		vmov.f32	s0, #4.0e+0
 2827              	.LVL209:
  47:../../DaisySP//Source/Utility/dsp.h **** #else
 2828              		.loc 17 47 5 view .LVU766
 2829              	.LBE799:
 2830              	.LBE798:
 2831              	.LBB801:
 2832              	.LBB797:
  36:../../DaisySP//Source/Utility/dsp.h **** #else
 2833              		.loc 17 36 5 view .LVU767
 2834              		.syntax unified
 2835              	@ 36 "../../DaisySP//Source/Utility/dsp.h" 1
 2836 0026 C7FE877A 		vmaxnm.f32 s15, s15, s14
 2837              	@ 0 "" 2
 2838              	.LVL210:
  40:../../DaisySP//Source/Utility/dsp.h **** }
 2839              		.loc 17 40 5 is_stmt 1 view .LVU768
  40:../../DaisySP//Source/Utility/dsp.h **** }
 2840              		.loc 17 40 5 is_stmt 0 view .LVU769
 2841              		.thumb
 2842              		.syntax unified
 2843              	.LBE797:
 2844              	.LBE801:
 2845              	.LBB802:
 2846              	.LBI798:
  43:../../DaisySP//Source/Utility/dsp.h **** {
 2847              		.loc 17 43 14 is_stmt 1 view .LVU770
 2848              	.LBB800:
  45:../../DaisySP//Source/Utility/dsp.h **** #ifdef __arm__
 2849              		.loc 17 45 5 view .LVU771
  47:../../DaisySP//Source/Utility/dsp.h **** #else
 2850              		.loc 17 47 5 view .LVU772
 2851              		.syntax unified
 2852              	@ 47 "../../DaisySP//Source/Utility/dsp.h" 1
 2853 002a 87FEC00A 		vminnm.f32 s0, s15, s0
 2854              	@ 0 "" 2
 2855              	.LVL211:
  51:../../DaisySP//Source/Utility/dsp.h **** }
 2856              		.loc 17 51 5 view .LVU773
  51:../../DaisySP//Source/Utility/dsp.h **** }
 2857              		.loc 17 51 5 is_stmt 0 view .LVU774
ARM GAS  C:\Users\danst\AppData\Local\Temp\ccwBJjMd.s 			page 84


 2858              		.thumb
 2859              		.syntax unified
 2860              	.LBE800:
 2861              	.LBE802:
 2862              	.LBE803:
 2863              	.LBE805:
 2864              	.LBE808:
 2865              		.loc 16 280 22 view .LVU775
 2866 002e FFF7FEFF 		bl	_ZN7daisysp4Adsr13SetAttackTimeEff
 2867              	.LVL212:
 281:takshaka.cpp  **** 	pounce.SetSustainLevel( pounceSustainSmartKnob.GetValue() );
 2868              		.loc 16 281 2 is_stmt 1 view .LVU776
 2869              		.loc 16 281 24 is_stmt 0 view .LVU777
 2870 0032 2348     		ldr	r0, .L87+20
 2871 0034 FFF7FEFF 		bl	_ZN7daisysp9SmartKnob8GetValueEv
 2872              	.LVL213:
 2873              	.LBB809:
 2874              	.LBI809:
  38:../../DaisySP//Source/Control/adsr.h ****     /** Initializes the Adsr module.
  39:../../DaisySP//Source/Control/adsr.h ****         \param sample_rate - The sample rate of the audio engine being run. 
  40:../../DaisySP//Source/Control/adsr.h ****     */
  41:../../DaisySP//Source/Control/adsr.h ****     void Init(float sample_rate, int blockSize = 1);
  42:../../DaisySP//Source/Control/adsr.h ****     /**
  43:../../DaisySP//Source/Control/adsr.h ****      \function Retrigger forces the envelope back to attack phase
  44:../../DaisySP//Source/Control/adsr.h ****      \param hard  resets the history to zero, results in a click.
  45:../../DaisySP//Source/Control/adsr.h ****      */
  46:../../DaisySP//Source/Control/adsr.h ****     void Retrigger(bool hard);
  47:../../DaisySP//Source/Control/adsr.h ****     /** Processes one sample through the filter and returns one sample.
  48:../../DaisySP//Source/Control/adsr.h ****         \param gate - trigger the envelope, hold it to sustain 
  49:../../DaisySP//Source/Control/adsr.h ****     */
  50:../../DaisySP//Source/Control/adsr.h ****     float Process(bool gate);
  51:../../DaisySP//Source/Control/adsr.h ****     /** Sets time
  52:../../DaisySP//Source/Control/adsr.h ****         Set time per segment in seconds
  53:../../DaisySP//Source/Control/adsr.h ****     */
  54:../../DaisySP//Source/Control/adsr.h ****     void SetTime(int seg, float time);
  55:../../DaisySP//Source/Control/adsr.h ****     void SetAttackTime(float timeInS, float shape = 0.0f);
  56:../../DaisySP//Source/Control/adsr.h ****     void SetDecayTime(float timeInS);
  57:../../DaisySP//Source/Control/adsr.h ****     void SetReleaseTime(float timeInS);
  58:../../DaisySP//Source/Control/adsr.h **** 
  59:../../DaisySP//Source/Control/adsr.h ****   private:
  60:../../DaisySP//Source/Control/adsr.h ****     void SetTimeConstant(float timeInS, float& time, float& coeff);
  61:../../DaisySP//Source/Control/adsr.h **** 
  62:../../DaisySP//Source/Control/adsr.h ****   public:
  63:../../DaisySP//Source/Control/adsr.h ****     /** Sustain level
  64:../../DaisySP//Source/Control/adsr.h ****         \param sus_level - sets sustain level, 0...1.0
  65:../../DaisySP//Source/Control/adsr.h ****     */
  66:../../DaisySP//Source/Control/adsr.h ****     inline void SetSustainLevel(float sus_level)
 2875              		.loc 7 66 17 is_stmt 1 view .LVU778
 2876              	.LBB810:
  67:../../DaisySP//Source/Control/adsr.h ****     {
  68:../../DaisySP//Source/Control/adsr.h ****         sus_level = (sus_level <= 0.f) ? -0.01f // forces envelope into idle
 2877              		.loc 7 68 9 view .LVU779
 2878              		.loc 7 68 40 is_stmt 0 view .LVU780
 2879 0038 B5EEC00A 		vcmpe.f32	s0, #0
 2880 003c F1EE10FA 		vmrs	APSR_nzcv, FPSCR
 2881 0040 30D9     		bls	.L84
  69:../../DaisySP//Source/Control/adsr.h ****                                        : (sus_level > 1.f) ? 1.f : sus_level;
ARM GAS  C:\Users\danst\AppData\Local\Temp\ccwBJjMd.s 			page 85


 2882              		.loc 7 69 60 view .LVU781
 2883 0042 F7EE007A 		vmov.f32	s15, #1.0e+0
 2884 0046 B4EE670A 		vcmp.f32	s0, s15
 2885 004a F1EE10FA 		vmrs	APSR_nzcv, FPSCR
 2886 004e 37FE800A 		vselgt.f32	s0, s15, s0
 2887              	.LVL214:
 2888              	.L83:
  70:../../DaisySP//Source/Control/adsr.h ****         sus_level_ = sus_level;
 2889              		.loc 7 70 9 is_stmt 1 view .LVU782
 2890              	.LBE810:
 2891              	.LBE809:
 2892              	.LBB814:
 2893              	.LBB815:
 2894              		.loc 17 173 31 is_stmt 0 view .LVU783
 2895 0052 9FED178A 		vldr.32	s16, .L87+4
 2896              	.LBB816:
 2897              	.LBB817:
 2898              	.LBB818:
  47:../../DaisySP//Source/Utility/dsp.h **** #else
 2899              		.loc 17 47 5 view .LVU784
 2900 0056 F1EE008A 		vmov.f32	s17, #4.0e+0
 2901              	.LBE818:
 2902              	.LBE817:
 2903              	.LBE816:
 2904              	.LBE815:
 2905              	.LBE814:
 2906              	.LBB828:
 2907              	.LBB811:
 2908              		.loc 7 70 20 view .LVU785
 2909 005a 184C     		ldr	r4, .L87+16
 2910              	.LBE811:
 2911              	.LBE828:
 282:takshaka.cpp  **** 	pounce.SetDecayTime( fmap( pounceDecaySmartKnob.GetValue(), 0.005, 4.0 ) );
 2912              		.loc 16 282 21 view .LVU786
 2913 005c 1948     		ldr	r0, .L87+24
 2914              	.LBB829:
